ARM GAS  C:\Users\Tim\AppData\Local\Temp\cc8JoH59.s 			page 1


   1              		.syntax unified
   2              		.cpu cortex-m3
   3              		.fpu softvfp
   4              		.eabi_attribute 20, 1
   5              		.eabi_attribute 21, 1
   6              		.eabi_attribute 23, 3
   7              		.eabi_attribute 24, 1
   8              		.eabi_attribute 25, 1
   9              		.eabi_attribute 26, 1
  10              		.eabi_attribute 30, 1
  11              		.eabi_attribute 34, 1
  12              		.eabi_attribute 18, 4
  13              		.thumb
  14              		.file	"Camera.c"
  15              		.text
  16              	.Ltext0:
  17              		.cfi_sections	.debug_frame
  18              		.section	.text.Camera_WriteReg,"ax",%progbits
  19              		.align	2
  20              		.global	Camera_WriteReg
  21              		.thumb
  22              		.thumb_func
  23              		.type	Camera_WriteReg, %function
  24              	Camera_WriteReg:
  25              	.LFB63:
  26              		.file 1 ".\\Generated_Source\\PSoC5\\Camera.c"
   1:.\Generated_Source\PSoC5/Camera.c **** #include "Camera.h"
   2:.\Generated_Source\PSoC5/Camera.c **** 
   3:.\Generated_Source\PSoC5/Camera.c **** extern const uint8 Camera_settings[][2];
   4:.\Generated_Source\PSoC5/Camera.c **** extern const uint8 Camera_format[];
   5:.\Generated_Source\PSoC5/Camera.c **** extern const uint8 Camera_sxga[];
   6:.\Generated_Source\PSoC5/Camera.c **** extern const uint8 Camera_vga[];
   7:.\Generated_Source\PSoC5/Camera.c **** extern const uint8 Camera_qvga[];
   8:.\Generated_Source\PSoC5/Camera.c **** extern const uint8 Camera_cif[];
   9:.\Generated_Source\PSoC5/Camera.c **** extern const uint8 Camera_qcif[];
  10:.\Generated_Source\PSoC5/Camera.c **** 
  11:.\Generated_Source\PSoC5/Camera.c **** static uint8 DMA_channel,DMA_TD;
  12:.\Generated_Source\PSoC5/Camera.c **** 
  13:.\Generated_Source\PSoC5/Camera.c **** void Camera_WriteReg(const uint8 reg,const uint8 value)
  14:.\Generated_Source\PSoC5/Camera.c **** {
  27              		.loc 1 14 0
  28              		.cfi_startproc
  29              		@ args = 0, pretend = 0, frame = 0
  30              		@ frame_needed = 0, uses_anonymous_args = 0
  31              	.LVL0:
  32 0000 38B5     		push	{r3, r4, r5, lr}
  33              		.cfi_def_cfa_offset 16
  34              		.cfi_offset 3, -16
  35              		.cfi_offset 4, -12
  36              		.cfi_offset 5, -8
  37              		.cfi_offset 14, -4
  38 0002 0546     		mov	r5, r0
  39 0004 0C46     		mov	r4, r1
  40              	.LVL1:
  41              	.L2:
  15:.\Generated_Source\PSoC5/Camera.c **** 	while(Camera_I2C_MasterSendStart(0x30,0)!=Camera_I2C_MSTR_NO_ERROR);
  42              		.loc 1 15 0 discriminator 1
ARM GAS  C:\Users\Tim\AppData\Local\Temp\cc8JoH59.s 			page 2


  43 0006 3020     		movs	r0, #48
  44 0008 0021     		movs	r1, #0
  45 000a FFF7FEFF 		bl	Camera_I2C_MasterSendStart
  46              	.LVL2:
  47 000e 0028     		cmp	r0, #0
  48 0010 F9D1     		bne	.L2
  16:.\Generated_Source\PSoC5/Camera.c ****     Camera_I2C_MasterWriteByte(reg);
  49              		.loc 1 16 0
  50 0012 2846     		mov	r0, r5
  51 0014 FFF7FEFF 		bl	Camera_I2C_MasterWriteByte
  52              	.LVL3:
  17:.\Generated_Source\PSoC5/Camera.c ****     Camera_I2C_MasterWriteByte(value);
  53              		.loc 1 17 0
  54 0018 2046     		mov	r0, r4
  55 001a FFF7FEFF 		bl	Camera_I2C_MasterWriteByte
  56              	.LVL4:
  18:.\Generated_Source\PSoC5/Camera.c ****     Camera_I2C_MasterSendStop();
  57              		.loc 1 18 0
  58 001e FFF7FEFF 		bl	Camera_I2C_MasterSendStop
  59              	.LVL5:
  60 0022 38BD     		pop	{r3, r4, r5, pc}
  61              		.cfi_endproc
  62              	.LFE63:
  63              		.size	Camera_WriteReg, .-Camera_WriteReg
  64              		.section	.text.Camera_ReadReg,"ax",%progbits
  65              		.align	2
  66              		.global	Camera_ReadReg
  67              		.thumb
  68              		.thumb_func
  69              		.type	Camera_ReadReg, %function
  70              	Camera_ReadReg:
  71              	.LFB64:
  19:.\Generated_Source\PSoC5/Camera.c **** }
  20:.\Generated_Source\PSoC5/Camera.c **** 
  21:.\Generated_Source\PSoC5/Camera.c **** uint8 Camera_ReadReg(const uint8 reg)
  22:.\Generated_Source\PSoC5/Camera.c **** {
  72              		.loc 1 22 0
  73              		.cfi_startproc
  74              		@ args = 0, pretend = 0, frame = 0
  75              		@ frame_needed = 0, uses_anonymous_args = 0
  76              	.LVL6:
  77 0000 10B5     		push	{r4, lr}
  78              		.cfi_def_cfa_offset 8
  79              		.cfi_offset 4, -8
  80              		.cfi_offset 14, -4
  81 0002 0446     		mov	r4, r0
  82              	.LVL7:
  83              	.L5:
  23:.\Generated_Source\PSoC5/Camera.c **** 	while(Camera_I2C_MasterSendStart(0x30,0)!=Camera_I2C_MSTR_NO_ERROR);
  84              		.loc 1 23 0 discriminator 1
  85 0004 3020     		movs	r0, #48
  86 0006 0021     		movs	r1, #0
  87 0008 FFF7FEFF 		bl	Camera_I2C_MasterSendStart
  88              	.LVL8:
  89 000c 0028     		cmp	r0, #0
  90 000e F9D1     		bne	.L5
  24:.\Generated_Source\PSoC5/Camera.c ****     Camera_I2C_MasterWriteByte(reg);
ARM GAS  C:\Users\Tim\AppData\Local\Temp\cc8JoH59.s 			page 3


  91              		.loc 1 24 0
  92 0010 2046     		mov	r0, r4
  93 0012 FFF7FEFF 		bl	Camera_I2C_MasterWriteByte
  94              	.LVL9:
  25:.\Generated_Source\PSoC5/Camera.c ****     Camera_I2C_MasterSendStop();
  95              		.loc 1 25 0
  96 0016 FFF7FEFF 		bl	Camera_I2C_MasterSendStop
  97              	.LVL10:
  98              	.L6:
  26:.\Generated_Source\PSoC5/Camera.c **** 	
  27:.\Generated_Source\PSoC5/Camera.c **** 	while(Camera_I2C_MasterSendStart(0x30,1)!=Camera_I2C_MSTR_NO_ERROR);
  99              		.loc 1 27 0 discriminator 1
 100 001a 3020     		movs	r0, #48
 101 001c 0121     		movs	r1, #1
 102 001e FFF7FEFF 		bl	Camera_I2C_MasterSendStart
 103              	.LVL11:
 104 0022 0028     		cmp	r0, #0
 105 0024 F9D1     		bne	.L6
  28:.\Generated_Source\PSoC5/Camera.c ****     uint8 value=Camera_I2C_MasterReadByte(Camera_I2C_NAK_DATA);
 106              		.loc 1 28 0
 107 0026 FFF7FEFF 		bl	Camera_I2C_MasterReadByte
 108              	.LVL12:
 109 002a 0446     		mov	r4, r0
 110              	.LVL13:
  29:.\Generated_Source\PSoC5/Camera.c ****     Camera_I2C_MasterSendStop();
 111              		.loc 1 29 0
 112 002c FFF7FEFF 		bl	Camera_I2C_MasterSendStop
 113              	.LVL14:
  30:.\Generated_Source\PSoC5/Camera.c **** 	return value;
  31:.\Generated_Source\PSoC5/Camera.c **** }
 114              		.loc 1 31 0
 115 0030 2046     		mov	r0, r4
 116 0032 10BD     		pop	{r4, pc}
 117              		.cfi_endproc
 118              	.LFE64:
 119              		.size	Camera_ReadReg, .-Camera_ReadReg
 120              		.section	.text.Camera_SyncFrame,"ax",%progbits
 121              		.align	2
 122              		.global	Camera_SyncFrame
 123              		.thumb
 124              		.thumb_func
 125              		.type	Camera_SyncFrame, %function
 126              	Camera_SyncFrame:
 127              	.LFB65:
  32:.\Generated_Source\PSoC5/Camera.c **** 
  33:.\Generated_Source\PSoC5/Camera.c **** void Camera_SyncFrame()
  34:.\Generated_Source\PSoC5/Camera.c **** {
 128              		.loc 1 34 0
 129              		.cfi_startproc
 130              		@ args = 0, pretend = 0, frame = 0
 131              		@ frame_needed = 0, uses_anonymous_args = 0
 132 0000 08B5     		push	{r3, lr}
 133              		.cfi_def_cfa_offset 8
 134              		.cfi_offset 3, -8
 135              		.cfi_offset 14, -4
 136              	.L9:
  35:.\Generated_Source\PSoC5/Camera.c **** 	while(Camera_VSYNC_Read());
ARM GAS  C:\Users\Tim\AppData\Local\Temp\cc8JoH59.s 			page 4


 137              		.loc 1 35 0 discriminator 1
 138 0002 FFF7FEFF 		bl	Camera_VSYNC_Read
 139              	.LVL15:
 140 0006 0028     		cmp	r0, #0
 141 0008 FBD1     		bne	.L9
 142              	.L10:
  36:.\Generated_Source\PSoC5/Camera.c **** 	while(!Camera_VSYNC_Read());
 143              		.loc 1 36 0 discriminator 1
 144 000a FFF7FEFF 		bl	Camera_VSYNC_Read
 145              	.LVL16:
 146 000e 0028     		cmp	r0, #0
 147 0010 FBD0     		beq	.L10
  37:.\Generated_Source\PSoC5/Camera.c **** }
 148              		.loc 1 37 0
 149 0012 08BD     		pop	{r3, pc}
 150              		.cfi_endproc
 151              	.LFE65:
 152              		.size	Camera_SyncFrame, .-Camera_SyncFrame
 153              		.section	.text.Camera_Start,"ax",%progbits
 154              		.align	2
 155              		.global	Camera_Start
 156              		.thumb
 157              		.thumb_func
 158              		.type	Camera_Start, %function
 159              	Camera_Start:
 160              	.LFB66:
  38:.\Generated_Source\PSoC5/Camera.c **** 
  39:.\Generated_Source\PSoC5/Camera.c **** void Camera_Start()
  40:.\Generated_Source\PSoC5/Camera.c **** {
 161              		.loc 1 40 0
 162              		.cfi_startproc
 163              		@ args = 0, pretend = 0, frame = 0
 164              		@ frame_needed = 0, uses_anonymous_args = 0
 165 0000 10B5     		push	{r4, lr}
 166              		.cfi_def_cfa_offset 8
 167              		.cfi_offset 4, -8
 168              		.cfi_offset 14, -4
  41:.\Generated_Source\PSoC5/Camera.c **** 	//Camera_SIOD_SetDriveMode(Camera_SIOD_DM_RES_UP); //turn on pull-up resistors on I2C pins
  42:.\Generated_Source\PSoC5/Camera.c **** 	//Camera_SIOC_SetDriveMode(Camera_SIOC_DM_RES_UP);
  43:.\Generated_Source\PSoC5/Camera.c **** 	Camera_I2C_Start();
 169              		.loc 1 43 0
 170 0002 FFF7FEFF 		bl	Camera_I2C_Start
 171              	.LVL17:
  44:.\Generated_Source\PSoC5/Camera.c **** 	
  45:.\Generated_Source\PSoC5/Camera.c **** 	Camera_WriteReg(0x12,0x80); //reset
 172              		.loc 1 45 0
 173 0006 1220     		movs	r0, #18
 174 0008 8021     		movs	r1, #128
 175 000a FFF7FEFF 		bl	Camera_WriteReg
 176              	.LVL18:
  46:.\Generated_Source\PSoC5/Camera.c **** 	CyDelay(1);
 177              		.loc 1 46 0
 178 000e 0120     		movs	r0, #1
 179 0010 FFF7FEFF 		bl	CyDelay
 180              	.LVL19:
  47:.\Generated_Source\PSoC5/Camera.c **** 	uint16 i;
  48:.\Generated_Source\PSoC5/Camera.c **** 	for(i=0;Camera_settings[i][0]!=0xff;i++) Camera_WriteReg(Camera_settings[i][0],Camera_settings[i][
ARM GAS  C:\Users\Tim\AppData\Local\Temp\cc8JoH59.s 			page 5


 181              		.loc 1 48 0
 182 0014 0024     		movs	r4, #0
 183 0016 07E0     		b	.L13
 184              	.LVL20:
 185              	.L14:
 186              		.loc 1 48 0 is_stmt 0 discriminator 3
 187 0018 254B     		ldr	r3, .L18
 188 001a 03EB4403 		add	r3, r3, r4, lsl #1
 189 001e 5978     		ldrb	r1, [r3, #1]	@ zero_extendqisi2
 190 0020 FFF7FEFF 		bl	Camera_WriteReg
 191              	.LVL21:
 192 0024 0134     		adds	r4, r4, #1
 193              	.LVL22:
 194 0026 A4B2     		uxth	r4, r4
 195              	.LVL23:
 196              	.L13:
 197              		.loc 1 48 0 discriminator 1
 198 0028 214B     		ldr	r3, .L18
 199 002a 13F81400 		ldrb	r0, [r3, r4, lsl #1]	@ zero_extendqisi2
 200 002e FF28     		cmp	r0, #255
 201 0030 F2D1     		bne	.L14
 202 0032 0024     		movs	r4, #0
 203              	.LVL24:
 204 0034 05E0     		b	.L15
 205              	.LVL25:
 206              	.L16:
  49:.\Generated_Source\PSoC5/Camera.c **** 	for(i=0;Camera_format[i]!=0xff;i++) Camera_WriteReg(Camera_format[i],Camera_qvga[i]); //qvga forma
 207              		.loc 1 49 0 is_stmt 1 discriminator 3
 208 0036 1F4B     		ldr	r3, .L18+4
 209 0038 195D     		ldrb	r1, [r3, r4]	@ zero_extendqisi2
 210 003a FFF7FEFF 		bl	Camera_WriteReg
 211              	.LVL26:
 212 003e 0134     		adds	r4, r4, #1
 213              	.LVL27:
 214 0040 A4B2     		uxth	r4, r4
 215              	.LVL28:
 216              	.L15:
 217              		.loc 1 49 0 is_stmt 0 discriminator 1
 218 0042 1D4B     		ldr	r3, .L18+8
 219 0044 185D     		ldrb	r0, [r3, r4]	@ zero_extendqisi2
 220 0046 FF28     		cmp	r0, #255
 221 0048 F5D1     		bne	.L16
  50:.\Generated_Source\PSoC5/Camera.c **** 	
  51:.\Generated_Source\PSoC5/Camera.c **** 	DMA_channel=Camera_DMA_DmaInitialize(1,1,HI16(CYDEV_PERIPH_BASE),HI16(CYDEV_SRAM_BASE)); //periphe
 222              		.loc 1 51 0 is_stmt 1
 223 004a 0120     		movs	r0, #1
 224 004c 0146     		mov	r1, r0
 225 004e 4FF48042 		mov	r2, #16384
 226 0052 41F6FF73 		movw	r3, #8191
 227 0056 FFF7FEFF 		bl	Camera_DMA_DmaInitialize
 228              	.LVL29:
 229 005a 184C     		ldr	r4, .L18+12
 230              	.LVL30:
 231 005c 2070     		strb	r0, [r4]
  52:.\Generated_Source\PSoC5/Camera.c **** 	DMA_TD=CyDmaTdAllocate();
 232              		.loc 1 52 0
 233 005e FFF7FEFF 		bl	CyDmaTdAllocate
ARM GAS  C:\Users\Tim\AppData\Local\Temp\cc8JoH59.s 			page 6


 234              	.LVL31:
 235 0062 6070     		strb	r0, [r4, #1]
  53:.\Generated_Source\PSoC5/Camera.c ****     CyDmaTdSetAddress(DMA_TD,LO16(Camera_FIFO_dp__F0_REG),LO16((uint32)Camera_linebuffer));
 236              		.loc 1 53 0
 237 0064 46F24D41 		movw	r1, #25677
 238 0068 154A     		ldr	r2, .L18+16
 239 006a 92B2     		uxth	r2, r2
 240 006c FFF7FEFF 		bl	CyDmaTdSetAddress
 241              	.LVL32:
  54:.\Generated_Source\PSoC5/Camera.c ****     CyDmaTdSetConfiguration(DMA_TD,sizeof(Camera_linebuffer),DMA_TD,TD_INC_DST_ADR|Camera_DMA__TD_T
 242              		.loc 1 54 0
 243 0070 6278     		ldrb	r2, [r4, #1]	@ zero_extendqisi2
 244 0072 1046     		mov	r0, r2
 245 0074 4FF42071 		mov	r1, #640
 246 0078 0623     		movs	r3, #6
 247 007a FFF7FEFF 		bl	CyDmaTdSetConfiguration
 248              	.LVL33:
  55:.\Generated_Source\PSoC5/Camera.c **** 	CyDmaChPriority(DMA_channel,0); //ensure highest priority for DMA channel
 249              		.loc 1 55 0
 250 007e 2078     		ldrb	r0, [r4]	@ zero_extendqisi2
 251 0080 0021     		movs	r1, #0
 252 0082 FFF7FEFF 		bl	CyDmaChPriority
 253              	.LVL34:
  56:.\Generated_Source\PSoC5/Camera.c **** 
  57:.\Generated_Source\PSoC5/Camera.c ****     Camera_end_line_StartEx(Camera_end_line);
 254              		.loc 1 57 0
 255 0086 0F48     		ldr	r0, .L18+20
 256 0088 FFF7FEFF 		bl	Camera_end_line_StartEx
 257              	.LVL35:
  58:.\Generated_Source\PSoC5/Camera.c ****     
  59:.\Generated_Source\PSoC5/Camera.c **** 	*(reg8*)Camera_FIFO_dp__F0_REG;
 258              		.loc 1 59 0
 259 008c 0E4B     		ldr	r3, .L18+24
 260 008e 1A78     		ldrb	r2, [r3]	@ zero_extendqisi2
  60:.\Generated_Source\PSoC5/Camera.c **** 	*(reg8*)Camera_FIFO_dp__F0_REG;
 261              		.loc 1 60 0
 262 0090 1A78     		ldrb	r2, [r3]	@ zero_extendqisi2
  61:.\Generated_Source\PSoC5/Camera.c **** 	*(reg8*)Camera_FIFO_dp__F0_REG;
 263              		.loc 1 61 0
 264 0092 1A78     		ldrb	r2, [r3]	@ zero_extendqisi2
  62:.\Generated_Source\PSoC5/Camera.c **** 	*(reg8*)Camera_FIFO_dp__F0_REG; //clear fifo
 265              		.loc 1 62 0
 266 0094 1B78     		ldrb	r3, [r3]	@ zero_extendqisi2
  63:.\Generated_Source\PSoC5/Camera.c **** 	CyDmaClearPendingDrq(DMA_channel); //invalidate pending requests
 267              		.loc 1 63 0
 268 0096 2078     		ldrb	r0, [r4]	@ zero_extendqisi2
 269 0098 FFF7FEFF 		bl	CyDmaClearPendingDrq
 270              	.LVL36:
  64:.\Generated_Source\PSoC5/Camera.c **** 	CyDmaChSetInitialTd(DMA_channel,DMA_TD); //set initial TD
 271              		.loc 1 64 0
 272 009c 2078     		ldrb	r0, [r4]	@ zero_extendqisi2
 273 009e 6178     		ldrb	r1, [r4, #1]	@ zero_extendqisi2
 274 00a0 FFF7FEFF 		bl	CyDmaChSetInitialTd
 275              	.LVL37:
  65:.\Generated_Source\PSoC5/Camera.c **** 	CyDmaChEnable(DMA_channel,1); //enable channel (start streaming)
 276              		.loc 1 65 0
 277 00a4 2078     		ldrb	r0, [r4]	@ zero_extendqisi2
ARM GAS  C:\Users\Tim\AppData\Local\Temp\cc8JoH59.s 			page 7


 278 00a6 0121     		movs	r1, #1
 279 00a8 FFF7FEFF 		bl	CyDmaChEnable
 280              	.LVL38:
 281 00ac 10BD     		pop	{r4, pc}
 282              	.L19:
 283 00ae 00BF     		.align	2
 284              	.L18:
 285 00b0 00000000 		.word	Camera_settings
 286 00b4 00000000 		.word	Camera_qvga
 287 00b8 00000000 		.word	Camera_format
 288 00bc 00000000 		.word	.LANCHOR0
 289 00c0 00000000 		.word	Camera_linebuffer
 290 00c4 00000000 		.word	Camera_end_line
 291 00c8 4D640040 		.word	1073767501
 292              		.cfi_endproc
 293              	.LFE66:
 294              		.size	Camera_Start, .-Camera_Start
 295              		.comm	Camera_linebuffer,640,4
 296              		.bss
 297              		.set	.LANCHOR0,. + 0
 298              		.type	DMA_channel, %object
 299              		.size	DMA_channel, 1
 300              	DMA_channel:
 301 0000 00       		.space	1
 302              		.type	DMA_TD, %object
 303              		.size	DMA_TD, 1
 304              	DMA_TD:
 305 0001 00       		.space	1
 306              		.text
 307              	.Letext0:
 308              		.file 2 "c:\\program files (x86)\\cypress\\psoc creator\\3.3\\psoc creator\\import\\gnu\\arm\\4.9.
 309              		.file 3 "c:\\program files (x86)\\cypress\\psoc creator\\3.3\\psoc creator\\import\\gnu\\arm\\4.9.
 310              		.file 4 "Generated_Source\\PSoC5/cytypes.h"
 311              		.file 5 "Generated_Source\\PSoC5/core_cm3.h"
 312              		.file 6 ".\\Generated_Source\\PSoC5\\Camera.h"
 313              		.file 7 "Generated_Source\\PSoC5/Camera_I2C.h"
 314              		.file 8 "Generated_Source\\PSoC5/Camera_VSYNC.h"
 315              		.file 9 "Generated_Source\\PSoC5/Camera_DMA_dma.h"
 316              		.file 10 "Generated_Source\\PSoC5/CYDMAC.H"
 317              		.file 11 "Generated_Source\\PSoC5/CyLib.h"
 318              		.file 12 "Generated_Source\\PSoC5/Camera_end_line.h"