ARM GAS  C:\Users\Tim\AppData\Local\Temp\ccdBUfPa.s 			page 1


   1              		.syntax unified
   2              		.cpu cortex-m3
   3              		.fpu softvfp
   4              		.eabi_attribute 20, 1
   5              		.eabi_attribute 21, 1
   6              		.eabi_attribute 23, 3
   7              		.eabi_attribute 24, 1
   8              		.eabi_attribute 25, 1
   9              		.eabi_attribute 26, 1
  10              		.eabi_attribute 30, 1
  11              		.eabi_attribute 34, 1
  12              		.eabi_attribute 18, 4
  13              		.thumb
  14              		.file	"main.c"
  15              		.text
  16              	.Ltext0:
  17              		.cfi_sections	.debug_frame
  18              		.section	.text.ISR1Handler,"ax",%progbits
  19              		.align	2
  20              		.global	ISR1Handler
  21              		.thumb
  22              		.thumb_func
  23              		.type	ISR1Handler, %function
  24              	ISR1Handler:
  25              	.LFB72:
  26              		.file 1 ".\\main.c"
   1:.\main.c      **** #include <project.h>
   2:.\main.c      **** #include "movement_functions.h"
   3:.\main.c      **** #include "camera_display.h"
   4:.\main.c      **** //*************************************************
   5:.\main.c      **** //
   6:.\main.c      **** //Function prototypes
   7:.\main.c      **** //
   8:.\main.c      **** //*************************************************   
   9:.\main.c      ****     void PSOCReset();
  10:.\main.c      ****     void ISRSetUp(); 
  11:.\main.c      ****     void VariablesInitialise();
  12:.\main.c      ****     void InitialisationSequnce();
  13:.\main.c      ****     void LEDFlash();
  14:.\main.c      ****     void PWMOperate();
  15:.\main.c      ****     void Beep(int a);
  16:.\main.c      ****     void BiDirPortInPut();
  17:.\main.c      ****     void BiDirPortOutPut();
  18:.\main.c      ****     void ISR1Handler(); 
  19:.\main.c      **** //*************************************************
  20:.\main.c      **** //
  21:.\main.c      **** //RAM variables
  22:.\main.c      **** //
  23:.\main.c      **** //*************************************************    
  24:.\main.c      ****     int a;
  25:.\main.c      ****     int b;
  26:.\main.c      ****     int c;
  27:.\main.c      ****     int AD0Data;
  28:.\main.c      ****     int OnOff;
  29:.\main.c      **** //*************************************************
  30:.\main.c      **** //
  31:.\main.c      **** //Main program starts here
ARM GAS  C:\Users\Tim\AppData\Local\Temp\ccdBUfPa.s 			page 2


  32:.\main.c      **** //Added Line :)
  33:.\main.c      **** //
  34:.\main.c      **** //************************************************* 
  35:.\main.c      **** int main()
  36:.\main.c      **** {
  37:.\main.c      ****     PSOCReset();                                    //Put PSOC in ready state
  38:.\main.c      ****     VariablesInitialise();                          //Initialise all variables
  39:.\main.c      ****     PWM_1_Start();                                  //Start PWM channel    
  40:.\main.c      ****     ISRSetUp();                                     //Setup all interupts
  41:.\main.c      ****     LCD_Start();
  42:.\main.c      ****     LCD_DMA_Start();
  43:.\main.c      ****     Camera_Start();
  44:.\main.c      ****     Camera_WriteReg(0x41,0x02);                     //double colour matrix (more saturation)
  45:.\main.c      ****     Camera_SetBlankTime(600);                       //increase blanking time if image is corrupted;
  46:.\main.c      ****     
  47:.\main.c      ****     LCD_CLK_SetDividerValue(5);
  48:.\main.c      ****     CyGlobalIntEnable;                              //interrupts must be enabled for camera to work
  49:.\main.c      ****     
  50:.\main.c      ****     Beep(1);
  51:.\main.c      ****     CyDelay(200);
  52:.\main.c      ****     Beep(1); 
  53:.\main.c      ****     while(OnOff==0)
  54:.\main.c      ****     {
  55:.\main.c      ****     }
  56:.\main.c      ****     InitialisationSequnce();
  57:.\main.c      ****        
  58:.\main.c      ****     uint8 n=0;
  59:.\main.c      ****     for(;;n++)
  60:.\main.c      ****     {
  61:.\main.c      ****         movement_test();
  62:.\main.c      ****     }
  63:.\main.c      **** }
  64:.\main.c      **** //*************************************************
  65:.\main.c      **** //
  66:.\main.c      **** //Put 8 bit port in output mode
  67:.\main.c      **** //
  68:.\main.c      **** //*************************************************
  69:.\main.c      **** void BiDirPortOutPut()
  70:.\main.c      **** {
  71:.\main.c      ****     OE_Control=3;                           //enable output driver and switch to user output
  72:.\main.c      **** }
  73:.\main.c      **** //************************************************
  74:.\main.c      **** //
  75:.\main.c      **** //Put 8 bit port in input mode
  76:.\main.c      **** //
  77:.\main.c      **** //*************************************************
  78:.\main.c      **** void BiDirPortInPut()
  79:.\main.c      **** {
  80:.\main.c      ****    OE_Control=0;                            //disable output driver                    
  81:.\main.c      **** }
  82:.\main.c      **** //*************************************************
  83:.\main.c      **** //
  84:.\main.c      **** // Beep for 100mS minimum
  85:.\main.c      **** // On entry X contains quantity of 100mS beeps
  86:.\main.c      **** //
  87:.\main.c      **** //*************************************************
  88:.\main.c      **** void Beep(int x) 
ARM GAS  C:\Users\Tim\AppData\Local\Temp\ccdBUfPa.s 			page 3


  89:.\main.c      **** {
  90:.\main.c      ****     BiDirPortOutPut();
  91:.\main.c      ****     for(;x>0;x--)
  92:.\main.c      ****     {
  93:.\main.c      ****         Data_Out_Write(0x03);      //Turn beeper on
  94:.\main.c      ****         CS_Write(0x02);  
  95:.\main.c      ****         CS_Write(0x08);
  96:.\main.c      ****         CyDelay(100);
  97:.\main.c      ****     }
  98:.\main.c      ****      Data_Out_Write(0x01);      //Turn beeper off
  99:.\main.c      ****      CS_Write(0x02);  
 100:.\main.c      ****      CS_Write(0x08);   
 101:.\main.c      **** }
 102:.\main.c      **** //************************************************
 103:.\main.c      **** //
 104:.\main.c      **** // Do a few things to wake up robot
 105:.\main.c      **** //
 106:.\main.c      **** //*************************************************
 107:.\main.c      **** void InitialisationSequnce()
 108:.\main.c      **** {
 109:.\main.c      ****     Beep(2);                         //Beep 4 times
 110:.\main.c      ****     CyDelay(400);
 111:.\main.c      ****     for(a=0;a<3;a++)                //Flash LED 5 times
 112:.\main.c      ****     {
 113:.\main.c      ****         LEDFlash();
 114:.\main.c      ****     }
 115:.\main.c      ****     for(a=0;a<3;a++)                //Flash headlights 3 times
 116:.\main.c      ****     {
 117:.\main.c      ****         BiDirPortOutPut();
 118:.\main.c      ****         Data_Out_Write(0x09);       //HeadLights on
 119:.\main.c      ****         CS_Write(0x02);  
 120:.\main.c      ****         CS_Write(0x08);
 121:.\main.c      ****         CyDelay(100);
 122:.\main.c      ****         Data_Out_Write(0x01);      //Headlights off
 123:.\main.c      ****         CS_Write(0x02);  
 124:.\main.c      ****         CS_Write(0x08);
 125:.\main.c      ****         CyDelay(100);
 126:.\main.c      ****     }
 127:.\main.c      **** }
 128:.\main.c      **** //************************************************************
 129:.\main.c      **** //
 130:.\main.c      **** // Turn LED on for 100mS 
 131:.\main.c      **** // 
 132:.\main.c      **** //************************************************************
 133:.\main.c      **** void LEDFlash() 
 134:.\main.c      **** {
 135:.\main.c      **** 	BiDirPortOutPut();
 136:.\main.c      ****     Data_Out_Write(0x09);      //Set bit 2 high
 137:.\main.c      ****     CS_Write(0x02);  
 138:.\main.c      ****     CS_Write(0x08);
 139:.\main.c      ****     CyDelay(100);
 140:.\main.c      ****     Data_Out_Write(0x01);      //Set bit 2 low
 141:.\main.c      ****     CS_Write(0x02);  
 142:.\main.c      ****     CS_Write(0x08); 
 143:.\main.c      **** }
 144:.\main.c      **** //************************************************
 145:.\main.c      **** //
ARM GAS  C:\Users\Tim\AppData\Local\Temp\ccdBUfPa.s 			page 4


 146:.\main.c      **** //Set up PSOC in the correct state
 147:.\main.c      **** //
 148:.\main.c      **** //*************************************************
 149:.\main.c      **** void PSOCReset()
 150:.\main.c      **** {
 151:.\main.c      ****     CS_Write(0x08); 
 152:.\main.c      ****     RST_Write(0);
 153:.\main.c      ****     CyDelay(700);
 154:.\main.c      ****     RST_Write(1);
 155:.\main.c      ****     CyDelay(700);
 156:.\main.c      ****     RST_Write(0);
 157:.\main.c      ****     CyDelay(700);
 158:.\main.c      ****     RST_Write(1);
 159:.\main.c      **** } 
 160:.\main.c      **** //*************************************************
 161:.\main.c      **** //
 162:.\main.c      **** // ISR Set Up all interupts as required
 163:.\main.c      **** //
 164:.\main.c      **** //*************************************************
 165:.\main.c      **** void ISRSetUp()  
 166:.\main.c      **** {
 167:.\main.c      ****     isr_1_ClearPending();                          
 168:.\main.c      ****     isr_1_StartEx(ISR1Handler);                     //for switch 2
 169:.\main.c      **** } 
 170:.\main.c      **** //*************************************************
 171:.\main.c      **** //
 172:.\main.c      **** //ISR1 Handler for switch. Interupt comes here when switch is pushed
 173:.\main.c      **** //
 174:.\main.c      **** //*************************************************
 175:.\main.c      **** void ISR1Handler()  
 176:.\main.c      **** {
  27              		.loc 1 176 0
  28              		.cfi_startproc
  29              		@ args = 0, pretend = 0, frame = 0
  30              		@ frame_needed = 0, uses_anonymous_args = 0
  31              		@ link register save eliminated.
 177:.\main.c      ****     if(OnOff==0)
  32              		.loc 1 177 0
  33 0000 054B     		ldr	r3, .L4
  34 0002 1B68     		ldr	r3, [r3]
  35 0004 1BB9     		cbnz	r3, .L2
 178:.\main.c      ****     {
 179:.\main.c      ****         OnOff=1;
  36              		.loc 1 179 0
  37 0006 0122     		movs	r2, #1
  38 0008 034B     		ldr	r3, .L4
  39 000a 1A60     		str	r2, [r3]
  40 000c 7047     		bx	lr
  41              	.L2:
 180:.\main.c      ****     }
 181:.\main.c      ****     else
 182:.\main.c      ****     {
 183:.\main.c      ****         OnOff=0;
  42              		.loc 1 183 0
  43 000e 0022     		movs	r2, #0
  44 0010 014B     		ldr	r3, .L4
  45 0012 1A60     		str	r2, [r3]
ARM GAS  C:\Users\Tim\AppData\Local\Temp\ccdBUfPa.s 			page 5


  46 0014 7047     		bx	lr
  47              	.L5:
  48 0016 00BF     		.align	2
  49              	.L4:
  50 0018 00000000 		.word	OnOff
  51              		.cfi_endproc
  52              	.LFE72:
  53              		.size	ISR1Handler, .-ISR1Handler
  54              		.section	.text.movement_test,"ax",%progbits
  55              		.align	2
  56              		.global	movement_test
  57              		.thumb
  58              		.thumb_func
  59              		.type	movement_test, %function
  60              	movement_test:
  61              	.LFB63:
  62              		.file 2 ".\\movement_functions.h"
   1:.\movement_functions.h **** /* ========================================
   2:.\movement_functions.h ****  *
   3:.\movement_functions.h ****  * Copyright @Pucktacular, 2016
   4:.\movement_functions.h ****  * @Matt Gebert, Daniel Hranilovic & Kevin Duxbury
   5:.\movement_functions.h ****  * All Rights Reserved
   6:.\movement_functions.h ****  * UNPUBLISHED, LICENSED SOFTWARE.
   7:.\movement_functions.h ****  *
   8:.\movement_functions.h ****  * CONFIDENTIAL AND PROPRIETARY INFORMATION
   9:.\movement_functions.h ****  * WHICH IS THE PROPERTY OF your company.
  10:.\movement_functions.h ****  *
  11:.\movement_functions.h ****  * ========================================
  12:.\movement_functions.h **** */
  13:.\movement_functions.h **** 
  14:.\movement_functions.h **** #include <project.h>
  15:.\movement_functions.h **** 
  16:.\movement_functions.h **** /*  Exteral Variables Declarations
  17:.\movement_functions.h ****         Write like: "extern int x;"
  18:.\movement_functions.h **** */
  19:.\movement_functions.h **** 
  20:.\movement_functions.h **** /*  General Information
  21:.\movement_functions.h ****         Movement is controlled through 2nd Bus Address.
  22:.\movement_functions.h ****         Last 4 bits of 8 bit bus control motor inputs.
  23:.\movement_functions.h ****         0xA0 -> Both forward.
  24:.\movement_functions.h ****         0x50 -> Both backward.
  25:.\movement_functions.h ****         0x10 -> Right wheel forward.
  26:.\movement_functions.h ****         0x20 -> Right wheel backward.
  27:.\movement_functions.h ****         0x40 -> Left wheel forward.
  28:.\movement_functions.h ****         0x80 -> Left wheel backward.      
  29:.\movement_functions.h **** */
  30:.\movement_functions.h **** 
  31:.\movement_functions.h **** void movement_test() {
  63              		.loc 2 31 0
  64              		.cfi_startproc
  65              		@ args = 0, pretend = 0, frame = 0
  66              		@ frame_needed = 0, uses_anonymous_args = 0
  67 0000 10B5     		push	{r4, lr}
  68              		.cfi_def_cfa_offset 8
  69              		.cfi_offset 4, -8
  70              		.cfi_offset 14, -4
  32:.\movement_functions.h ****     /*Purposes of testing movement functions*/
ARM GAS  C:\Users\Tim\AppData\Local\Temp\ccdBUfPa.s 			page 6


  33:.\movement_functions.h ****     
  34:.\movement_functions.h ****     CS_Write(2);                    //Bus address set to LatchDevices {Hbridge, LEDG, Buzzer etc.}
  71              		.loc 2 34 0
  72 0002 0220     		movs	r0, #2
  73 0004 FFF7FEFF 		bl	CS_Write
  74              	.LVL0:
  35:.\movement_functions.h ****     Data_Out_Control=0x40;          //Writes 1010 to the four HBridge Pins, so both motors spin.
  75              		.loc 2 35 0
  76 0008 0B4C     		ldr	r4, .L8
  77 000a 4023     		movs	r3, #64
  78 000c 2370     		strb	r3, [r4]
  36:.\movement_functions.h ****     CS_Write(8);                    //Bus address deactivated.
  79              		.loc 2 36 0
  80 000e 0820     		movs	r0, #8
  81 0010 FFF7FEFF 		bl	CS_Write
  82              	.LVL1:
  37:.\movement_functions.h ****     CyDelay(2000);                  //Tick Toc... for a second.
  83              		.loc 2 37 0
  84 0014 4FF4FA60 		mov	r0, #2000
  85 0018 FFF7FEFF 		bl	CyDelay
  86              	.LVL2:
  38:.\movement_functions.h ****     CS_Write(2);                    //Repeat.
  87              		.loc 2 38 0
  88 001c 0220     		movs	r0, #2
  89 001e FFF7FEFF 		bl	CS_Write
  90              	.LVL3:
  39:.\movement_functions.h ****     Data_Out_Control=0x80;          //Reverse motors.
  91              		.loc 2 39 0
  92 0022 8023     		movs	r3, #128
  93 0024 2370     		strb	r3, [r4]
  40:.\movement_functions.h ****     CS_Write(8);
  94              		.loc 2 40 0
  95 0026 0820     		movs	r0, #8
  96 0028 FFF7FEFF 		bl	CS_Write
  97              	.LVL4:
  41:.\movement_functions.h ****     CyDelay(2000);
  98              		.loc 2 41 0
  99 002c 4FF4FA60 		mov	r0, #2000
 100 0030 FFF7FEFF 		bl	CyDelay
 101              	.LVL5:
 102 0034 10BD     		pop	{r4, pc}
 103              	.L9:
 104 0036 00BF     		.align	2
 105              	.L8:
 106 0038 79640040 		.word	1073767545
 107              		.cfi_endproc
 108              	.LFE63:
 109              		.size	movement_test, .-movement_test
 110              		.section	.text.BiDirPortOutPut,"ax",%progbits
 111              		.align	2
 112              		.global	BiDirPortOutPut
 113              		.thumb
 114              		.thumb_func
 115              		.type	BiDirPortOutPut, %function
 116              	BiDirPortOutPut:
 117              	.LFB65:
  70:.\main.c      ****     OE_Control=3;                           //enable output driver and switch to user output
ARM GAS  C:\Users\Tim\AppData\Local\Temp\ccdBUfPa.s 			page 7


 118              		.loc 1 70 0
 119              		.cfi_startproc
 120              		@ args = 0, pretend = 0, frame = 0
 121              		@ frame_needed = 0, uses_anonymous_args = 0
 122              		@ link register save eliminated.
  71:.\main.c      **** }
 123              		.loc 1 71 0
 124 0000 0322     		movs	r2, #3
 125 0002 014B     		ldr	r3, .L11
 126 0004 1A70     		strb	r2, [r3]
 127 0006 7047     		bx	lr
 128              	.L12:
 129              		.align	2
 130              	.L11:
 131 0008 7D640040 		.word	1073767549
 132              		.cfi_endproc
 133              	.LFE65:
 134              		.size	BiDirPortOutPut, .-BiDirPortOutPut
 135              		.section	.text.BiDirPortInPut,"ax",%progbits
 136              		.align	2
 137              		.global	BiDirPortInPut
 138              		.thumb
 139              		.thumb_func
 140              		.type	BiDirPortInPut, %function
 141              	BiDirPortInPut:
 142              	.LFB66:
  79:.\main.c      ****    OE_Control=0;                            //disable output driver                    
 143              		.loc 1 79 0
 144              		.cfi_startproc
 145              		@ args = 0, pretend = 0, frame = 0
 146              		@ frame_needed = 0, uses_anonymous_args = 0
 147              		@ link register save eliminated.
  80:.\main.c      **** }
 148              		.loc 1 80 0
 149 0000 0022     		movs	r2, #0
 150 0002 014B     		ldr	r3, .L14
 151 0004 1A70     		strb	r2, [r3]
 152 0006 7047     		bx	lr
 153              	.L15:
 154              		.align	2
 155              	.L14:
 156 0008 7D640040 		.word	1073767549
 157              		.cfi_endproc
 158              	.LFE66:
 159              		.size	BiDirPortInPut, .-BiDirPortInPut
 160              		.section	.text.Beep,"ax",%progbits
 161              		.align	2
 162              		.global	Beep
 163              		.thumb
 164              		.thumb_func
 165              		.type	Beep, %function
 166              	Beep:
 167              	.LFB67:
  89:.\main.c      ****     BiDirPortOutPut();
 168              		.loc 1 89 0
 169              		.cfi_startproc
 170              		@ args = 0, pretend = 0, frame = 0
ARM GAS  C:\Users\Tim\AppData\Local\Temp\ccdBUfPa.s 			page 8


 171              		@ frame_needed = 0, uses_anonymous_args = 0
 172              	.LVL6:
 173 0000 10B5     		push	{r4, lr}
 174              		.cfi_def_cfa_offset 8
 175              		.cfi_offset 4, -8
 176              		.cfi_offset 14, -4
 177 0002 0446     		mov	r4, r0
  90:.\main.c      ****     for(;x>0;x--)
 178              		.loc 1 90 0
 179 0004 FFF7FEFF 		bl	BiDirPortOutPut
 180              	.LVL7:
  91:.\main.c      ****     {
 181              		.loc 1 91 0
 182 0008 0CE0     		b	.L17
 183              	.L18:
  93:.\main.c      ****         CS_Write(0x02);  
 184              		.loc 1 93 0 discriminator 2
 185 000a 0320     		movs	r0, #3
 186 000c FFF7FEFF 		bl	Data_Out_Write
 187              	.LVL8:
  94:.\main.c      ****         CS_Write(0x08);
 188              		.loc 1 94 0 discriminator 2
 189 0010 0220     		movs	r0, #2
 190 0012 FFF7FEFF 		bl	CS_Write
 191              	.LVL9:
  95:.\main.c      ****         CyDelay(100);
 192              		.loc 1 95 0 discriminator 2
 193 0016 0820     		movs	r0, #8
 194 0018 FFF7FEFF 		bl	CS_Write
 195              	.LVL10:
  96:.\main.c      ****     }
 196              		.loc 1 96 0 discriminator 2
 197 001c 6420     		movs	r0, #100
 198 001e FFF7FEFF 		bl	CyDelay
 199              	.LVL11:
  91:.\main.c      ****     {
 200              		.loc 1 91 0 discriminator 2
 201 0022 013C     		subs	r4, r4, #1
 202              	.LVL12:
 203              	.L17:
  91:.\main.c      ****     {
 204              		.loc 1 91 0 is_stmt 0 discriminator 1
 205 0024 002C     		cmp	r4, #0
 206 0026 F0DC     		bgt	.L18
  98:.\main.c      ****      CS_Write(0x02);  
 207              		.loc 1 98 0 is_stmt 1
 208 0028 0120     		movs	r0, #1
 209 002a FFF7FEFF 		bl	Data_Out_Write
 210              	.LVL13:
  99:.\main.c      ****      CS_Write(0x08);   
 211              		.loc 1 99 0
 212 002e 0220     		movs	r0, #2
 213 0030 FFF7FEFF 		bl	CS_Write
 214              	.LVL14:
 100:.\main.c      **** }
 215              		.loc 1 100 0
 216 0034 0820     		movs	r0, #8
ARM GAS  C:\Users\Tim\AppData\Local\Temp\ccdBUfPa.s 			page 9


 217 0036 FFF7FEFF 		bl	CS_Write
 218              	.LVL15:
 219 003a 10BD     		pop	{r4, pc}
 220              		.cfi_endproc
 221              	.LFE67:
 222              		.size	Beep, .-Beep
 223              		.section	.text.LEDFlash,"ax",%progbits
 224              		.align	2
 225              		.global	LEDFlash
 226              		.thumb
 227              		.thumb_func
 228              		.type	LEDFlash, %function
 229              	LEDFlash:
 230              	.LFB69:
 134:.\main.c      **** 	BiDirPortOutPut();
 231              		.loc 1 134 0
 232              		.cfi_startproc
 233              		@ args = 0, pretend = 0, frame = 0
 234              		@ frame_needed = 0, uses_anonymous_args = 0
 235 0000 08B5     		push	{r3, lr}
 236              		.cfi_def_cfa_offset 8
 237              		.cfi_offset 3, -8
 238              		.cfi_offset 14, -4
 135:.\main.c      ****     Data_Out_Write(0x09);      //Set bit 2 high
 239              		.loc 1 135 0
 240 0002 FFF7FEFF 		bl	BiDirPortOutPut
 241              	.LVL16:
 136:.\main.c      ****     CS_Write(0x02);  
 242              		.loc 1 136 0
 243 0006 0920     		movs	r0, #9
 244 0008 FFF7FEFF 		bl	Data_Out_Write
 245              	.LVL17:
 137:.\main.c      ****     CS_Write(0x08);
 246              		.loc 1 137 0
 247 000c 0220     		movs	r0, #2
 248 000e FFF7FEFF 		bl	CS_Write
 249              	.LVL18:
 138:.\main.c      ****     CyDelay(100);
 250              		.loc 1 138 0
 251 0012 0820     		movs	r0, #8
 252 0014 FFF7FEFF 		bl	CS_Write
 253              	.LVL19:
 139:.\main.c      ****     Data_Out_Write(0x01);      //Set bit 2 low
 254              		.loc 1 139 0
 255 0018 6420     		movs	r0, #100
 256 001a FFF7FEFF 		bl	CyDelay
 257              	.LVL20:
 140:.\main.c      ****     CS_Write(0x02);  
 258              		.loc 1 140 0
 259 001e 0120     		movs	r0, #1
 260 0020 FFF7FEFF 		bl	Data_Out_Write
 261              	.LVL21:
 141:.\main.c      ****     CS_Write(0x08); 
 262              		.loc 1 141 0
 263 0024 0220     		movs	r0, #2
 264 0026 FFF7FEFF 		bl	CS_Write
 265              	.LVL22:
ARM GAS  C:\Users\Tim\AppData\Local\Temp\ccdBUfPa.s 			page 10


 142:.\main.c      **** }
 266              		.loc 1 142 0
 267 002a 0820     		movs	r0, #8
 268 002c FFF7FEFF 		bl	CS_Write
 269              	.LVL23:
 270 0030 08BD     		pop	{r3, pc}
 271              		.cfi_endproc
 272              	.LFE69:
 273              		.size	LEDFlash, .-LEDFlash
 274 0032 00BF     		.section	.text.InitialisationSequnce,"ax",%progbits
 275              		.align	2
 276              		.global	InitialisationSequnce
 277              		.thumb
 278              		.thumb_func
 279              		.type	InitialisationSequnce, %function
 280              	InitialisationSequnce:
 281              	.LFB68:
 108:.\main.c      ****     Beep(2);                         //Beep 4 times
 282              		.loc 1 108 0
 283              		.cfi_startproc
 284              		@ args = 0, pretend = 0, frame = 0
 285              		@ frame_needed = 0, uses_anonymous_args = 0
 286 0000 08B5     		push	{r3, lr}
 287              		.cfi_def_cfa_offset 8
 288              		.cfi_offset 3, -8
 289              		.cfi_offset 14, -4
 109:.\main.c      ****     CyDelay(400);
 290              		.loc 1 109 0
 291 0002 0220     		movs	r0, #2
 292 0004 FFF7FEFF 		bl	Beep
 293              	.LVL24:
 110:.\main.c      ****     for(a=0;a<3;a++)                //Flash LED 5 times
 294              		.loc 1 110 0
 295 0008 4FF4C870 		mov	r0, #400
 296 000c FFF7FEFF 		bl	CyDelay
 297              	.LVL25:
 111:.\main.c      ****     {
 298              		.loc 1 111 0
 299 0010 0022     		movs	r2, #0
 300 0012 1A4B     		ldr	r3, .L28
 301 0014 1A60     		str	r2, [r3]
 302 0016 05E0     		b	.L23
 303              	.L24:
 113:.\main.c      ****     }
 304              		.loc 1 113 0 discriminator 3
 305 0018 FFF7FEFF 		bl	LEDFlash
 306              	.LVL26:
 111:.\main.c      ****     {
 307              		.loc 1 111 0 discriminator 3
 308 001c 174A     		ldr	r2, .L28
 309 001e 1368     		ldr	r3, [r2]
 310 0020 0133     		adds	r3, r3, #1
 311 0022 1360     		str	r3, [r2]
 312              	.L23:
 111:.\main.c      ****     {
 313              		.loc 1 111 0 is_stmt 0 discriminator 1
 314 0024 154B     		ldr	r3, .L28
ARM GAS  C:\Users\Tim\AppData\Local\Temp\ccdBUfPa.s 			page 11


 315 0026 1B68     		ldr	r3, [r3]
 316 0028 022B     		cmp	r3, #2
 317 002a F5DD     		ble	.L24
 115:.\main.c      ****     {
 318              		.loc 1 115 0 is_stmt 1
 319 002c 0022     		movs	r2, #0
 320 002e 134B     		ldr	r3, .L28
 321 0030 1A60     		str	r2, [r3]
 322 0032 1DE0     		b	.L25
 323              	.L26:
 117:.\main.c      ****         Data_Out_Write(0x09);       //HeadLights on
 324              		.loc 1 117 0 discriminator 3
 325 0034 FFF7FEFF 		bl	BiDirPortOutPut
 326              	.LVL27:
 118:.\main.c      ****         CS_Write(0x02);  
 327              		.loc 1 118 0 discriminator 3
 328 0038 0920     		movs	r0, #9
 329 003a FFF7FEFF 		bl	Data_Out_Write
 330              	.LVL28:
 119:.\main.c      ****         CS_Write(0x08);
 331              		.loc 1 119 0 discriminator 3
 332 003e 0220     		movs	r0, #2
 333 0040 FFF7FEFF 		bl	CS_Write
 334              	.LVL29:
 120:.\main.c      ****         CyDelay(100);
 335              		.loc 1 120 0 discriminator 3
 336 0044 0820     		movs	r0, #8
 337 0046 FFF7FEFF 		bl	CS_Write
 338              	.LVL30:
 121:.\main.c      ****         Data_Out_Write(0x01);      //Headlights off
 339              		.loc 1 121 0 discriminator 3
 340 004a 6420     		movs	r0, #100
 341 004c FFF7FEFF 		bl	CyDelay
 342              	.LVL31:
 122:.\main.c      ****         CS_Write(0x02);  
 343              		.loc 1 122 0 discriminator 3
 344 0050 0120     		movs	r0, #1
 345 0052 FFF7FEFF 		bl	Data_Out_Write
 346              	.LVL32:
 123:.\main.c      ****         CS_Write(0x08);
 347              		.loc 1 123 0 discriminator 3
 348 0056 0220     		movs	r0, #2
 349 0058 FFF7FEFF 		bl	CS_Write
 350              	.LVL33:
 124:.\main.c      ****         CyDelay(100);
 351              		.loc 1 124 0 discriminator 3
 352 005c 0820     		movs	r0, #8
 353 005e FFF7FEFF 		bl	CS_Write
 354              	.LVL34:
 125:.\main.c      ****     }
 355              		.loc 1 125 0 discriminator 3
 356 0062 6420     		movs	r0, #100
 357 0064 FFF7FEFF 		bl	CyDelay
 358              	.LVL35:
 115:.\main.c      ****     {
 359              		.loc 1 115 0 discriminator 3
 360 0068 044A     		ldr	r2, .L28
ARM GAS  C:\Users\Tim\AppData\Local\Temp\ccdBUfPa.s 			page 12


 361 006a 1368     		ldr	r3, [r2]
 362 006c 0133     		adds	r3, r3, #1
 363 006e 1360     		str	r3, [r2]
 364              	.L25:
 115:.\main.c      ****     {
 365              		.loc 1 115 0 is_stmt 0 discriminator 1
 366 0070 024B     		ldr	r3, .L28
 367 0072 1B68     		ldr	r3, [r3]
 368 0074 022B     		cmp	r3, #2
 369 0076 DDDD     		ble	.L26
 127:.\main.c      **** //************************************************************
 370              		.loc 1 127 0 is_stmt 1
 371 0078 08BD     		pop	{r3, pc}
 372              	.L29:
 373 007a 00BF     		.align	2
 374              	.L28:
 375 007c 00000000 		.word	a
 376              		.cfi_endproc
 377              	.LFE68:
 378              		.size	InitialisationSequnce, .-InitialisationSequnce
 379              		.section	.text.PSOCReset,"ax",%progbits
 380              		.align	2
 381              		.global	PSOCReset
 382              		.thumb
 383              		.thumb_func
 384              		.type	PSOCReset, %function
 385              	PSOCReset:
 386              	.LFB70:
 150:.\main.c      ****     CS_Write(0x08); 
 387              		.loc 1 150 0
 388              		.cfi_startproc
 389              		@ args = 0, pretend = 0, frame = 0
 390              		@ frame_needed = 0, uses_anonymous_args = 0
 391 0000 08B5     		push	{r3, lr}
 392              		.cfi_def_cfa_offset 8
 393              		.cfi_offset 3, -8
 394              		.cfi_offset 14, -4
 151:.\main.c      ****     RST_Write(0);
 395              		.loc 1 151 0
 396 0002 0820     		movs	r0, #8
 397 0004 FFF7FEFF 		bl	CS_Write
 398              	.LVL36:
 152:.\main.c      ****     CyDelay(700);
 399              		.loc 1 152 0
 400 0008 0020     		movs	r0, #0
 401 000a FFF7FEFF 		bl	RST_Write
 402              	.LVL37:
 153:.\main.c      ****     RST_Write(1);
 403              		.loc 1 153 0
 404 000e 4FF42F70 		mov	r0, #700
 405 0012 FFF7FEFF 		bl	CyDelay
 406              	.LVL38:
 154:.\main.c      ****     CyDelay(700);
 407              		.loc 1 154 0
 408 0016 0120     		movs	r0, #1
 409 0018 FFF7FEFF 		bl	RST_Write
 410              	.LVL39:
ARM GAS  C:\Users\Tim\AppData\Local\Temp\ccdBUfPa.s 			page 13


 155:.\main.c      ****     RST_Write(0);
 411              		.loc 1 155 0
 412 001c 4FF42F70 		mov	r0, #700
 413 0020 FFF7FEFF 		bl	CyDelay
 414              	.LVL40:
 156:.\main.c      ****     CyDelay(700);
 415              		.loc 1 156 0
 416 0024 0020     		movs	r0, #0
 417 0026 FFF7FEFF 		bl	RST_Write
 418              	.LVL41:
 157:.\main.c      ****     RST_Write(1);
 419              		.loc 1 157 0
 420 002a 4FF42F70 		mov	r0, #700
 421 002e FFF7FEFF 		bl	CyDelay
 422              	.LVL42:
 158:.\main.c      **** } 
 423              		.loc 1 158 0
 424 0032 0120     		movs	r0, #1
 425 0034 FFF7FEFF 		bl	RST_Write
 426              	.LVL43:
 427 0038 08BD     		pop	{r3, pc}
 428              		.cfi_endproc
 429              	.LFE70:
 430              		.size	PSOCReset, .-PSOCReset
 431 003a 00BF     		.section	.text.ISRSetUp,"ax",%progbits
 432              		.align	2
 433              		.global	ISRSetUp
 434              		.thumb
 435              		.thumb_func
 436              		.type	ISRSetUp, %function
 437              	ISRSetUp:
 438              	.LFB71:
 166:.\main.c      ****     isr_1_ClearPending();                          
 439              		.loc 1 166 0
 440              		.cfi_startproc
 441              		@ args = 0, pretend = 0, frame = 0
 442              		@ frame_needed = 0, uses_anonymous_args = 0
 443 0000 08B5     		push	{r3, lr}
 444              		.cfi_def_cfa_offset 8
 445              		.cfi_offset 3, -8
 446              		.cfi_offset 14, -4
 167:.\main.c      ****     isr_1_StartEx(ISR1Handler);                     //for switch 2
 447              		.loc 1 167 0
 448 0002 FFF7FEFF 		bl	isr_1_ClearPending
 449              	.LVL44:
 168:.\main.c      **** } 
 450              		.loc 1 168 0
 451 0006 0248     		ldr	r0, .L34
 452 0008 FFF7FEFF 		bl	isr_1_StartEx
 453              	.LVL45:
 454 000c 08BD     		pop	{r3, pc}
 455              	.L35:
 456 000e 00BF     		.align	2
 457              	.L34:
 458 0010 00000000 		.word	ISR1Handler
 459              		.cfi_endproc
 460              	.LFE71:
ARM GAS  C:\Users\Tim\AppData\Local\Temp\ccdBUfPa.s 			page 14


 461              		.size	ISRSetUp, .-ISRSetUp
 462              		.section	.text.PWMOperate,"ax",%progbits
 463              		.align	2
 464              		.global	PWMOperate
 465              		.thumb
 466              		.thumb_func
 467              		.type	PWMOperate, %function
 468              	PWMOperate:
 469              	.LFB73:
 184:.\main.c      ****     }
 185:.\main.c      **** }
 186:.\main.c      **** //*************************************************
 187:.\main.c      **** //
 188:.\main.c      **** // Change PWM pulse
 189:.\main.c      **** // If middle switch is held down, pulse is extended
 190:.\main.c      **** //
 191:.\main.c      **** //*************************************************
 192:.\main.c      **** void PWMOperate()
 193:.\main.c      **** {
 470              		.loc 1 193 0
 471              		.cfi_startproc
 472              		@ args = 0, pretend = 0, frame = 0
 473              		@ frame_needed = 0, uses_anonymous_args = 0
 474 0000 08B5     		push	{r3, lr}
 475              		.cfi_def_cfa_offset 8
 476              		.cfi_offset 3, -8
 477              		.cfi_offset 14, -4
 194:.\main.c      ****     if(SW1_Read())
 478              		.loc 1 194 0
 479 0002 FFF7FEFF 		bl	SW1_Read
 480              	.LVL46:
 481 0006 30B1     		cbz	r0, .L37
 195:.\main.c      ****     {
 196:.\main.c      ****         PWM_1_WriteCompare1(15); 
 482              		.loc 1 196 0
 483 0008 0F20     		movs	r0, #15
 484 000a FFF7FEFF 		bl	PWM_1_WriteCompare1
 485              	.LVL47:
 197:.\main.c      ****         PWM_1_WriteCompare2(15);
 486              		.loc 1 197 0
 487 000e 0F20     		movs	r0, #15
 488 0010 FFF7FEFF 		bl	PWM_1_WriteCompare2
 489              	.LVL48:
 490 0014 08BD     		pop	{r3, pc}
 491              	.L37:
 198:.\main.c      ****     }
 199:.\main.c      ****     else
 200:.\main.c      ****     {
 201:.\main.c      ****         PWM_1_WriteCompare1(35); 
 492              		.loc 1 201 0
 493 0016 2320     		movs	r0, #35
 494 0018 FFF7FEFF 		bl	PWM_1_WriteCompare1
 495              	.LVL49:
 202:.\main.c      ****         PWM_1_WriteCompare2(35);
 496              		.loc 1 202 0
 497 001c 2320     		movs	r0, #35
 498 001e FFF7FEFF 		bl	PWM_1_WriteCompare2
ARM GAS  C:\Users\Tim\AppData\Local\Temp\ccdBUfPa.s 			page 15


 499              	.LVL50:
 500 0022 08BD     		pop	{r3, pc}
 501              		.cfi_endproc
 502              	.LFE73:
 503              		.size	PWMOperate, .-PWMOperate
 504              		.section	.text.VariablesInitialise,"ax",%progbits
 505              		.align	2
 506              		.global	VariablesInitialise
 507              		.thumb
 508              		.thumb_func
 509              		.type	VariablesInitialise, %function
 510              	VariablesInitialise:
 511              	.LFB74:
 203:.\main.c      ****     }
 204:.\main.c      **** }
 205:.\main.c      **** //*************************************************
 206:.\main.c      **** //
 207:.\main.c      **** //Initialise all necessary variables
 208:.\main.c      **** //
 209:.\main.c      **** //*************************************************
 210:.\main.c      ****  void VariablesInitialise()
 211:.\main.c      **** {
 512              		.loc 1 211 0
 513              		.cfi_startproc
 514              		@ args = 0, pretend = 0, frame = 0
 515              		@ frame_needed = 0, uses_anonymous_args = 0
 516              		@ link register save eliminated.
 212:.\main.c      ****    OnOff=0;
 517              		.loc 1 212 0
 518 0000 0022     		movs	r2, #0
 519 0002 014B     		ldr	r3, .L41
 520 0004 1A60     		str	r2, [r3]
 521 0006 7047     		bx	lr
 522              	.L42:
 523              		.align	2
 524              	.L41:
 525 0008 00000000 		.word	OnOff
 526              		.cfi_endproc
 527              	.LFE74:
 528              		.size	VariablesInitialise, .-VariablesInitialise
 529              		.section	.text.main,"ax",%progbits
 530              		.align	2
 531              		.global	main
 532              		.thumb
 533              		.thumb_func
 534              		.type	main, %function
 535              	main:
 536              	.LFB64:
  36:.\main.c      ****     PSOCReset();                                    //Put PSOC in ready state
 537              		.loc 1 36 0
 538              		.cfi_startproc
 539              		@ args = 0, pretend = 0, frame = 0
 540              		@ frame_needed = 0, uses_anonymous_args = 0
 541 0000 08B5     		push	{r3, lr}
 542              		.cfi_def_cfa_offset 8
 543              		.cfi_offset 3, -8
 544              		.cfi_offset 14, -4
ARM GAS  C:\Users\Tim\AppData\Local\Temp\ccdBUfPa.s 			page 16


  37:.\main.c      ****     VariablesInitialise();                          //Initialise all variables
 545              		.loc 1 37 0
 546 0002 FFF7FEFF 		bl	PSOCReset
 547              	.LVL51:
  38:.\main.c      ****     PWM_1_Start();                                  //Start PWM channel    
 548              		.loc 1 38 0
 549 0006 FFF7FEFF 		bl	VariablesInitialise
 550              	.LVL52:
  39:.\main.c      ****     ISRSetUp();                                     //Setup all interupts
 551              		.loc 1 39 0
 552 000a FFF7FEFF 		bl	PWM_1_Start
 553              	.LVL53:
  40:.\main.c      ****     LCD_Start();
 554              		.loc 1 40 0
 555 000e FFF7FEFF 		bl	ISRSetUp
 556              	.LVL54:
  41:.\main.c      ****     LCD_DMA_Start();
 557              		.loc 1 41 0
 558 0012 FFF7FEFF 		bl	LCD_Start
 559              	.LVL55:
  42:.\main.c      ****     Camera_Start();
 560              		.loc 1 42 0
 561 0016 FFF7FEFF 		bl	LCD_DMA_Start
 562              	.LVL56:
  43:.\main.c      ****     Camera_WriteReg(0x41,0x02);                     //double colour matrix (more saturation)
 563              		.loc 1 43 0
 564 001a FFF7FEFF 		bl	Camera_Start
 565              	.LVL57:
  44:.\main.c      ****     Camera_SetBlankTime(600);                       //increase blanking time if image is corrupted;
 566              		.loc 1 44 0
 567 001e 4120     		movs	r0, #65
 568 0020 0221     		movs	r1, #2
 569 0022 FFF7FEFF 		bl	Camera_WriteReg
 570              	.LVL58:
  45:.\main.c      ****     
 571              		.loc 1 45 0
 572 0026 4FF41670 		mov	r0, #600
 573 002a FFF7FEFF 		bl	Camera_SetBlankTime
 574              	.LVL59:
  47:.\main.c      ****     CyGlobalIntEnable;                              //interrupts must be enabled for camera to work
 575              		.loc 1 47 0
 576 002e 0420     		movs	r0, #4
 577 0030 0121     		movs	r1, #1
 578 0032 FFF7FEFF 		bl	LCD_CLK_SetDividerRegister
 579              	.LVL60:
  48:.\main.c      ****     
 580              		.loc 1 48 0
 581              	@ 48 ".\main.c" 1
 582 0036 62B6     		CPSIE   i
 583              	@ 0 "" 2
  50:.\main.c      ****     CyDelay(200);
 584              		.loc 1 50 0
 585              		.thumb
 586 0038 0120     		movs	r0, #1
 587 003a FFF7FEFF 		bl	Beep
 588              	.LVL61:
  51:.\main.c      ****     Beep(1); 
ARM GAS  C:\Users\Tim\AppData\Local\Temp\ccdBUfPa.s 			page 17


 589              		.loc 1 51 0
 590 003e C820     		movs	r0, #200
 591 0040 FFF7FEFF 		bl	CyDelay
 592              	.LVL62:
  52:.\main.c      ****     while(OnOff==0)
 593              		.loc 1 52 0
 594 0044 0120     		movs	r0, #1
 595 0046 FFF7FEFF 		bl	Beep
 596              	.LVL63:
 597              	.L44:
  53:.\main.c      ****     {
 598              		.loc 1 53 0 discriminator 1
 599 004a 044B     		ldr	r3, .L47
 600 004c 1B68     		ldr	r3, [r3]
 601 004e 002B     		cmp	r3, #0
 602 0050 FBD0     		beq	.L44
  56:.\main.c      ****        
 603              		.loc 1 56 0
 604 0052 FFF7FEFF 		bl	InitialisationSequnce
 605              	.LVL64:
 606              	.L45:
  61:.\main.c      ****     }
 607              		.loc 1 61 0 discriminator 1
 608 0056 FFF7FEFF 		bl	movement_test
 609              	.LVL65:
  62:.\main.c      **** }
 610              		.loc 1 62 0 discriminator 1
 611 005a FCE7     		b	.L45
 612              	.L48:
 613              		.align	2
 614              	.L47:
 615 005c 00000000 		.word	OnOff
 616              		.cfi_endproc
 617              	.LFE64:
 618              		.size	main, .-main
 619              		.comm	OnOff,4,4
 620              		.comm	AD0Data,4,4
 621              		.comm	c,4,4
 622              		.comm	b,4,4
 623              		.comm	a,4,4
 624              		.comm	Camera_linebuffer,640,4
 625              		.text
 626              	.Letext0:
 627              		.file 3 "c:\\program files (x86)\\cypress\\psoc creator\\3.3\\psoc creator\\import\\gnu\\arm\\4.9.
 628              		.file 4 "c:\\program files (x86)\\cypress\\psoc creator\\3.3\\psoc creator\\import\\gnu\\arm\\4.9.
 629              		.file 5 "Generated_Source\\PSoC5/cytypes.h"
 630              		.file 6 "Generated_Source\\PSoC5/core_cm3.h"
 631              		.file 7 "Generated_Source\\PSoC5/Camera.h"
 632              		.file 8 "Generated_Source\\PSoC5/CS.h"
 633              		.file 9 "Generated_Source\\PSoC5/CyLib.h"
 634              		.file 10 "Generated_Source\\PSoC5/Data_Out.h"
 635              		.file 11 "Generated_Source\\PSoC5/RST.h"
 636              		.file 12 "Generated_Source\\PSoC5/isr_1.h"
 637              		.file 13 "Generated_Source\\PSoC5/PWM_1.h"
 638              		.file 14 "Generated_Source\\PSoC5/LCD.h"
 639              		.file 15 ".\\camera_display.h"
 640              		.file 16 "Generated_Source\\PSoC5/LCD_CLK.h"
ARM GAS  C:\Users\Tim\AppData\Local\Temp\ccdBUfPa.s 			page 18


 641              		.file 17 "Generated_Source\\PSoC5/SW1.h"