ARM GAS  D:\TEMP\ccD1ch0r.s 			page 1


   1              		.syntax unified
   2              		.cpu cortex-m3
   3              		.fpu softvfp
   4              		.eabi_attribute 20, 1
   5              		.eabi_attribute 21, 1
   6              		.eabi_attribute 23, 3
   7              		.eabi_attribute 24, 1
   8              		.eabi_attribute 25, 1
   9              		.eabi_attribute 26, 1
  10              		.eabi_attribute 30, 4
  11              		.eabi_attribute 34, 1
  12              		.eabi_attribute 18, 4
  13              		.thumb
  14              		.file	"Camera_I2C_PM.c"
  15              		.text
  16              	.Ltext0:
  17              		.cfi_sections	.debug_frame
  18              		.section	.text.Camera_I2C_SaveConfig,"ax",%progbits
  19              		.align	1
  20              		.global	Camera_I2C_SaveConfig
  21              		.thumb
  22              		.thumb_func
  23              		.type	Camera_I2C_SaveConfig, %function
  24              	Camera_I2C_SaveConfig:
  25              	.LFB0:
  26              		.file 1 ".\\Generated_Source\\PSoC5\\Camera_I2C_PM.c"
   1:.\Generated_Source\PSoC5/Camera_I2C_PM.c **** /*******************************************************************************
   2:.\Generated_Source\PSoC5/Camera_I2C_PM.c **** * File Name: Camera_I2C_PM.c
   3:.\Generated_Source\PSoC5/Camera_I2C_PM.c **** * Version 3.50
   4:.\Generated_Source\PSoC5/Camera_I2C_PM.c **** *
   5:.\Generated_Source\PSoC5/Camera_I2C_PM.c **** * Description:
   6:.\Generated_Source\PSoC5/Camera_I2C_PM.c **** *  This file provides low power mode APIs for the I2C component.
   7:.\Generated_Source\PSoC5/Camera_I2C_PM.c **** *
   8:.\Generated_Source\PSoC5/Camera_I2C_PM.c **** ********************************************************************************
   9:.\Generated_Source\PSoC5/Camera_I2C_PM.c **** * Copyright 2008-2015, Cypress Semiconductor Corporation. All rights reserved.
  10:.\Generated_Source\PSoC5/Camera_I2C_PM.c **** * You may use this file only in accordance with the license, terms, conditions,
  11:.\Generated_Source\PSoC5/Camera_I2C_PM.c **** * disclaimers, and limitations in the end user license agreement accompanying
  12:.\Generated_Source\PSoC5/Camera_I2C_PM.c **** * the software package with which this file was provided.
  13:.\Generated_Source\PSoC5/Camera_I2C_PM.c **** *******************************************************************************/
  14:.\Generated_Source\PSoC5/Camera_I2C_PM.c **** 
  15:.\Generated_Source\PSoC5/Camera_I2C_PM.c **** #include "Camera_I2C_PVT.h"
  16:.\Generated_Source\PSoC5/Camera_I2C_PM.c **** 
  17:.\Generated_Source\PSoC5/Camera_I2C_PM.c **** Camera_I2C_BACKUP_STRUCT Camera_I2C_backup =
  18:.\Generated_Source\PSoC5/Camera_I2C_PM.c **** {
  19:.\Generated_Source\PSoC5/Camera_I2C_PM.c ****     Camera_I2C_DISABLE,
  20:.\Generated_Source\PSoC5/Camera_I2C_PM.c **** 
  21:.\Generated_Source\PSoC5/Camera_I2C_PM.c **** #if (Camera_I2C_FF_IMPLEMENTED)
  22:.\Generated_Source\PSoC5/Camera_I2C_PM.c ****     Camera_I2C_DEFAULT_XCFG,
  23:.\Generated_Source\PSoC5/Camera_I2C_PM.c ****     Camera_I2C_DEFAULT_CFG,
  24:.\Generated_Source\PSoC5/Camera_I2C_PM.c ****     Camera_I2C_DEFAULT_ADDR,
  25:.\Generated_Source\PSoC5/Camera_I2C_PM.c ****     LO8(Camera_I2C_DEFAULT_DIVIDE_FACTOR),
  26:.\Generated_Source\PSoC5/Camera_I2C_PM.c ****     HI8(Camera_I2C_DEFAULT_DIVIDE_FACTOR),
  27:.\Generated_Source\PSoC5/Camera_I2C_PM.c **** #else  /* (Camera_I2C_UDB_IMPLEMENTED) */
  28:.\Generated_Source\PSoC5/Camera_I2C_PM.c ****     Camera_I2C_DEFAULT_CFG,
  29:.\Generated_Source\PSoC5/Camera_I2C_PM.c **** #endif /* (Camera_I2C_FF_IMPLEMENTED) */
  30:.\Generated_Source\PSoC5/Camera_I2C_PM.c **** 
  31:.\Generated_Source\PSoC5/Camera_I2C_PM.c **** #if (Camera_I2C_TIMEOUT_ENABLED)
ARM GAS  D:\TEMP\ccD1ch0r.s 			page 2


  32:.\Generated_Source\PSoC5/Camera_I2C_PM.c ****     Camera_I2C_DEFAULT_TMOUT_PERIOD,
  33:.\Generated_Source\PSoC5/Camera_I2C_PM.c ****     Camera_I2C_DEFAULT_TMOUT_INTR_MASK,
  34:.\Generated_Source\PSoC5/Camera_I2C_PM.c **** #endif /* (Camera_I2C_TIMEOUT_ENABLED) */
  35:.\Generated_Source\PSoC5/Camera_I2C_PM.c **** };
  36:.\Generated_Source\PSoC5/Camera_I2C_PM.c **** 
  37:.\Generated_Source\PSoC5/Camera_I2C_PM.c **** #if ((Camera_I2C_FF_IMPLEMENTED) && (Camera_I2C_WAKEUP_ENABLED))
  38:.\Generated_Source\PSoC5/Camera_I2C_PM.c ****     volatile uint8 Camera_I2C_wakeupSource;
  39:.\Generated_Source\PSoC5/Camera_I2C_PM.c **** #endif /* ((Camera_I2C_FF_IMPLEMENTED) && (Camera_I2C_WAKEUP_ENABLED)) */
  40:.\Generated_Source\PSoC5/Camera_I2C_PM.c **** 
  41:.\Generated_Source\PSoC5/Camera_I2C_PM.c **** 
  42:.\Generated_Source\PSoC5/Camera_I2C_PM.c **** /*******************************************************************************
  43:.\Generated_Source\PSoC5/Camera_I2C_PM.c **** * Function Name: Camera_I2C_SaveConfig
  44:.\Generated_Source\PSoC5/Camera_I2C_PM.c **** ********************************************************************************
  45:.\Generated_Source\PSoC5/Camera_I2C_PM.c **** *
  46:.\Generated_Source\PSoC5/Camera_I2C_PM.c **** * Summary:
  47:.\Generated_Source\PSoC5/Camera_I2C_PM.c **** *  The Enable wakeup from Sleep Mode selection influences this function
  48:.\Generated_Source\PSoC5/Camera_I2C_PM.c **** *  implementation:
  49:.\Generated_Source\PSoC5/Camera_I2C_PM.c **** *   Unchecked: Stores the component non-retention configuration registers.
  50:.\Generated_Source\PSoC5/Camera_I2C_PM.c **** *   Checked:   Disables the master, if it was enabled before, and enables
  51:.\Generated_Source\PSoC5/Camera_I2C_PM.c **** *              backup regulator of the I2C hardware. If a transaction intended
  52:.\Generated_Source\PSoC5/Camera_I2C_PM.c **** *              for component executes during this function call, it waits until
  53:.\Generated_Source\PSoC5/Camera_I2C_PM.c **** *              the current transaction is completed and I2C hardware is ready
  54:.\Generated_Source\PSoC5/Camera_I2C_PM.c **** *              to enter sleep mode. All subsequent I2C traffic is NAKed until
  55:.\Generated_Source\PSoC5/Camera_I2C_PM.c **** *              the device is put into sleep mode.
  56:.\Generated_Source\PSoC5/Camera_I2C_PM.c **** *
  57:.\Generated_Source\PSoC5/Camera_I2C_PM.c **** * Parameters:
  58:.\Generated_Source\PSoC5/Camera_I2C_PM.c **** *  None.
  59:.\Generated_Source\PSoC5/Camera_I2C_PM.c **** *
  60:.\Generated_Source\PSoC5/Camera_I2C_PM.c **** * Return:
  61:.\Generated_Source\PSoC5/Camera_I2C_PM.c **** *  None.
  62:.\Generated_Source\PSoC5/Camera_I2C_PM.c **** *
  63:.\Generated_Source\PSoC5/Camera_I2C_PM.c **** * Global Variables:
  64:.\Generated_Source\PSoC5/Camera_I2C_PM.c **** *  Camera_I2C_backup - The global variable used to save the component
  65:.\Generated_Source\PSoC5/Camera_I2C_PM.c **** *                            configuration and non-retention registers before
  66:.\Generated_Source\PSoC5/Camera_I2C_PM.c **** *                            entering the sleep mode.
  67:.\Generated_Source\PSoC5/Camera_I2C_PM.c **** *
  68:.\Generated_Source\PSoC5/Camera_I2C_PM.c **** * Reentrant:
  69:.\Generated_Source\PSoC5/Camera_I2C_PM.c **** *  No.
  70:.\Generated_Source\PSoC5/Camera_I2C_PM.c **** *
  71:.\Generated_Source\PSoC5/Camera_I2C_PM.c **** *******************************************************************************/
  72:.\Generated_Source\PSoC5/Camera_I2C_PM.c **** void Camera_I2C_SaveConfig(void) 
  73:.\Generated_Source\PSoC5/Camera_I2C_PM.c **** {
  27              		.loc 1 73 0
  28              		.cfi_startproc
  29              		@ args = 0, pretend = 0, frame = 0
  30              		@ frame_needed = 0, uses_anonymous_args = 0
  31              		@ link register save eliminated.
  74:.\Generated_Source\PSoC5/Camera_I2C_PM.c **** #if (Camera_I2C_FF_IMPLEMENTED)
  75:.\Generated_Source\PSoC5/Camera_I2C_PM.c ****     #if (Camera_I2C_WAKEUP_ENABLED)
  76:.\Generated_Source\PSoC5/Camera_I2C_PM.c ****         uint8 intState;
  77:.\Generated_Source\PSoC5/Camera_I2C_PM.c ****     #endif /* (Camera_I2C_WAKEUP_ENABLED) */
  78:.\Generated_Source\PSoC5/Camera_I2C_PM.c **** 
  79:.\Generated_Source\PSoC5/Camera_I2C_PM.c ****     /* Store registers before enter low power mode */
  80:.\Generated_Source\PSoC5/Camera_I2C_PM.c ****     Camera_I2C_backup.cfg     = Camera_I2C_CFG_REG;
  32              		.loc 1 80 0
  33 0000 084B     		ldr	r3, .L2
  34 0002 1A78     		ldrb	r2, [r3]	@ zero_extendqisi2
ARM GAS  D:\TEMP\ccD1ch0r.s 			page 3


  35 0004 084B     		ldr	r3, .L2+4
  36 0006 9A70     		strb	r2, [r3, #2]
  81:.\Generated_Source\PSoC5/Camera_I2C_PM.c ****     Camera_I2C_backup.xcfg    = Camera_I2C_XCFG_REG;
  37              		.loc 1 81 0
  38 0008 084A     		ldr	r2, .L2+8
  39 000a 1278     		ldrb	r2, [r2]	@ zero_extendqisi2
  40 000c 5A70     		strb	r2, [r3, #1]
  82:.\Generated_Source\PSoC5/Camera_I2C_PM.c ****     Camera_I2C_backup.addr    = Camera_I2C_ADDR_REG;
  41              		.loc 1 82 0
  42 000e 084A     		ldr	r2, .L2+12
  43 0010 1278     		ldrb	r2, [r2]	@ zero_extendqisi2
  44 0012 DA70     		strb	r2, [r3, #3]
  83:.\Generated_Source\PSoC5/Camera_I2C_PM.c ****     Camera_I2C_backup.clkDiv1 = Camera_I2C_CLKDIV1_REG;
  45              		.loc 1 83 0
  46 0014 074A     		ldr	r2, .L2+16
  47 0016 1278     		ldrb	r2, [r2]	@ zero_extendqisi2
  48 0018 1A71     		strb	r2, [r3, #4]
  84:.\Generated_Source\PSoC5/Camera_I2C_PM.c ****     Camera_I2C_backup.clkDiv2 = Camera_I2C_CLKDIV2_REG;
  49              		.loc 1 84 0
  50 001a 074A     		ldr	r2, .L2+20
  51 001c 1278     		ldrb	r2, [r2]	@ zero_extendqisi2
  52 001e 5A71     		strb	r2, [r3, #5]
  53 0020 7047     		bx	lr
  54              	.L3:
  55 0022 00BF     		.align	2
  56              	.L2:
  57 0024 D6490040 		.word	1073760726
  58 0028 00000000 		.word	.LANCHOR0
  59 002c C8490040 		.word	1073760712
  60 0030 CA490040 		.word	1073760714
  61 0034 DB490040 		.word	1073760731
  62 0038 DC490040 		.word	1073760732
  63              		.cfi_endproc
  64              	.LFE0:
  65              		.size	Camera_I2C_SaveConfig, .-Camera_I2C_SaveConfig
  66              		.section	.text.Camera_I2C_Sleep,"ax",%progbits
  67              		.align	1
  68              		.global	Camera_I2C_Sleep
  69              		.thumb
  70              		.thumb_func
  71              		.type	Camera_I2C_Sleep, %function
  72              	Camera_I2C_Sleep:
  73              	.LFB1:
  85:.\Generated_Source\PSoC5/Camera_I2C_PM.c **** 
  86:.\Generated_Source\PSoC5/Camera_I2C_PM.c **** #if (Camera_I2C_WAKEUP_ENABLED)
  87:.\Generated_Source\PSoC5/Camera_I2C_PM.c ****     /* Disable master */
  88:.\Generated_Source\PSoC5/Camera_I2C_PM.c ****     Camera_I2C_CFG_REG &= (uint8) ~Camera_I2C_ENABLE_MASTER;
  89:.\Generated_Source\PSoC5/Camera_I2C_PM.c **** 
  90:.\Generated_Source\PSoC5/Camera_I2C_PM.c ****     /* Enable backup regulator to keep block powered in low power mode */
  91:.\Generated_Source\PSoC5/Camera_I2C_PM.c ****     intState = CyEnterCriticalSection();
  92:.\Generated_Source\PSoC5/Camera_I2C_PM.c ****     Camera_I2C_PWRSYS_CR1_REG |= Camera_I2C_PWRSYS_CR1_I2C_REG_BACKUP;
  93:.\Generated_Source\PSoC5/Camera_I2C_PM.c ****     CyExitCriticalSection(intState);
  94:.\Generated_Source\PSoC5/Camera_I2C_PM.c **** 
  95:.\Generated_Source\PSoC5/Camera_I2C_PM.c ****     /* 1) Set force NACK to ignore I2C transactions;
  96:.\Generated_Source\PSoC5/Camera_I2C_PM.c ****     *  2) Wait unti I2C is ready go to Sleep; !!
  97:.\Generated_Source\PSoC5/Camera_I2C_PM.c ****     *  3) These bits are cleared on wake up.
  98:.\Generated_Source\PSoC5/Camera_I2C_PM.c ****     */
ARM GAS  D:\TEMP\ccD1ch0r.s 			page 4


  99:.\Generated_Source\PSoC5/Camera_I2C_PM.c ****     /* Wait when block is ready for sleep */
 100:.\Generated_Source\PSoC5/Camera_I2C_PM.c ****     Camera_I2C_XCFG_REG |= Camera_I2C_XCFG_FORCE_NACK;
 101:.\Generated_Source\PSoC5/Camera_I2C_PM.c ****     while (0u == (Camera_I2C_XCFG_REG & Camera_I2C_XCFG_RDY_TO_SLEEP))
 102:.\Generated_Source\PSoC5/Camera_I2C_PM.c ****     {
 103:.\Generated_Source\PSoC5/Camera_I2C_PM.c ****     }
 104:.\Generated_Source\PSoC5/Camera_I2C_PM.c **** 
 105:.\Generated_Source\PSoC5/Camera_I2C_PM.c ****     /* Setup wakeup interrupt */
 106:.\Generated_Source\PSoC5/Camera_I2C_PM.c ****     Camera_I2C_DisableInt();
 107:.\Generated_Source\PSoC5/Camera_I2C_PM.c ****     (void) CyIntSetVector(Camera_I2C_ISR_NUMBER, &Camera_I2C_WAKEUP_ISR);
 108:.\Generated_Source\PSoC5/Camera_I2C_PM.c ****     Camera_I2C_wakeupSource = 0u;
 109:.\Generated_Source\PSoC5/Camera_I2C_PM.c ****     Camera_I2C_EnableInt();
 110:.\Generated_Source\PSoC5/Camera_I2C_PM.c **** #endif /* (Camera_I2C_WAKEUP_ENABLED) */
 111:.\Generated_Source\PSoC5/Camera_I2C_PM.c **** 
 112:.\Generated_Source\PSoC5/Camera_I2C_PM.c **** #else
 113:.\Generated_Source\PSoC5/Camera_I2C_PM.c ****     /* Store only address match bit */
 114:.\Generated_Source\PSoC5/Camera_I2C_PM.c ****     Camera_I2C_backup.control = (Camera_I2C_CFG_REG & Camera_I2C_CTRL_ANY_ADDRESS_MASK);
 115:.\Generated_Source\PSoC5/Camera_I2C_PM.c **** #endif /* (Camera_I2C_FF_IMPLEMENTED) */
 116:.\Generated_Source\PSoC5/Camera_I2C_PM.c **** 
 117:.\Generated_Source\PSoC5/Camera_I2C_PM.c **** #if (Camera_I2C_TIMEOUT_ENABLED)
 118:.\Generated_Source\PSoC5/Camera_I2C_PM.c ****     Camera_I2C_TimeoutSaveConfig();
 119:.\Generated_Source\PSoC5/Camera_I2C_PM.c **** #endif /* (Camera_I2C_TIMEOUT_ENABLED) */
 120:.\Generated_Source\PSoC5/Camera_I2C_PM.c **** }
 121:.\Generated_Source\PSoC5/Camera_I2C_PM.c **** 
 122:.\Generated_Source\PSoC5/Camera_I2C_PM.c **** 
 123:.\Generated_Source\PSoC5/Camera_I2C_PM.c **** /*******************************************************************************
 124:.\Generated_Source\PSoC5/Camera_I2C_PM.c **** * Function Name: Camera_I2C_Sleep
 125:.\Generated_Source\PSoC5/Camera_I2C_PM.c **** ********************************************************************************
 126:.\Generated_Source\PSoC5/Camera_I2C_PM.c **** *
 127:.\Generated_Source\PSoC5/Camera_I2C_PM.c **** * Summary:
 128:.\Generated_Source\PSoC5/Camera_I2C_PM.c **** *  This is the preferred method to prepare the component before device enters
 129:.\Generated_Source\PSoC5/Camera_I2C_PM.c **** *  sleep mode. The Enable wakeup from Sleep Mode selection influences this
 130:.\Generated_Source\PSoC5/Camera_I2C_PM.c **** *  function implementation:
 131:.\Generated_Source\PSoC5/Camera_I2C_PM.c **** *   Unchecked: Checks current I2C component state, saves it, and disables the
 132:.\Generated_Source\PSoC5/Camera_I2C_PM.c **** *              component by calling I2C_Stop() if it is currently enabled.
 133:.\Generated_Source\PSoC5/Camera_I2C_PM.c **** *              I2C_SaveConfig() is then called to save the component
 134:.\Generated_Source\PSoC5/Camera_I2C_PM.c **** *              non-retention configuration registers.
 135:.\Generated_Source\PSoC5/Camera_I2C_PM.c **** *   Checked:   If a transaction intended for component executes during this
 136:.\Generated_Source\PSoC5/Camera_I2C_PM.c **** *              function call, it waits until the current transaction is
 137:.\Generated_Source\PSoC5/Camera_I2C_PM.c **** *              completed. All subsequent I2C traffic intended for component
 138:.\Generated_Source\PSoC5/Camera_I2C_PM.c **** *              is NAKed until the device is put to sleep mode. The address
 139:.\Generated_Source\PSoC5/Camera_I2C_PM.c **** *              match event wakes up the device.
 140:.\Generated_Source\PSoC5/Camera_I2C_PM.c **** *
 141:.\Generated_Source\PSoC5/Camera_I2C_PM.c **** * Parameters:
 142:.\Generated_Source\PSoC5/Camera_I2C_PM.c **** *  None.
 143:.\Generated_Source\PSoC5/Camera_I2C_PM.c **** *
 144:.\Generated_Source\PSoC5/Camera_I2C_PM.c **** * Return:
 145:.\Generated_Source\PSoC5/Camera_I2C_PM.c **** *  None.
 146:.\Generated_Source\PSoC5/Camera_I2C_PM.c **** *
 147:.\Generated_Source\PSoC5/Camera_I2C_PM.c **** * Reentrant:
 148:.\Generated_Source\PSoC5/Camera_I2C_PM.c **** *  No.
 149:.\Generated_Source\PSoC5/Camera_I2C_PM.c **** *
 150:.\Generated_Source\PSoC5/Camera_I2C_PM.c **** *******************************************************************************/
 151:.\Generated_Source\PSoC5/Camera_I2C_PM.c **** void Camera_I2C_Sleep(void) 
 152:.\Generated_Source\PSoC5/Camera_I2C_PM.c **** {
  74              		.loc 1 152 0
  75              		.cfi_startproc
  76              		@ args = 0, pretend = 0, frame = 0
ARM GAS  D:\TEMP\ccD1ch0r.s 			page 5


  77              		@ frame_needed = 0, uses_anonymous_args = 0
  78 0000 08B5     		push	{r3, lr}
  79              		.cfi_def_cfa_offset 8
  80              		.cfi_offset 3, -8
  81              		.cfi_offset 14, -4
 153:.\Generated_Source\PSoC5/Camera_I2C_PM.c **** #if (Camera_I2C_WAKEUP_ENABLED)
 154:.\Generated_Source\PSoC5/Camera_I2C_PM.c ****     /* Do not enable block after exit low power mode if it is wakeup source */
 155:.\Generated_Source\PSoC5/Camera_I2C_PM.c ****     Camera_I2C_backup.enableState = Camera_I2C_DISABLE;
 156:.\Generated_Source\PSoC5/Camera_I2C_PM.c **** 
 157:.\Generated_Source\PSoC5/Camera_I2C_PM.c ****     #if (Camera_I2C_TIMEOUT_ENABLED)
 158:.\Generated_Source\PSoC5/Camera_I2C_PM.c ****         Camera_I2C_TimeoutStop();
 159:.\Generated_Source\PSoC5/Camera_I2C_PM.c ****     #endif /* (Camera_I2C_TIMEOUT_ENABLED) */
 160:.\Generated_Source\PSoC5/Camera_I2C_PM.c **** 
 161:.\Generated_Source\PSoC5/Camera_I2C_PM.c **** #else
 162:.\Generated_Source\PSoC5/Camera_I2C_PM.c ****     /* Store enable state */
 163:.\Generated_Source\PSoC5/Camera_I2C_PM.c ****     Camera_I2C_backup.enableState = (uint8) Camera_I2C_IS_ENABLED;
  82              		.loc 1 163 0
  83 0002 064B     		ldr	r3, .L10
  84 0004 064A     		ldr	r2, .L10+4
  85 0006 1B78     		ldrb	r3, [r3]	@ zero_extendqisi2
  86 0008 C3F38003 		ubfx	r3, r3, #2, #1
  87 000c 1370     		strb	r3, [r2]
 164:.\Generated_Source\PSoC5/Camera_I2C_PM.c **** 
 165:.\Generated_Source\PSoC5/Camera_I2C_PM.c ****     if (0u != Camera_I2C_backup.enableState)
  88              		.loc 1 165 0
  89 000e 0BB1     		cbz	r3, .L5
 166:.\Generated_Source\PSoC5/Camera_I2C_PM.c ****     {
 167:.\Generated_Source\PSoC5/Camera_I2C_PM.c ****         Camera_I2C_Stop();
  90              		.loc 1 167 0
  91 0010 FFF7FEFF 		bl	Camera_I2C_Stop
  92              	.LVL0:
  93              	.L5:
 168:.\Generated_Source\PSoC5/Camera_I2C_PM.c ****     }
 169:.\Generated_Source\PSoC5/Camera_I2C_PM.c **** #endif /* (Camera_I2C_WAKEUP_ENABLED) */
 170:.\Generated_Source\PSoC5/Camera_I2C_PM.c **** 
 171:.\Generated_Source\PSoC5/Camera_I2C_PM.c ****     Camera_I2C_SaveConfig();
 172:.\Generated_Source\PSoC5/Camera_I2C_PM.c **** }
  94              		.loc 1 172 0
  95 0014 BDE80840 		pop	{r3, lr}
  96              		.cfi_restore 14
  97              		.cfi_restore 3
  98              		.cfi_def_cfa_offset 0
 171:.\Generated_Source\PSoC5/Camera_I2C_PM.c **** }
  99              		.loc 1 171 0
 100 0018 FFF7FEBF 		b	Camera_I2C_SaveConfig
 101              	.LVL1:
 102              	.L11:
 103              		.align	2
 104              	.L10:
 105 001c A5430040 		.word	1073759141
 106 0020 00000000 		.word	.LANCHOR0
 107              		.cfi_endproc
 108              	.LFE1:
 109              		.size	Camera_I2C_Sleep, .-Camera_I2C_Sleep
 110              		.section	.text.Camera_I2C_RestoreConfig,"ax",%progbits
 111              		.align	1
 112              		.global	Camera_I2C_RestoreConfig
ARM GAS  D:\TEMP\ccD1ch0r.s 			page 6


 113              		.thumb
 114              		.thumb_func
 115              		.type	Camera_I2C_RestoreConfig, %function
 116              	Camera_I2C_RestoreConfig:
 117              	.LFB2:
 173:.\Generated_Source\PSoC5/Camera_I2C_PM.c **** 
 174:.\Generated_Source\PSoC5/Camera_I2C_PM.c **** 
 175:.\Generated_Source\PSoC5/Camera_I2C_PM.c **** /*******************************************************************************
 176:.\Generated_Source\PSoC5/Camera_I2C_PM.c **** * Function Name: Camera_I2C_RestoreConfig
 177:.\Generated_Source\PSoC5/Camera_I2C_PM.c **** ********************************************************************************
 178:.\Generated_Source\PSoC5/Camera_I2C_PM.c **** *
 179:.\Generated_Source\PSoC5/Camera_I2C_PM.c **** * Summary:
 180:.\Generated_Source\PSoC5/Camera_I2C_PM.c **** *  The Enable wakeup from Sleep Mode selection influences this function
 181:.\Generated_Source\PSoC5/Camera_I2C_PM.c **** *  implementation:
 182:.\Generated_Source\PSoC5/Camera_I2C_PM.c **** *   Unchecked: Restores the component non-retention configuration registers
 183:.\Generated_Source\PSoC5/Camera_I2C_PM.c **** *              to the state they were in before I2C_Sleep() or I2C_SaveConfig()
 184:.\Generated_Source\PSoC5/Camera_I2C_PM.c **** *              was called.
 185:.\Generated_Source\PSoC5/Camera_I2C_PM.c **** *   Checked:   Disables the backup regulator of the I2C hardware. Sets up the
 186:.\Generated_Source\PSoC5/Camera_I2C_PM.c **** *              regular component interrupt handler and generates the component
 187:.\Generated_Source\PSoC5/Camera_I2C_PM.c **** *              interrupt if it was wake up source to release the bus and
 188:.\Generated_Source\PSoC5/Camera_I2C_PM.c **** *              continue in-coming I2C transaction.
 189:.\Generated_Source\PSoC5/Camera_I2C_PM.c **** *
 190:.\Generated_Source\PSoC5/Camera_I2C_PM.c **** * Parameters:
 191:.\Generated_Source\PSoC5/Camera_I2C_PM.c **** *  None.
 192:.\Generated_Source\PSoC5/Camera_I2C_PM.c **** *
 193:.\Generated_Source\PSoC5/Camera_I2C_PM.c **** * Return:
 194:.\Generated_Source\PSoC5/Camera_I2C_PM.c **** *  None.
 195:.\Generated_Source\PSoC5/Camera_I2C_PM.c **** *
 196:.\Generated_Source\PSoC5/Camera_I2C_PM.c **** * Global Variables:
 197:.\Generated_Source\PSoC5/Camera_I2C_PM.c **** *  Camera_I2C_backup - The global variable used to save the component
 198:.\Generated_Source\PSoC5/Camera_I2C_PM.c **** *                            configuration and non-retention registers before
 199:.\Generated_Source\PSoC5/Camera_I2C_PM.c **** *                            exiting the sleep mode.
 200:.\Generated_Source\PSoC5/Camera_I2C_PM.c **** *
 201:.\Generated_Source\PSoC5/Camera_I2C_PM.c **** * Reentrant:
 202:.\Generated_Source\PSoC5/Camera_I2C_PM.c **** *  No.
 203:.\Generated_Source\PSoC5/Camera_I2C_PM.c **** *
 204:.\Generated_Source\PSoC5/Camera_I2C_PM.c **** * Side Effects:
 205:.\Generated_Source\PSoC5/Camera_I2C_PM.c **** *  Calling this function before Camera_I2C_SaveConfig() or
 206:.\Generated_Source\PSoC5/Camera_I2C_PM.c **** *  Camera_I2C_Sleep() will lead to unpredictable results.
 207:.\Generated_Source\PSoC5/Camera_I2C_PM.c **** *
 208:.\Generated_Source\PSoC5/Camera_I2C_PM.c **** *******************************************************************************/
 209:.\Generated_Source\PSoC5/Camera_I2C_PM.c **** void Camera_I2C_RestoreConfig(void) 
 210:.\Generated_Source\PSoC5/Camera_I2C_PM.c **** {
 118              		.loc 1 210 0
 119              		.cfi_startproc
 120              		@ args = 0, pretend = 0, frame = 0
 121              		@ frame_needed = 0, uses_anonymous_args = 0
 122 0000 70B5     		push	{r4, r5, r6, lr}
 123              		.cfi_def_cfa_offset 16
 124              		.cfi_offset 4, -16
 125              		.cfi_offset 5, -12
 126              		.cfi_offset 6, -8
 127              		.cfi_offset 14, -4
 211:.\Generated_Source\PSoC5/Camera_I2C_PM.c **** #if (Camera_I2C_FF_IMPLEMENTED)
 212:.\Generated_Source\PSoC5/Camera_I2C_PM.c ****     uint8 intState;
 213:.\Generated_Source\PSoC5/Camera_I2C_PM.c **** 
 214:.\Generated_Source\PSoC5/Camera_I2C_PM.c ****     if (Camera_I2C_CHECK_PWRSYS_I2C_BACKUP)
ARM GAS  D:\TEMP\ccD1ch0r.s 			page 7


 128              		.loc 1 214 0
 129 0002 0F4D     		ldr	r5, .L15
 130 0004 0F4C     		ldr	r4, .L15+4
 131 0006 2B78     		ldrb	r3, [r5]	@ zero_extendqisi2
 132 0008 0F4E     		ldr	r6, .L15+8
 133 000a 13F0040F 		tst	r3, #4
 134 000e 0AD0     		beq	.L13
 135              	.LBB4:
 136              	.LBB5:
 215:.\Generated_Source\PSoC5/Camera_I2C_PM.c ****     /* Low power mode was Sleep - backup regulator is enabled */
 216:.\Generated_Source\PSoC5/Camera_I2C_PM.c ****     {
 217:.\Generated_Source\PSoC5/Camera_I2C_PM.c ****         /* Enable backup regulator in active mode */
 218:.\Generated_Source\PSoC5/Camera_I2C_PM.c ****         intState = CyEnterCriticalSection();
 137              		.loc 1 218 0
 138 0010 FFF7FEFF 		bl	CyEnterCriticalSection
 139              	.LVL2:
 219:.\Generated_Source\PSoC5/Camera_I2C_PM.c ****         Camera_I2C_PWRSYS_CR1_REG &= (uint8) ~Camera_I2C_PWRSYS_CR1_I2C_REG_BACKUP;
 140              		.loc 1 219 0
 141 0014 2B78     		ldrb	r3, [r5]	@ zero_extendqisi2
 142 0016 03F0FB03 		and	r3, r3, #251
 143 001a 2B70     		strb	r3, [r5]
 220:.\Generated_Source\PSoC5/Camera_I2C_PM.c ****         CyExitCriticalSection(intState);
 144              		.loc 1 220 0
 145 001c FFF7FEFF 		bl	CyExitCriticalSection
 146              	.LVL3:
 221:.\Generated_Source\PSoC5/Camera_I2C_PM.c **** 
 222:.\Generated_Source\PSoC5/Camera_I2C_PM.c ****         /* Restore master */
 223:.\Generated_Source\PSoC5/Camera_I2C_PM.c ****         Camera_I2C_CFG_REG = Camera_I2C_backup.cfg;
 147              		.loc 1 223 0
 148 0020 A378     		ldrb	r3, [r4, #2]	@ zero_extendqisi2
 149 0022 3370     		strb	r3, [r6]
 150 0024 70BD     		pop	{r4, r5, r6, pc}
 151              	.L13:
 152              	.LBE5:
 153              	.LBE4:
 224:.\Generated_Source\PSoC5/Camera_I2C_PM.c ****     }
 225:.\Generated_Source\PSoC5/Camera_I2C_PM.c ****     else
 226:.\Generated_Source\PSoC5/Camera_I2C_PM.c ****     /* Low power mode was Hibernate - backup regulator is disabled. All registers are cleared */
 227:.\Generated_Source\PSoC5/Camera_I2C_PM.c ****     {
 228:.\Generated_Source\PSoC5/Camera_I2C_PM.c ****     #if (Camera_I2C_WAKEUP_ENABLED)
 229:.\Generated_Source\PSoC5/Camera_I2C_PM.c ****         /* Disable power to block before register restore */
 230:.\Generated_Source\PSoC5/Camera_I2C_PM.c ****         intState = CyEnterCriticalSection();
 231:.\Generated_Source\PSoC5/Camera_I2C_PM.c ****         Camera_I2C_ACT_PWRMGR_REG  &= (uint8) ~Camera_I2C_ACT_PWR_EN;
 232:.\Generated_Source\PSoC5/Camera_I2C_PM.c ****         Camera_I2C_STBY_PWRMGR_REG &= (uint8) ~Camera_I2C_STBY_PWR_EN;
 233:.\Generated_Source\PSoC5/Camera_I2C_PM.c ****         CyExitCriticalSection(intState);
 234:.\Generated_Source\PSoC5/Camera_I2C_PM.c **** 
 235:.\Generated_Source\PSoC5/Camera_I2C_PM.c ****         /* Enable component in I2C_Wakeup() after register restore */
 236:.\Generated_Source\PSoC5/Camera_I2C_PM.c ****         Camera_I2C_backup.enableState = Camera_I2C_ENABLE;
 237:.\Generated_Source\PSoC5/Camera_I2C_PM.c ****     #endif /* (Camera_I2C_WAKEUP_ENABLED) */
 238:.\Generated_Source\PSoC5/Camera_I2C_PM.c **** 
 239:.\Generated_Source\PSoC5/Camera_I2C_PM.c ****         /* Restore component registers after Hibernate */
 240:.\Generated_Source\PSoC5/Camera_I2C_PM.c ****         Camera_I2C_XCFG_REG    = Camera_I2C_backup.xcfg;
 154              		.loc 1 240 0
 155 0026 6278     		ldrb	r2, [r4, #1]	@ zero_extendqisi2
 156 0028 084B     		ldr	r3, .L15+12
 157 002a 1A70     		strb	r2, [r3]
 241:.\Generated_Source\PSoC5/Camera_I2C_PM.c ****         Camera_I2C_CFG_REG     = Camera_I2C_backup.cfg;
ARM GAS  D:\TEMP\ccD1ch0r.s 			page 8


 158              		.loc 1 241 0
 159 002c A378     		ldrb	r3, [r4, #2]	@ zero_extendqisi2
 160 002e 3370     		strb	r3, [r6]
 242:.\Generated_Source\PSoC5/Camera_I2C_PM.c ****         Camera_I2C_ADDR_REG    = Camera_I2C_backup.addr;
 161              		.loc 1 242 0
 162 0030 E278     		ldrb	r2, [r4, #3]	@ zero_extendqisi2
 163 0032 074B     		ldr	r3, .L15+16
 164 0034 1A70     		strb	r2, [r3]
 243:.\Generated_Source\PSoC5/Camera_I2C_PM.c ****         Camera_I2C_CLKDIV1_REG = Camera_I2C_backup.clkDiv1;
 165              		.loc 1 243 0
 166 0036 2279     		ldrb	r2, [r4, #4]	@ zero_extendqisi2
 167 0038 5A74     		strb	r2, [r3, #17]
 244:.\Generated_Source\PSoC5/Camera_I2C_PM.c ****         Camera_I2C_CLKDIV2_REG = Camera_I2C_backup.clkDiv2;
 168              		.loc 1 244 0
 169 003a 6279     		ldrb	r2, [r4, #5]	@ zero_extendqisi2
 170 003c 9A74     		strb	r2, [r3, #18]
 171 003e 70BD     		pop	{r4, r5, r6, pc}
 172              	.L16:
 173              		.align	2
 174              	.L15:
 175 0040 31430040 		.word	1073759025
 176 0044 00000000 		.word	.LANCHOR0
 177 0048 D6490040 		.word	1073760726
 178 004c C8490040 		.word	1073760712
 179 0050 CA490040 		.word	1073760714
 180              		.cfi_endproc
 181              	.LFE2:
 182              		.size	Camera_I2C_RestoreConfig, .-Camera_I2C_RestoreConfig
 183              		.section	.text.Camera_I2C_Wakeup,"ax",%progbits
 184              		.align	1
 185              		.global	Camera_I2C_Wakeup
 186              		.thumb
 187              		.thumb_func
 188              		.type	Camera_I2C_Wakeup, %function
 189              	Camera_I2C_Wakeup:
 190              	.LFB3:
 245:.\Generated_Source\PSoC5/Camera_I2C_PM.c ****     }
 246:.\Generated_Source\PSoC5/Camera_I2C_PM.c **** 
 247:.\Generated_Source\PSoC5/Camera_I2C_PM.c **** #if (Camera_I2C_WAKEUP_ENABLED)
 248:.\Generated_Source\PSoC5/Camera_I2C_PM.c ****     Camera_I2C_DisableInt();
 249:.\Generated_Source\PSoC5/Camera_I2C_PM.c ****     (void) CyIntSetVector(Camera_I2C_ISR_NUMBER, &Camera_I2C_ISR);
 250:.\Generated_Source\PSoC5/Camera_I2C_PM.c ****     if (0u != Camera_I2C_wakeupSource)
 251:.\Generated_Source\PSoC5/Camera_I2C_PM.c ****     {
 252:.\Generated_Source\PSoC5/Camera_I2C_PM.c ****         /* Generate interrupt to process incoming transaction */
 253:.\Generated_Source\PSoC5/Camera_I2C_PM.c ****         Camera_I2C_SetPendingInt();
 254:.\Generated_Source\PSoC5/Camera_I2C_PM.c ****     }
 255:.\Generated_Source\PSoC5/Camera_I2C_PM.c ****     Camera_I2C_EnableInt();
 256:.\Generated_Source\PSoC5/Camera_I2C_PM.c **** #endif /* (Camera_I2C_WAKEUP_ENABLED) */
 257:.\Generated_Source\PSoC5/Camera_I2C_PM.c **** 
 258:.\Generated_Source\PSoC5/Camera_I2C_PM.c **** #else
 259:.\Generated_Source\PSoC5/Camera_I2C_PM.c ****     Camera_I2C_CFG_REG = Camera_I2C_backup.control;
 260:.\Generated_Source\PSoC5/Camera_I2C_PM.c **** #endif /* (Camera_I2C_FF_IMPLEMENTED) */
 261:.\Generated_Source\PSoC5/Camera_I2C_PM.c **** 
 262:.\Generated_Source\PSoC5/Camera_I2C_PM.c **** #if (Camera_I2C_TIMEOUT_ENABLED)
 263:.\Generated_Source\PSoC5/Camera_I2C_PM.c ****     Camera_I2C_TimeoutRestoreConfig();
 264:.\Generated_Source\PSoC5/Camera_I2C_PM.c **** #endif /* (Camera_I2C_TIMEOUT_ENABLED) */
 265:.\Generated_Source\PSoC5/Camera_I2C_PM.c **** }
ARM GAS  D:\TEMP\ccD1ch0r.s 			page 9


 266:.\Generated_Source\PSoC5/Camera_I2C_PM.c **** 
 267:.\Generated_Source\PSoC5/Camera_I2C_PM.c **** 
 268:.\Generated_Source\PSoC5/Camera_I2C_PM.c **** /*******************************************************************************
 269:.\Generated_Source\PSoC5/Camera_I2C_PM.c **** * Function Name: Camera_I2C_Wakeup
 270:.\Generated_Source\PSoC5/Camera_I2C_PM.c **** ********************************************************************************
 271:.\Generated_Source\PSoC5/Camera_I2C_PM.c **** *
 272:.\Generated_Source\PSoC5/Camera_I2C_PM.c **** * Summary:
 273:.\Generated_Source\PSoC5/Camera_I2C_PM.c **** *  This is the preferred method to prepare the component for active mode
 274:.\Generated_Source\PSoC5/Camera_I2C_PM.c **** *  operation (when device exits sleep mode). The Enable wakeup from Sleep Mode
 275:.\Generated_Source\PSoC5/Camera_I2C_PM.c **** *  selection influences this function implementation:
 276:.\Generated_Source\PSoC5/Camera_I2C_PM.c **** *   Unchecked: Restores the component non-retention configuration registers
 277:.\Generated_Source\PSoC5/Camera_I2C_PM.c **** *              by calling I2C_RestoreConfig(). If the component was enabled
 278:.\Generated_Source\PSoC5/Camera_I2C_PM.c **** *              before the I2C_Sleep() function was called, I2C_Wakeup()
 279:.\Generated_Source\PSoC5/Camera_I2C_PM.c **** *              re-enables it.
 280:.\Generated_Source\PSoC5/Camera_I2C_PM.c **** *   Checked:   Enables  master functionality if it was enabled before sleep,
 281:.\Generated_Source\PSoC5/Camera_I2C_PM.c **** *              and disables the backup regulator of the I2C hardware.
 282:.\Generated_Source\PSoC5/Camera_I2C_PM.c **** *              The incoming transaction continues as soon as the regular
 283:.\Generated_Source\PSoC5/Camera_I2C_PM.c **** *              I2C interrupt handler is set up (global interrupts has to be
 284:.\Generated_Source\PSoC5/Camera_I2C_PM.c **** *              enabled to service I2C component interrupt).
 285:.\Generated_Source\PSoC5/Camera_I2C_PM.c **** *
 286:.\Generated_Source\PSoC5/Camera_I2C_PM.c **** * Parameters:
 287:.\Generated_Source\PSoC5/Camera_I2C_PM.c **** *  None.
 288:.\Generated_Source\PSoC5/Camera_I2C_PM.c **** *
 289:.\Generated_Source\PSoC5/Camera_I2C_PM.c **** * Return:
 290:.\Generated_Source\PSoC5/Camera_I2C_PM.c **** *  None.
 291:.\Generated_Source\PSoC5/Camera_I2C_PM.c **** *
 292:.\Generated_Source\PSoC5/Camera_I2C_PM.c **** * Reentrant:
 293:.\Generated_Source\PSoC5/Camera_I2C_PM.c **** *  No.
 294:.\Generated_Source\PSoC5/Camera_I2C_PM.c **** *
 295:.\Generated_Source\PSoC5/Camera_I2C_PM.c **** * Side Effects:
 296:.\Generated_Source\PSoC5/Camera_I2C_PM.c **** *  Calling this function before Camera_I2C_SaveConfig() or
 297:.\Generated_Source\PSoC5/Camera_I2C_PM.c **** *  Camera_I2C_Sleep() will lead to unpredictable results.
 298:.\Generated_Source\PSoC5/Camera_I2C_PM.c **** *
 299:.\Generated_Source\PSoC5/Camera_I2C_PM.c **** *******************************************************************************/
 300:.\Generated_Source\PSoC5/Camera_I2C_PM.c **** void Camera_I2C_Wakeup(void) 
 301:.\Generated_Source\PSoC5/Camera_I2C_PM.c **** {
 191              		.loc 1 301 0
 192              		.cfi_startproc
 193              		@ args = 0, pretend = 0, frame = 0
 194              		@ frame_needed = 0, uses_anonymous_args = 0
 195 0000 08B5     		push	{r3, lr}
 196              		.cfi_def_cfa_offset 8
 197              		.cfi_offset 3, -8
 198              		.cfi_offset 14, -4
 302:.\Generated_Source\PSoC5/Camera_I2C_PM.c ****     Camera_I2C_RestoreConfig();
 199              		.loc 1 302 0
 200 0002 FFF7FEFF 		bl	Camera_I2C_RestoreConfig
 201              	.LVL4:
 303:.\Generated_Source\PSoC5/Camera_I2C_PM.c **** 
 304:.\Generated_Source\PSoC5/Camera_I2C_PM.c ****     /* Restore component enable state */
 305:.\Generated_Source\PSoC5/Camera_I2C_PM.c ****     if (0u != Camera_I2C_backup.enableState)
 202              		.loc 1 305 0
 203 0006 054B     		ldr	r3, .L22
 204 0008 1B78     		ldrb	r3, [r3]	@ zero_extendqisi2
 205 000a 2BB1     		cbz	r3, .L17
 306:.\Generated_Source\PSoC5/Camera_I2C_PM.c ****     {
 307:.\Generated_Source\PSoC5/Camera_I2C_PM.c ****         Camera_I2C_Enable();
ARM GAS  D:\TEMP\ccD1ch0r.s 			page 10


 206              		.loc 1 307 0
 207 000c FFF7FEFF 		bl	Camera_I2C_Enable
 208              	.LVL5:
 308:.\Generated_Source\PSoC5/Camera_I2C_PM.c ****         Camera_I2C_EnableInt();
 209              		.loc 1 308 0
 210 0010 034B     		ldr	r3, .L22+4
 211 0012 4FF40042 		mov	r2, #32768
 212 0016 1A60     		str	r2, [r3]
 213              	.L17:
 214 0018 08BD     		pop	{r3, pc}
 215              	.L23:
 216 001a 00BF     		.align	2
 217              	.L22:
 218 001c 00000000 		.word	.LANCHOR0
 219 0020 00E100E0 		.word	-536813312
 220              		.cfi_endproc
 221              	.LFE3:
 222              		.size	Camera_I2C_Wakeup, .-Camera_I2C_Wakeup
 223              		.global	Camera_I2C_backup
 224              		.data
 225              		.set	.LANCHOR0,. + 0
 226              		.type	Camera_I2C_backup, %object
 227              		.size	Camera_I2C_backup, 6
 228              	Camera_I2C_backup:
 229 0000 00       		.byte	0
 230 0001 81       		.byte	-127
 231 0002 02       		.byte	2
 232 0003 08       		.byte	8
 233 0004 0C       		.byte	12
 234 0005 00       		.byte	0
 235              		.text
 236              	.Letext0:
 237              		.file 2 ".\\Generated_Source\\PSoC5\\cytypes.h"
 238              		.file 3 ".\\Generated_Source\\PSoC5\\Camera_I2C.h"
 239              		.file 4 ".\\Generated_Source\\PSoC5\\CyLib.h"