ARM GAS  D:\TEMP\cciNwpvw.s 			page 1


   1              		.syntax unified
   2              		.cpu cortex-m3
   3              		.fpu softvfp
   4              		.eabi_attribute 20, 1
   5              		.eabi_attribute 21, 1
   6              		.eabi_attribute 23, 3
   7              		.eabi_attribute 24, 1
   8              		.eabi_attribute 25, 1
   9              		.eabi_attribute 26, 1
  10              		.eabi_attribute 30, 4
  11              		.eabi_attribute 34, 1
  12              		.eabi_attribute 18, 4
  13              		.thumb
  14              		.file	"Camera.c"
  15              		.text
  16              	.Ltext0:
  17              		.cfi_sections	.debug_frame
  18              		.section	.text.Camera_WriteReg,"ax",%progbits
  19              		.align	1
  20              		.global	Camera_WriteReg
  21              		.thumb
  22              		.thumb_func
  23              		.type	Camera_WriteReg, %function
  24              	Camera_WriteReg:
  25              	.LFB63:
  26              		.file 1 ".\\Generated_Source\\PSoC5\\Camera.c"
   1:.\Generated_Source\PSoC5/Camera.c **** #include "Camera.h"
   2:.\Generated_Source\PSoC5/Camera.c **** 
   3:.\Generated_Source\PSoC5/Camera.c **** extern const uint8 Camera_settings[][2];
   4:.\Generated_Source\PSoC5/Camera.c **** extern const uint8 Camera_format[];
   5:.\Generated_Source\PSoC5/Camera.c **** extern const uint8 Camera_sxga[];
   6:.\Generated_Source\PSoC5/Camera.c **** extern const uint8 Camera_vga[];
   7:.\Generated_Source\PSoC5/Camera.c **** extern const uint8 Camera_qvga[];
   8:.\Generated_Source\PSoC5/Camera.c **** extern const uint8 Camera_cif[];
   9:.\Generated_Source\PSoC5/Camera.c **** extern const uint8 Camera_qcif[];
  10:.\Generated_Source\PSoC5/Camera.c **** 
  11:.\Generated_Source\PSoC5/Camera.c **** static uint8 DMA_channel,DMA_TD;
  12:.\Generated_Source\PSoC5/Camera.c **** 
  13:.\Generated_Source\PSoC5/Camera.c **** void Camera_WriteReg(const uint8 reg,const uint8 value)
  14:.\Generated_Source\PSoC5/Camera.c **** {
  27              		.loc 1 14 0
  28              		.cfi_startproc
  29              		@ args = 0, pretend = 0, frame = 0
  30              		@ frame_needed = 0, uses_anonymous_args = 0
  31              	.LVL0:
  32 0000 38B5     		push	{r3, r4, r5, lr}
  33              		.cfi_def_cfa_offset 16
  34              		.cfi_offset 3, -16
  35              		.cfi_offset 4, -12
  36              		.cfi_offset 5, -8
  37              		.cfi_offset 14, -4
  38 0002 0546     		mov	r5, r0
  39 0004 0C46     		mov	r4, r1
  40              	.LVL1:
  41              	.L2:
  15:.\Generated_Source\PSoC5/Camera.c **** 	while(Camera_I2C_MasterSendStart(0x30,0)!=Camera_I2C_MSTR_NO_ERROR);
  42              		.loc 1 15 0 discriminator 1
ARM GAS  D:\TEMP\cciNwpvw.s 			page 2


  43 0006 3020     		movs	r0, #48
  44 0008 0021     		movs	r1, #0
  45 000a FFF7FEFF 		bl	Camera_I2C_MasterSendStart
  46              	.LVL2:
  47 000e 0028     		cmp	r0, #0
  48 0010 F9D1     		bne	.L2
  16:.\Generated_Source\PSoC5/Camera.c ****     Camera_I2C_MasterWriteByte(reg);
  49              		.loc 1 16 0
  50 0012 2846     		mov	r0, r5
  51 0014 FFF7FEFF 		bl	Camera_I2C_MasterWriteByte
  52              	.LVL3:
  17:.\Generated_Source\PSoC5/Camera.c ****     Camera_I2C_MasterWriteByte(value);
  53              		.loc 1 17 0
  54 0018 2046     		mov	r0, r4
  55 001a FFF7FEFF 		bl	Camera_I2C_MasterWriteByte
  56              	.LVL4:
  18:.\Generated_Source\PSoC5/Camera.c ****     Camera_I2C_MasterSendStop();
  19:.\Generated_Source\PSoC5/Camera.c **** }
  57              		.loc 1 19 0
  58 001e BDE83840 		pop	{r3, r4, r5, lr}
  59              		.cfi_restore 14
  60              		.cfi_restore 5
  61              		.cfi_restore 4
  62              		.cfi_restore 3
  63              		.cfi_def_cfa_offset 0
  18:.\Generated_Source\PSoC5/Camera.c ****     Camera_I2C_MasterSendStop();
  64              		.loc 1 18 0
  65 0022 FFF7FEBF 		b	Camera_I2C_MasterSendStop
  66              	.LVL5:
  67              		.cfi_endproc
  68              	.LFE63:
  69              		.size	Camera_WriteReg, .-Camera_WriteReg
  70              		.section	.text.Camera_ReadReg,"ax",%progbits
  71              		.align	1
  72              		.global	Camera_ReadReg
  73              		.thumb
  74              		.thumb_func
  75              		.type	Camera_ReadReg, %function
  76              	Camera_ReadReg:
  77              	.LFB64:
  20:.\Generated_Source\PSoC5/Camera.c **** 
  21:.\Generated_Source\PSoC5/Camera.c **** uint8 Camera_ReadReg(const uint8 reg)
  22:.\Generated_Source\PSoC5/Camera.c **** {
  78              		.loc 1 22 0
  79              		.cfi_startproc
  80              		@ args = 0, pretend = 0, frame = 0
  81              		@ frame_needed = 0, uses_anonymous_args = 0
  82              	.LVL6:
  83 0000 10B5     		push	{r4, lr}
  84              		.cfi_def_cfa_offset 8
  85              		.cfi_offset 4, -8
  86              		.cfi_offset 14, -4
  87 0002 0446     		mov	r4, r0
  88              	.LVL7:
  89              	.L6:
  23:.\Generated_Source\PSoC5/Camera.c **** 	while(Camera_I2C_MasterSendStart(0x30,0)!=Camera_I2C_MSTR_NO_ERROR);
  90              		.loc 1 23 0 discriminator 1
ARM GAS  D:\TEMP\cciNwpvw.s 			page 3


  91 0004 3020     		movs	r0, #48
  92 0006 0021     		movs	r1, #0
  93 0008 FFF7FEFF 		bl	Camera_I2C_MasterSendStart
  94              	.LVL8:
  95 000c 0028     		cmp	r0, #0
  96 000e F9D1     		bne	.L6
  24:.\Generated_Source\PSoC5/Camera.c ****     Camera_I2C_MasterWriteByte(reg);
  97              		.loc 1 24 0
  98 0010 2046     		mov	r0, r4
  99 0012 FFF7FEFF 		bl	Camera_I2C_MasterWriteByte
 100              	.LVL9:
  25:.\Generated_Source\PSoC5/Camera.c ****     Camera_I2C_MasterSendStop();
 101              		.loc 1 25 0
 102 0016 FFF7FEFF 		bl	Camera_I2C_MasterSendStop
 103              	.LVL10:
 104              	.L7:
  26:.\Generated_Source\PSoC5/Camera.c **** 	
  27:.\Generated_Source\PSoC5/Camera.c **** 	while(Camera_I2C_MasterSendStart(0x30,1)!=Camera_I2C_MSTR_NO_ERROR);
 105              		.loc 1 27 0 discriminator 1
 106 001a 3020     		movs	r0, #48
 107 001c 0121     		movs	r1, #1
 108 001e FFF7FEFF 		bl	Camera_I2C_MasterSendStart
 109              	.LVL11:
 110 0022 0028     		cmp	r0, #0
 111 0024 F9D1     		bne	.L7
  28:.\Generated_Source\PSoC5/Camera.c ****     uint8 value=Camera_I2C_MasterReadByte(Camera_I2C_NAK_DATA);
 112              		.loc 1 28 0
 113 0026 FFF7FEFF 		bl	Camera_I2C_MasterReadByte
 114              	.LVL12:
 115 002a 0446     		mov	r4, r0
 116              	.LVL13:
  29:.\Generated_Source\PSoC5/Camera.c ****     Camera_I2C_MasterSendStop();
 117              		.loc 1 29 0
 118 002c FFF7FEFF 		bl	Camera_I2C_MasterSendStop
 119              	.LVL14:
  30:.\Generated_Source\PSoC5/Camera.c **** 	return value;
  31:.\Generated_Source\PSoC5/Camera.c **** }
 120              		.loc 1 31 0
 121 0030 2046     		mov	r0, r4
 122 0032 10BD     		pop	{r4, pc}
 123              		.cfi_endproc
 124              	.LFE64:
 125              		.size	Camera_ReadReg, .-Camera_ReadReg
 126              		.section	.text.Camera_SyncFrame,"ax",%progbits
 127              		.align	1
 128              		.global	Camera_SyncFrame
 129              		.thumb
 130              		.thumb_func
 131              		.type	Camera_SyncFrame, %function
 132              	Camera_SyncFrame:
 133              	.LFB65:
  32:.\Generated_Source\PSoC5/Camera.c **** 
  33:.\Generated_Source\PSoC5/Camera.c **** void Camera_SyncFrame()
  34:.\Generated_Source\PSoC5/Camera.c **** {
 134              		.loc 1 34 0
 135              		.cfi_startproc
 136              		@ args = 0, pretend = 0, frame = 0
ARM GAS  D:\TEMP\cciNwpvw.s 			page 4


 137              		@ frame_needed = 0, uses_anonymous_args = 0
 138 0000 08B5     		push	{r3, lr}
 139              		.cfi_def_cfa_offset 8
 140              		.cfi_offset 3, -8
 141              		.cfi_offset 14, -4
 142              	.L11:
  35:.\Generated_Source\PSoC5/Camera.c **** 	while(Camera_VSYNC_Read());
 143              		.loc 1 35 0 discriminator 1
 144 0002 FFF7FEFF 		bl	Camera_VSYNC_Read
 145              	.LVL15:
 146 0006 0028     		cmp	r0, #0
 147 0008 FBD1     		bne	.L11
 148              	.L12:
  36:.\Generated_Source\PSoC5/Camera.c **** 	while(!Camera_VSYNC_Read());
 149              		.loc 1 36 0 discriminator 1
 150 000a FFF7FEFF 		bl	Camera_VSYNC_Read
 151              	.LVL16:
 152 000e 0028     		cmp	r0, #0
 153 0010 FBD0     		beq	.L12
  37:.\Generated_Source\PSoC5/Camera.c **** }
 154              		.loc 1 37 0
 155 0012 08BD     		pop	{r3, pc}
 156              		.cfi_endproc
 157              	.LFE65:
 158              		.size	Camera_SyncFrame, .-Camera_SyncFrame
 159              		.section	.text.Camera_Start,"ax",%progbits
 160              		.align	1
 161              		.global	Camera_Start
 162              		.thumb
 163              		.thumb_func
 164              		.type	Camera_Start, %function
 165              	Camera_Start:
 166              	.LFB66:
  38:.\Generated_Source\PSoC5/Camera.c **** 
  39:.\Generated_Source\PSoC5/Camera.c **** void Camera_Start()
  40:.\Generated_Source\PSoC5/Camera.c **** {
 167              		.loc 1 40 0
 168              		.cfi_startproc
 169              		@ args = 0, pretend = 0, frame = 0
 170              		@ frame_needed = 0, uses_anonymous_args = 0
 171 0000 38B5     		push	{r3, r4, r5, lr}
 172              		.cfi_def_cfa_offset 16
 173              		.cfi_offset 3, -16
 174              		.cfi_offset 4, -12
 175              		.cfi_offset 5, -8
 176              		.cfi_offset 14, -4
  41:.\Generated_Source\PSoC5/Camera.c **** 	//Camera_SIOD_SetDriveMode(Camera_SIOD_DM_RES_UP); //turn on pull-up resistors on I2C pins
  42:.\Generated_Source\PSoC5/Camera.c **** 	//Camera_SIOC_SetDriveMode(Camera_SIOC_DM_RES_UP);
  43:.\Generated_Source\PSoC5/Camera.c **** 	Camera_I2C_Start();
 177              		.loc 1 43 0
 178 0002 FFF7FEFF 		bl	Camera_I2C_Start
 179              	.LVL17:
  44:.\Generated_Source\PSoC5/Camera.c **** 	
  45:.\Generated_Source\PSoC5/Camera.c **** 	Camera_WriteReg(0x12,0x80); //reset
 180              		.loc 1 45 0
 181 0006 1220     		movs	r0, #18
 182 0008 8021     		movs	r1, #128
ARM GAS  D:\TEMP\cciNwpvw.s 			page 5


 183 000a FFF7FEFF 		bl	Camera_WriteReg
 184              	.LVL18:
  46:.\Generated_Source\PSoC5/Camera.c **** 	CyDelay(1);
 185              		.loc 1 46 0
 186 000e 0120     		movs	r0, #1
 187 0010 FFF7FEFF 		bl	CyDelay
 188              	.LVL19:
  47:.\Generated_Source\PSoC5/Camera.c **** 	uint16 i;
  48:.\Generated_Source\PSoC5/Camera.c **** 	for(i=0;Camera_settings[i][0]!=0xff;i++) Camera_WriteReg(Camera_settings[i][0],Camera_settings[i][
 189              		.loc 1 48 0
 190 0014 0024     		movs	r4, #0
 191              	.LVL20:
 192              	.L17:
 193              		.loc 1 48 0 is_stmt 0 discriminator 1
 194 0016 484B     		ldr	r3, .L23
 195 0018 A2B2     		uxth	r2, r4
 196              	.LVL21:
 197 001a 13F81200 		ldrb	r0, [r3, r2, lsl #1]	@ zero_extendqisi2
 198 001e 0134     		adds	r4, r4, #1
 199 0020 FF28     		cmp	r0, #255
 200 0022 05D0     		beq	.L21
 201              		.loc 1 48 0 discriminator 3
 202 0024 03EB4203 		add	r3, r3, r2, lsl #1
 203 0028 5978     		ldrb	r1, [r3, #1]	@ zero_extendqisi2
 204 002a FFF7FEFF 		bl	Camera_WriteReg
 205              	.LVL22:
 206 002e F2E7     		b	.L17
 207              	.LVL23:
 208              	.L21:
 209 0030 0024     		movs	r4, #0
 210              	.LVL24:
 211              	.L19:
  49:.\Generated_Source\PSoC5/Camera.c **** 	for(i=0;Camera_format[i]!=0xff;i++) Camera_WriteReg(Camera_format[i],Camera_qvga[i]); //qvga forma
 212              		.loc 1 49 0 is_stmt 1 discriminator 1
 213 0032 424A     		ldr	r2, .L23+4
 214 0034 A3B2     		uxth	r3, r4
 215              	.LVL25:
 216 0036 D05C     		ldrb	r0, [r2, r3]	@ zero_extendqisi2
 217 0038 0134     		adds	r4, r4, #1
 218 003a FF28     		cmp	r0, #255
 219 003c 04D0     		beq	.L22
 220              		.loc 1 49 0 is_stmt 0 discriminator 3
 221 003e 404A     		ldr	r2, .L23+8
 222 0040 D15C     		ldrb	r1, [r2, r3]	@ zero_extendqisi2
 223 0042 FFF7FEFF 		bl	Camera_WriteReg
 224              	.LVL26:
 225 0046 F4E7     		b	.L19
 226              	.LVL27:
 227              	.L22:
  50:.\Generated_Source\PSoC5/Camera.c **** 	
  51:.\Generated_Source\PSoC5/Camera.c **** 	DMA_channel=Camera_DMA_DmaInitialize(1,1,HI16(CYDEV_PERIPH_BASE),HI16(CYDEV_SRAM_BASE)); //periphe
 228              		.loc 1 51 0 is_stmt 1
 229 0048 0120     		movs	r0, #1
 230 004a 41F6FF73 		movw	r3, #8191
 231              	.LVL28:
 232 004e 0146     		mov	r1, r0
 233 0050 4FF48042 		mov	r2, #16384
ARM GAS  D:\TEMP\cciNwpvw.s 			page 6


 234 0054 FFF7FEFF 		bl	Camera_DMA_DmaInitialize
 235              	.LVL29:
 236 0058 3A4C     		ldr	r4, .L23+12
  52:.\Generated_Source\PSoC5/Camera.c **** 	DMA_TD=CyDmaTdAllocate();
  53:.\Generated_Source\PSoC5/Camera.c ****     CyDmaTdSetAddress(DMA_TD,LO16(Camera_FIFO_dp__F0_REG),LO16((uint32)Camera_linebuffer));
 237              		.loc 1 53 0
 238 005a 3B4D     		ldr	r5, .L23+16
  51:.\Generated_Source\PSoC5/Camera.c **** 	DMA_TD=CyDmaTdAllocate();
 239              		.loc 1 51 0
 240 005c 2070     		strb	r0, [r4]
  52:.\Generated_Source\PSoC5/Camera.c **** 	DMA_TD=CyDmaTdAllocate();
 241              		.loc 1 52 0
 242 005e FFF7FEFF 		bl	CyDmaTdAllocate
 243              	.LVL30:
 244              		.loc 1 53 0
 245 0062 ADB2     		uxth	r5, r5
 246 0064 2A46     		mov	r2, r5
 247 0066 46F24741 		movw	r1, #25671
  52:.\Generated_Source\PSoC5/Camera.c **** 	DMA_TD=CyDmaTdAllocate();
 248              		.loc 1 52 0
 249 006a 6070     		strb	r0, [r4, #1]
 250              		.loc 1 53 0
 251 006c FFF7FEFF 		bl	CyDmaTdSetAddress
 252              	.LVL31:
  54:.\Generated_Source\PSoC5/Camera.c ****     CyDmaTdSetConfiguration(DMA_TD,sizeof(Camera_linebuffer),DMA_TD,TD_INC_DST_ADR|Camera_DMA__TD_T
 253              		.loc 1 54 0
 254 0070 6078     		ldrb	r0, [r4, #1]	@ zero_extendqisi2
 255 0072 0623     		movs	r3, #6
 256 0074 0246     		mov	r2, r0
 257 0076 4FF42071 		mov	r1, #640
 258 007a FFF7FEFF 		bl	CyDmaTdSetConfiguration
 259              	.LVL32:
  55:.\Generated_Source\PSoC5/Camera.c **** 	CyDmaChPriority(DMA_channel,0); //ensure highest priority for DMA channel
 260              		.loc 1 55 0
 261 007e 0021     		movs	r1, #0
 262 0080 2078     		ldrb	r0, [r4]	@ zero_extendqisi2
 263 0082 FFF7FEFF 		bl	CyDmaChPriority
 264              	.LVL33:
  56:.\Generated_Source\PSoC5/Camera.c **** 
  57:.\Generated_Source\PSoC5/Camera.c ****     Camera_end_line_StartEx(Camera_end_line);
 265              		.loc 1 57 0
 266 0086 3148     		ldr	r0, .L23+20
 267 0088 FFF7FEFF 		bl	Camera_end_line_StartEx
 268              	.LVL34:
  58:.\Generated_Source\PSoC5/Camera.c ****     
  59:.\Generated_Source\PSoC5/Camera.c **** 	*(reg8*)Camera_FIFO_dp__F0_REG;
 269              		.loc 1 59 0
 270 008c 304B     		ldr	r3, .L23+24
  60:.\Generated_Source\PSoC5/Camera.c **** 	*(reg8*)Camera_FIFO_dp__F0_REG;
  61:.\Generated_Source\PSoC5/Camera.c **** 	*(reg8*)Camera_FIFO_dp__F0_REG;
  62:.\Generated_Source\PSoC5/Camera.c **** 	*(reg8*)Camera_FIFO_dp__F0_REG; //clear fifo
  63:.\Generated_Source\PSoC5/Camera.c **** 	CyDmaClearPendingDrq(DMA_channel); //invalidate pending requests
 271              		.loc 1 63 0
 272 008e 2078     		ldrb	r0, [r4]	@ zero_extendqisi2
  59:.\Generated_Source\PSoC5/Camera.c **** 	*(reg8*)Camera_FIFO_dp__F0_REG;
 273              		.loc 1 59 0
 274 0090 1A78     		ldrb	r2, [r3]	@ zero_extendqisi2
ARM GAS  D:\TEMP\cciNwpvw.s 			page 7


  60:.\Generated_Source\PSoC5/Camera.c **** 	*(reg8*)Camera_FIFO_dp__F0_REG;
 275              		.loc 1 60 0
 276 0092 1A78     		ldrb	r2, [r3]	@ zero_extendqisi2
  61:.\Generated_Source\PSoC5/Camera.c **** 	*(reg8*)Camera_FIFO_dp__F0_REG; //clear fifo
 277              		.loc 1 61 0
 278 0094 1A78     		ldrb	r2, [r3]	@ zero_extendqisi2
  62:.\Generated_Source\PSoC5/Camera.c **** 	CyDmaClearPendingDrq(DMA_channel); //invalidate pending requests
 279              		.loc 1 62 0
 280 0096 1B78     		ldrb	r3, [r3]	@ zero_extendqisi2
 281              		.loc 1 63 0
 282 0098 FFF7FEFF 		bl	CyDmaClearPendingDrq
 283              	.LVL35:
  64:.\Generated_Source\PSoC5/Camera.c **** 	CyDmaChSetInitialTd(DMA_channel,DMA_TD); //set initial TD
 284              		.loc 1 64 0
 285 009c 6178     		ldrb	r1, [r4, #1]	@ zero_extendqisi2
 286 009e 2078     		ldrb	r0, [r4]	@ zero_extendqisi2
 287 00a0 FFF7FEFF 		bl	CyDmaChSetInitialTd
 288              	.LVL36:
  65:.\Generated_Source\PSoC5/Camera.c **** 	CyDmaChEnable(DMA_channel,1); //enable channel (start streaming)
 289              		.loc 1 65 0
 290 00a4 2078     		ldrb	r0, [r4]	@ zero_extendqisi2
 291 00a6 0121     		movs	r1, #1
 292 00a8 FFF7FEFF 		bl	CyDmaChEnable
 293              	.LVL37:
  66:.\Generated_Source\PSoC5/Camera.c ****     
  67:.\Generated_Source\PSoC5/Camera.c ****     
  68:.\Generated_Source\PSoC5/Camera.c ****     
  69:.\Generated_Source\PSoC5/Camera.c ****     Camera_R_Start();
 294              		.loc 1 69 0
 295 00ac 294A     		ldr	r2, .L23+28
  70:.\Generated_Source\PSoC5/Camera.c ****     Camera_G_Start();
  71:.\Generated_Source\PSoC5/Camera.c ****     Camera_B_Start();
  72:.\Generated_Source\PSoC5/Camera.c ****     Camera_M_Start();
  73:.\Generated_Source\PSoC5/Camera.c ****     
  74:.\Generated_Source\PSoC5/Camera.c ****     DMA_channel=Camera_DMA_Colours_DmaInitialize(1,1,HI16(CYDEV_PERIPH_BASE),HI16(CYDEV_SRAM_BASE))
 296              		.loc 1 74 0
 297 00ae 0120     		movs	r0, #1
  69:.\Generated_Source\PSoC5/Camera.c ****     Camera_G_Start();
 298              		.loc 1 69 0
 299 00b0 1378     		ldrb	r3, [r2]	@ zero_extendqisi2
 300              		.loc 1 74 0
 301 00b2 0146     		mov	r1, r0
  69:.\Generated_Source\PSoC5/Camera.c ****     Camera_G_Start();
 302              		.loc 1 69 0
 303 00b4 43F00103 		orr	r3, r3, #1
 304 00b8 1370     		strb	r3, [r2]
  70:.\Generated_Source\PSoC5/Camera.c ****     Camera_G_Start();
 305              		.loc 1 70 0
 306 00ba 6FF48273 		mvn	r3, #260
 307 00be 1A44     		add	r2, r2, r3
 308 00c0 1378     		ldrb	r3, [r2]	@ zero_extendqisi2
 309 00c2 43F00103 		orr	r3, r3, #1
 310 00c6 1370     		strb	r3, [r2]
  71:.\Generated_Source\PSoC5/Camera.c ****     Camera_M_Start();
 311              		.loc 1 71 0
 312 00c8 92F80631 		ldrb	r3, [r2, #262]	@ zero_extendqisi2
 313 00cc 43F00103 		orr	r3, r3, #1
ARM GAS  D:\TEMP\cciNwpvw.s 			page 8


 314 00d0 82F80631 		strb	r3, [r2, #262]
  72:.\Generated_Source\PSoC5/Camera.c ****     
 315              		.loc 1 72 0
 316 00d4 D379     		ldrb	r3, [r2, #7]	@ zero_extendqisi2
 317 00d6 43F00103 		orr	r3, r3, #1
 318 00da D371     		strb	r3, [r2, #7]
 319              		.loc 1 74 0
 320 00dc 41F6FF73 		movw	r3, #8191
 321 00e0 4FF48042 		mov	r2, #16384
 322 00e4 FFF7FEFF 		bl	Camera_DMA_Colours_DmaInitialize
 323              	.LVL38:
 324 00e8 2070     		strb	r0, [r4]
  75:.\Generated_Source\PSoC5/Camera.c **** 	DMA_TD=CyDmaTdAllocate();
 325              		.loc 1 75 0
 326 00ea FFF7FEFF 		bl	CyDmaTdAllocate
 327              	.LVL39:
  76:.\Generated_Source\PSoC5/Camera.c ****     CyDmaTdSetAddress(DMA_TD,LO16(Camera_FIFO_Colours_dp__F0_REG),LO16((uint32)Camera_linebuffer));
 328              		.loc 1 76 0
 329 00ee 2A46     		mov	r2, r5
 330 00f0 46F24B41 		movw	r1, #25675
  75:.\Generated_Source\PSoC5/Camera.c **** 	DMA_TD=CyDmaTdAllocate();
 331              		.loc 1 75 0
 332 00f4 6070     		strb	r0, [r4, #1]
 333              		.loc 1 76 0
 334 00f6 FFF7FEFF 		bl	CyDmaTdSetAddress
 335              	.LVL40:
  77:.\Generated_Source\PSoC5/Camera.c ****     CyDmaTdSetConfiguration(DMA_TD,sizeof(Camera_linebuffer)/4,DMA_TD,TD_INC_DST_ADR|Camera_DMA__TD
 336              		.loc 1 77 0
 337 00fa 6078     		ldrb	r0, [r4, #1]	@ zero_extendqisi2
 338 00fc 0623     		movs	r3, #6
 339 00fe 0246     		mov	r2, r0
 340 0100 A021     		movs	r1, #160
 341 0102 FFF7FEFF 		bl	CyDmaTdSetConfiguration
 342              	.LVL41:
  78:.\Generated_Source\PSoC5/Camera.c **** 	CyDmaChPriority(DMA_channel,0); //ensure highest priority for DMA channel
 343              		.loc 1 78 0
 344 0106 0021     		movs	r1, #0
 345 0108 2078     		ldrb	r0, [r4]	@ zero_extendqisi2
 346 010a FFF7FEFF 		bl	CyDmaChPriority
 347              	.LVL42:
  79:.\Generated_Source\PSoC5/Camera.c **** 
  80:.\Generated_Source\PSoC5/Camera.c ****     Camera_end_line_colours_StartEx(Camera_end_line);
 348              		.loc 1 80 0
 349 010e 0F48     		ldr	r0, .L23+20
 350 0110 FFF7FEFF 		bl	Camera_end_line_colours_StartEx
 351              	.LVL43:
  81:.\Generated_Source\PSoC5/Camera.c ****     
  82:.\Generated_Source\PSoC5/Camera.c **** 	*(reg8*)Camera_FIFO_Colours_dp__F0_REG;
 352              		.loc 1 82 0
 353 0114 104B     		ldr	r3, .L23+32
  83:.\Generated_Source\PSoC5/Camera.c **** 	*(reg8*)Camera_FIFO_Colours_dp__F0_REG;
  84:.\Generated_Source\PSoC5/Camera.c ****     *(reg8*)Camera_FIFO_Colours_dp__F0_REG;
  85:.\Generated_Source\PSoC5/Camera.c ****     *(reg8*)Camera_FIFO_Colours_dp__F0_REG; //clear fifo
  86:.\Generated_Source\PSoC5/Camera.c **** 	CyDmaClearPendingDrq(DMA_channel); //invalidate pending requests
 354              		.loc 1 86 0
 355 0116 2078     		ldrb	r0, [r4]	@ zero_extendqisi2
  82:.\Generated_Source\PSoC5/Camera.c **** 	*(reg8*)Camera_FIFO_Colours_dp__F0_REG;
ARM GAS  D:\TEMP\cciNwpvw.s 			page 9


 356              		.loc 1 82 0
 357 0118 1A78     		ldrb	r2, [r3]	@ zero_extendqisi2
  83:.\Generated_Source\PSoC5/Camera.c **** 	*(reg8*)Camera_FIFO_Colours_dp__F0_REG;
 358              		.loc 1 83 0
 359 011a 1A78     		ldrb	r2, [r3]	@ zero_extendqisi2
  84:.\Generated_Source\PSoC5/Camera.c ****     *(reg8*)Camera_FIFO_Colours_dp__F0_REG; //clear fifo
 360              		.loc 1 84 0
 361 011c 1A78     		ldrb	r2, [r3]	@ zero_extendqisi2
  85:.\Generated_Source\PSoC5/Camera.c **** 	CyDmaClearPendingDrq(DMA_channel); //invalidate pending requests
 362              		.loc 1 85 0
 363 011e 1B78     		ldrb	r3, [r3]	@ zero_extendqisi2
 364              		.loc 1 86 0
 365 0120 FFF7FEFF 		bl	CyDmaClearPendingDrq
 366              	.LVL44:
  87:.\Generated_Source\PSoC5/Camera.c **** 	CyDmaChSetInitialTd(DMA_channel,DMA_TD); //set initial TD
 367              		.loc 1 87 0
 368 0124 6178     		ldrb	r1, [r4, #1]	@ zero_extendqisi2
 369 0126 2078     		ldrb	r0, [r4]	@ zero_extendqisi2
 370 0128 FFF7FEFF 		bl	CyDmaChSetInitialTd
 371              	.LVL45:
  88:.\Generated_Source\PSoC5/Camera.c **** 	CyDmaChEnable(DMA_channel,1); //enable channel (start streaming)
 372              		.loc 1 88 0
 373 012c 2078     		ldrb	r0, [r4]	@ zero_extendqisi2
 374 012e 0121     		movs	r1, #1
  89:.\Generated_Source\PSoC5/Camera.c **** }...
 375              		.loc 1 89 0
 376 0130 BDE83840 		pop	{r3, r4, r5, lr}
 377              		.cfi_restore 14
 378              		.cfi_restore 5
 379              		.cfi_restore 4
 380              		.cfi_restore 3
 381              		.cfi_def_cfa_offset 0
  88:.\Generated_Source\PSoC5/Camera.c **** 	CyDmaChEnable(DMA_channel,1); //enable channel (start streaming)
 382              		.loc 1 88 0
 383 0134 FFF7FEBF 		b	CyDmaChEnable
 384              	.LVL46:
 385              	.L24:
 386              		.align	2
 387              	.L23:
 388 0138 00000000 		.word	Camera_settings
 389 013c 00000000 		.word	Camera_format
 390 0140 00000000 		.word	Camera_qvga
 391 0144 00000000 		.word	.LANCHOR0
 392 0148 00000000 		.word	Camera_linebuffer
 393 014c 00000000 		.word	Camera_end_line
 394 0150 47640040 		.word	1073767495
 395 0154 98650040 		.word	1073767832
 396 0158 4B640040 		.word	1073767499
 397              		.cfi_endproc
 398              	.LFE66:
 399              		.size	Camera_Start, .-Camera_Start
 400              		.comm	Camera_linebuffer,640,4
 401              		.bss
 402              		.set	.LANCHOR0,. + 0
 403              		.type	DMA_channel, %object
 404              		.size	DMA_channel, 1
 405              	DMA_channel:
ARM GAS  D:\TEMP\cciNwpvw.s 			page 10


 406 0000 00       		.space	1
 407              		.type	DMA_TD, %object
 408              		.size	DMA_TD, 1
 409              	DMA_TD:
 410 0001 00       		.space	1
 411              		.text
 412              	.Letext0:
 413              		.file 2 "d:\\program files (x86)\\cypress\\psoc creator\\3.3\\psoc creator\\import\\gnu\\arm\\4.9.
 414              		.file 3 "d:\\program files (x86)\\cypress\\psoc creator\\3.3\\psoc creator\\import\\gnu\\arm\\4.9.
 415              		.file 4 "Generated_Source\\PSoC5/cytypes.h"
 416              		.file 5 "Generated_Source\\PSoC5/core_cm3.h"
 417              		.file 6 ".\\Generated_Source\\PSoC5\\Camera.h"
 418              		.file 7 "Generated_Source\\PSoC5/Camera_I2C.h"
 419              		.file 8 "Generated_Source\\PSoC5/Camera_VSYNC.h"
 420              		.file 9 "Generated_Source\\PSoC5/Camera_DMA_dma.h"
 421              		.file 10 "Generated_Source\\PSoC5/CYDMAC.H"
 422              		.file 11 "Generated_Source\\PSoC5/CyLib.h"
 423              		.file 12 "Generated_Source\\PSoC5/Camera_end_line.h"
 424              		.file 13 "Generated_Source\\PSoC5/Camera_DMA_Colours_dma.h"
 425              		.file 14 "Generated_Source\\PSoC5/Camera_end_line_colours.h"