ARM GAS  D:\TEMP\ccgG5kSd.s 			page 1


   1              		.syntax unified
   2              		.cpu cortex-m3
   3              		.fpu softvfp
   4              		.eabi_attribute 20, 1
   5              		.eabi_attribute 21, 1
   6              		.eabi_attribute 23, 3
   7              		.eabi_attribute 24, 1
   8              		.eabi_attribute 25, 1
   9              		.eabi_attribute 26, 1
  10              		.eabi_attribute 30, 4
  11              		.eabi_attribute 34, 1
  12              		.eabi_attribute 18, 4
  13              		.thumb
  14              		.file	"camera_functions.c"
  15              		.text
  16              	.Ltext0:
  17              		.cfi_sections	.debug_frame
  18              		.section	.text.CamAnalyseFrame,"ax",%progbits
  19              		.align	1
  20              		.global	CamAnalyseFrame
  21              		.thumb
  22              		.thumb_func
  23              		.type	CamAnalyseFrame, %function
  24              	CamAnalyseFrame:
  25              	.LFB64:
  26              		.file 1 ".\\camera_functions.c"
   1:.\camera_functions.c **** /*
   2:.\camera_functions.c ****  * Copyright @Pucktacular, 2016
   3:.\camera_functions.c ****  * @Matt Gebert, Daniel Hranilovic & Kevin Duxbury
   4:.\camera_functions.c ****  * All Rights Reserved
   5:.\camera_functions.c ****  * UNPUBLISHED, LICENSED SOFTWARE.
   6:.\camera_functions.c ****  *
   7:.\camera_functions.c ****  * CONFIDENTIAL AND PROPRIETARY INFORMATION
   8:.\camera_functions.c ****  * WHICH IS THE PROPERTY OF your company.
   9:.\camera_functions.c ****  *
  10:.\camera_functions.c ****  * ========================================
  11:.\camera_functions.c **** */
  12:.\camera_functions.c **** 
  13:.\camera_functions.c **** #include <project.h>
  14:.\camera_functions.c **** #include <stdbool.h>
  15:.\camera_functions.c **** #include "camera_functions.h"
  16:.\camera_functions.c **** //IMPORTANT CAMERA CODE:
  17:.\camera_functions.c ****     //LCD_SetWindowRead(uint16 col_start,uint16 row_start,uint16 col_end,uint16 row_end); 
  18:.\camera_functions.c ****     //LCD_SetWindowWrite(uint16 col_start,uint16 row_start,uint16 col_end,uint16 row_end);
  19:.\camera_functions.c ****     //Display is 320 {0,319} by 240 {0,239}
  20:.\camera_functions.c **** 
  21:.\camera_functions.c **** //Functions:
  22:.\camera_functions.c **** void CamAnalyseFrame();
  23:.\camera_functions.c **** /*void CamGetSequence();
  24:.\camera_functions.c **** void CamMarkBlobs();
  25:.\camera_functions.c **** bool CamScanClosest(uint8 clr);
  26:.\camera_functions.c **** void CamMarkClosest()*/
  27:.\camera_functions.c **** 
  28:.\camera_functions.c **** //Constants moved into header file.
  29:.\camera_functions.c **** 
  30:.\camera_functions.c **** //1 - General Purpose Registers
  31:.\camera_functions.c **** pixel loadPix;
ARM GAS  D:\TEMP\ccgG5kSd.s 			page 2


  32:.\camera_functions.c **** uint8 i=0; //Rows Counter
  33:.\camera_functions.c **** uint16 j=0; //Columns Counter
  34:.\camera_functions.c **** uint16 k=0; //Backtrack Counter
  35:.\camera_functions.c **** 
  36:.\camera_functions.c **** //2 - For Many Blobs, Final Coords
  37:.\camera_functions.c **** uint16 scaledX[50];
  38:.\camera_functions.c **** uint16 scaledY[50];
  39:.\camera_functions.c **** uint8 scaledClr[50];
  40:.\camera_functions.c **** int scaledElements[50];
  41:.\camera_functions.c **** uint16 blobCounter=0;
  42:.\camera_functions.c **** 
  43:.\camera_functions.c **** //3 - For Init Seq, Calculated Ordering:
  44:.\camera_functions.c **** uint8 orderedScaledClr[5];
  45:.\camera_functions.c **** 
  46:.\camera_functions.c **** //4 - Closest of a Specific Colour:
  47:.\camera_functions.c **** uint16 closestX;
  48:.\camera_functions.c **** uint16 closestY;
  49:.\camera_functions.c **** 
  50:.\camera_functions.c **** /*******************************************************************************
  51:.\camera_functions.c **** * Function Name: CamGetSequence
  52:.\camera_functions.c **** ****************************************************************************//**
  53:.\camera_functions.c **** *
  54:.\camera_functions.c **** * This function gets the 5 largest Blobs using the CamAnalyseFrame
  55:.\camera_functions.c **** * to get a frame, and detect all blobs on screen.
  56:.\camera_functions.c **** *******************************************************************************/
  57:.\camera_functions.c **** void CamGetSequence() {
  58:.\camera_functions.c ****     uint16 orderedScaledX[5];
  59:.\camera_functions.c ****     uint16 orderedScaledY[5];
  60:.\camera_functions.c ****     uint16 lrgX[5];
  61:.\camera_functions.c ****     uint16 lrgY[5];
  62:.\camera_functions.c ****     uint8 lrgClr[5];
  63:.\camera_functions.c ****     memset(lrgX,0,5*2);
  64:.\camera_functions.c ****     memset(lrgY,0,5*2);
  65:.\camera_functions.c ****     memset(lrgClr,0,5);
  66:.\camera_functions.c ****     memset(orderedScaledX,0,5*2);
  67:.\camera_functions.c ****     memset(orderedScaledY,0,5*2);
  68:.\camera_functions.c ****     memset(orderedScaledClr,0,5);
  69:.\camera_functions.c ****     
  70:.\camera_functions.c ****     //Analyse the Frame, for data.
  71:.\camera_functions.c ****     CamAnalyseFrame();
  72:.\camera_functions.c ****     
  73:.\camera_functions.c ****     //Find 5 largest blob values:
  74:.\camera_functions.c ****     uint16 max=0;
  75:.\camera_functions.c ****     for (j=0;j<5;j++){
  76:.\camera_functions.c ****         max=0;
  77:.\camera_functions.c ****         for(k=0;k<i;k++){ //i=amount of valid blobs above pixel weight.
  78:.\camera_functions.c ****             if(scaledElements[k]>scaledElements[max])
  79:.\camera_functions.c ****                 max=k;
  80:.\camera_functions.c ****         }
  81:.\camera_functions.c ****         lrgX[j]=scaledX[max];
  82:.\camera_functions.c ****         lrgY[j]=scaledY[max];
  83:.\camera_functions.c ****         lrgClr[j]=scaledClr[max];
  84:.\camera_functions.c ****         scaledElements[max]=0; //Reset Value of Counter, as to not find it again.
  85:.\camera_functions.c ****     }
  86:.\camera_functions.c ****     
  87:.\camera_functions.c ****     //Determine Order of Blobs {Find by first X Cooordinate.}
  88:.\camera_functions.c ****     for (j=0;j<5;j++){
ARM GAS  D:\TEMP\ccgG5kSd.s 			page 3


  89:.\camera_functions.c ****         max=0;
  90:.\camera_functions.c ****         for (k=0;k<5;k++){
  91:.\camera_functions.c ****             //Find Largest
  92:.\camera_functions.c ****             if (lrgX[k] > lrgX[max])
  93:.\camera_functions.c ****                 max=k;
  94:.\camera_functions.c ****         }
  95:.\camera_functions.c ****         orderedScaledX[j]=lrgX[max];
  96:.\camera_functions.c ****         orderedScaledY[j]=lrgY[max];
  97:.\camera_functions.c ****         orderedScaledClr[j]=lrgClr[max];
  98:.\camera_functions.c ****         lrgX[max]=0; //Reset Counter, to not find again.
  99:.\camera_functions.c ****         lrgY[max]=0;
 100:.\camera_functions.c ****         lrgClr[max]=0;
 101:.\camera_functions.c ****     }    
 102:.\camera_functions.c ****     
 103:.\camera_functions.c ****     //Print out Sequence of 5 to Screen
 104:.\camera_functions.c ****     for (k=0;k<5;k++) {
 105:.\camera_functions.c ****         LCD_SetWindowWrite(offset+(k-1)*2+k*15,0,offset+k*15 + (k-1)*2+14,4);
 106:.\camera_functions.c ****         if(orderedScaledClr[k]==RED){ //R
 107:.\camera_functions.c ****             loadPix.R=255;
 108:.\camera_functions.c ****             loadPix.G=0;
 109:.\camera_functions.c ****             loadPix.B=0;
 110:.\camera_functions.c ****         } else if (orderedScaledClr[k]==GREEN){ //G
 111:.\camera_functions.c ****             loadPix.R=0;
 112:.\camera_functions.c ****             loadPix.G=255;
 113:.\camera_functions.c ****             loadPix.B=0;} 
 114:.\camera_functions.c ****         else if (orderedScaledClr[k]==BLUE){ //B
 115:.\camera_functions.c ****             loadPix.R=0;
 116:.\camera_functions.c ****             loadPix.G=0;
 117:.\camera_functions.c ****             loadPix.B=255;
 118:.\camera_functions.c ****         } else {
 119:.\camera_functions.c ****             loadPix.R=0;
 120:.\camera_functions.c ****             loadPix.G=0;
 121:.\camera_functions.c ****             loadPix.B=0;
 122:.\camera_functions.c ****         }   
 123:.\camera_functions.c ****         for (j=0;j<15*5;j++)
 124:.\camera_functions.c ****             LCD_WritePixel(loadPix);
 125:.\camera_functions.c ****     }
 126:.\camera_functions.c **** }
 127:.\camera_functions.c **** 
 128:.\camera_functions.c **** /*******************************************************************************
 129:.\camera_functions.c **** * Function Name: CamAnalyseFrame
 130:.\camera_functions.c **** ****************************************************************************//**
 131:.\camera_functions.c **** *
 132:.\camera_functions.c **** * Cam Analyse Frame reads in one row of data at a time,
 133:.\camera_functions.c **** * and applies group statistics to the rows to determine and identify blobs.
 134:.\camera_functions.c **** * Final results are generated in the following lists:
 135:.\camera_functions.c **** *       scaledX     -   The averaged X(Cols=320) position of the blob.
 136:.\camera_functions.c **** *       scaledY     -   The averaged Y(Rows=240) position of the blob.
 137:.\camera_functions.c **** *       scaledClr   -   The colour of the blob. 0=Red, 1=Green, 2=Blue
 138:.\camera_functions.c **** *       i           -   The number of blobs over the threshold size.
 139:.\camera_functions.c **** *******************************************************************************/
 140:.\camera_functions.c **** 
 141:.\camera_functions.c **** void CamAnalyseFrame() {
  27              		.loc 1 141 0
  28              		.cfi_startproc
  29              		@ args = 0, pretend = 0, frame = 16
  30              		@ frame_needed = 1, uses_anonymous_args = 0
ARM GAS  D:\TEMP\ccgG5kSd.s 			page 4


  31 0000 2DE9F04F 		push	{r4, r5, r6, r7, r8, r9, r10, fp, lr}
  32              		.cfi_def_cfa_offset 36
  33              		.cfi_offset 4, -36
  34              		.cfi_offset 5, -32
  35              		.cfi_offset 6, -28
  36              		.cfi_offset 7, -24
  37              		.cfi_offset 8, -20
  38              		.cfi_offset 9, -16
  39              		.cfi_offset 10, -12
  40              		.cfi_offset 11, -8
  41              		.cfi_offset 14, -4
  42 0004 85B0     		sub	sp, sp, #20
  43              		.cfi_def_cfa_offset 56
  44 0006 00AF     		add	r7, sp, #0
  45              		.cfi_def_cfa_register 7
 142:.\camera_functions.c ****     //Reset BlobCounter.
 143:.\camera_functions.c ****     blobCounter=0;
 144:.\camera_functions.c ****     //Hold Weighting Sums & Colours.
 145:.\camera_functions.c ****     int blobWeightsX[numCols];
  46              		.loc 1 145 0
  47 0008 ADF5A16D 		sub	sp, sp, #1288
  48 000c 6D46     		mov	r5, sp
 146:.\camera_functions.c ****     int blobWeightsY[numCols];
  49              		.loc 1 146 0
  50 000e ADF5A16D 		sub	sp, sp, #1288
  51 0012 6E46     		mov	r6, sp
 147:.\camera_functions.c ****     int blobElements[numCols];
  52              		.loc 1 147 0
  53 0014 ADF5A16D 		sub	sp, sp, #1288
  54 0018 E846     		mov	r8, sp
 148:.\camera_functions.c ****     uint8 blobClr[numCols];
  55              		.loc 1 148 0
  56 001a D0B0     		sub	sp, sp, #320
  57 001c C7F800D0 		str	sp, [r7]
 149:.\camera_functions.c ****     //Hold Rows of Pixels
 150:.\camera_functions.c ****     uint8 top[numCols];
  58              		.loc 1 150 0
  59 0020 D0B0     		sub	sp, sp, #320
  60 0022 C7F808D0 		str	sp, [r7, #8]
 151:.\camera_functions.c ****     uint8 bottom[numCols];
  61              		.loc 1 151 0
  62 0026 D0B0     		sub	sp, sp, #320
  63 0028 6C46     		mov	r4, sp
 143:.\camera_functions.c ****     //Hold Weighting Sums & Colours.
  64              		.loc 1 143 0
  65 002a 4FF00009 		mov	r9, #0
  66 002e D74B     		ldr	r3, .L57
 152:.\camera_functions.c ****     
 153:.\camera_functions.c ****     
 154:.\camera_functions.c ****     //Initialize Vals.
 155:.\camera_functions.c ****     //NOTE: MEMSET only resets Btyes --> That's 8 Bits. An integer is 32 bits, 4x. A 16b is 2x.
 156:.\camera_functions.c ****     memset(scaledElements,0,50*4);
  67              		.loc 1 156 0
  68 0030 4946     		mov	r1, r9
  69 0032 C822     		movs	r2, #200
  70 0034 D648     		ldr	r0, .L57+4
 143:.\camera_functions.c ****     //Hold Weighting Sums & Colours.
ARM GAS  D:\TEMP\ccgG5kSd.s 			page 5


  71              		.loc 1 143 0
  72 0036 A3F80090 		strh	r9, [r3]	@ movhi
  73              	.LVL0:
  74              		.loc 1 156 0
  75 003a FFF7FEFF 		bl	memset
  76              	.LVL1:
 157:.\camera_functions.c ****     memset(scaledX,0,50*2);
  77              		.loc 1 157 0
  78 003e 4946     		mov	r1, r9
  79 0040 6422     		movs	r2, #100
  80 0042 D448     		ldr	r0, .L57+8
  81 0044 FFF7FEFF 		bl	memset
  82              	.LVL2:
 158:.\camera_functions.c ****     memset(scaledY,0,50*2);
  83              		.loc 1 158 0
  84 0048 4946     		mov	r1, r9
  85 004a 6422     		movs	r2, #100
  86 004c D248     		ldr	r0, .L57+12
  87 004e FFF7FEFF 		bl	memset
  88              	.LVL3:
 159:.\camera_functions.c ****     memset(scaledClr,0,50);
  89              		.loc 1 159 0
  90 0052 4946     		mov	r1, r9
  91 0054 3222     		movs	r2, #50
  92 0056 D148     		ldr	r0, .L57+16
  93 0058 FFF7FEFF 		bl	memset
  94              	.LVL4:
 160:.\camera_functions.c ****     memset(blobWeightsX,0,numCols*4);
  95              		.loc 1 160 0
  96 005c 4946     		mov	r1, r9
  97 005e 4FF4A062 		mov	r2, #1280
  98 0062 2846     		mov	r0, r5
  99 0064 FFF7FEFF 		bl	memset
 100              	.LVL5:
 161:.\camera_functions.c ****     memset(blobWeightsY,0,numCols*4);
 101              		.loc 1 161 0
 102 0068 4946     		mov	r1, r9
 103 006a 4FF4A062 		mov	r2, #1280
 104 006e 3046     		mov	r0, r6
 105 0070 FFF7FEFF 		bl	memset
 106              	.LVL6:
 162:.\camera_functions.c ****     memset(blobElements,0,numCols*4);
 107              		.loc 1 162 0
 108 0074 4946     		mov	r1, r9
 109 0076 4FF4A062 		mov	r2, #1280
 110 007a 4046     		mov	r0, r8
 111 007c FFF7FEFF 		bl	memset
 112              	.LVL7:
 163:.\camera_functions.c ****     memset(top,0,numCols);
 113              		.loc 1 163 0
 114 0080 4946     		mov	r1, r9
 115 0082 4FF4A072 		mov	r2, #320
 116 0086 B868     		ldr	r0, [r7, #8]
 117 0088 FFF7FEFF 		bl	memset
 118              	.LVL8:
 164:.\camera_functions.c ****     memset(bottom,0,numCols);
 119              		.loc 1 164 0
ARM GAS  D:\TEMP\ccgG5kSd.s 			page 6


 120 008c 4946     		mov	r1, r9
 121 008e 4FF4A072 		mov	r2, #320
 122 0092 6846     		mov	r0, sp
 123 0094 FFF7FEFF 		bl	memset
 124              	.LVL9:
 165:.\camera_functions.c ****     memset(blobClr,0,numCols);
 125              		.loc 1 165 0
 126 0098 3868     		ldr	r0, [r7]
 127 009a 4946     		mov	r1, r9
 128 009c 4FF4A072 		mov	r2, #320
 129 00a0 FFF7FEFF 		bl	memset
 130              	.LVL10:
 166:.\camera_functions.c ****     
 167:.\camera_functions.c ****     
 168:.\camera_functions.c ****     uint8 clr=0; //Colour --> R,G,B == 0,1,2.
 169:.\camera_functions.c ****     
 170:.\camera_functions.c ****     uint8 A,B,C,D;
 171:.\camera_functions.c ****     
 172:.\camera_functions.c ****     
 173:.\camera_functions.c ****     for (clr=0;clr<3;clr++) {
 131              		.loc 1 173 0
 132 00a4 C7F80C90 		str	r9, [r7, #12]
 133              	.LVL11:
 134              	.L24:
 174:.\camera_functions.c ****         for (i=0;i<numRows;i++) {
 135              		.loc 1 174 0
 136 00a8 B84B     		ldr	r3, .L57
 137 00aa 0022     		movs	r2, #0
 138              	.L49:
 139 00ac DFF8DCA2 		ldr	r10, .L57
 140 00b0 9A70     		strb	r2, [r3, #2]
 141 00b2 9AF80210 		ldrb	r1, [r10, #2]	@ zero_extendqisi2
 142 00b6 D146     		mov	r9, r10
 143 00b8 EF29     		cmp	r1, #239
 144 00ba 00F2C380 		bhi	.L51
 145 00be 0022     		movs	r2, #0
 146              	.L3:
 175:.\camera_functions.c ****             //Set Top Row to Bottom Row
 176:.\camera_functions.c ****             for (j=0;j<numCols;j++)
 177:.\camera_functions.c ****                 top[j]=bottom[j];
 147              		.loc 1 177 0 discriminator 3
 148 00c0 A35C     		ldrb	r3, [r4, r2]	@ zero_extendqisi2
 149 00c2 B868     		ldr	r0, [r7, #8]
 150 00c4 8354     		strb	r3, [r0, r2]
 176:.\camera_functions.c ****                 top[j]=bottom[j];
 151              		.loc 1 176 0 discriminator 3
 152 00c6 0132     		adds	r2, r2, #1
 153 00c8 92B2     		uxth	r2, r2
 154 00ca B2F5A07F 		cmp	r2, #320
 155 00ce F7D1     		bne	.L3
 178:.\camera_functions.c ****             //Read in the Row
 179:.\camera_functions.c ****             LCD_SetWindowRead(0,i,numCols,i);
 156              		.loc 1 179 0
 157 00d0 89B2     		uxth	r1, r1
 158 00d2 0B46     		mov	r3, r1
 159 00d4 0020     		movs	r0, #0
 160 00d6 AAF80420 		strh	r2, [r10, #4]	@ movhi
ARM GAS  D:\TEMP\ccgG5kSd.s 			page 7


 161 00da FFF7FEFF 		bl	LCD_SetWindowRead
 162              	.LVL12:
 180:.\camera_functions.c ****             for(j=0;j<numCols;j++){
 163              		.loc 1 180 0
 164 00de 0023     		movs	r3, #0
 165 00e0 AAF80430 		strh	r3, [r10, #4]	@ movhi
 166              	.L4:
 167              		.loc 1 180 0 is_stmt 0 discriminator 1
 168 00e4 B9F80430 		ldrh	r3, [r9, #4]
 169 00e8 DFF8A0A2 		ldr	r10, .L57
 170 00ec B3F5A07F 		cmp	r3, #320
 171 00f0 1BD2     		bcs	.L52
 181:.\camera_functions.c ****                 loadPix = LCD_ReadPixel();
 172              		.loc 1 181 0 is_stmt 1
 173 00f2 FFF7FEFF 		bl	LCD_ReadPixel
 174              	.LVL13:
 175 00f6 AA4B     		ldr	r3, .L57+20
 182:.\camera_functions.c ****                 if (clr==RED) bottom[j]=loadPix.R;
 176              		.loc 1 182 0
 177 00f8 F968     		ldr	r1, [r7, #12]
 181:.\camera_functions.c ****                 loadPix = LCD_ReadPixel();
 178              		.loc 1 181 0
 179 00fa C0F30722 		ubfx	r2, r0, #8, #8
 180 00fe 1870     		strb	r0, [r3]
 181 0100 C0F30740 		ubfx	r0, r0, #16, #8
 182 0104 5A70     		strb	r2, [r3, #1]
 183 0106 9870     		strb	r0, [r3, #2]
 184 0108 BAF80420 		ldrh	r2, [r10, #4]
 185              		.loc 1 182 0
 186 010c 09B9     		cbnz	r1, .L5
 187              		.loc 1 182 0 is_stmt 0 discriminator 1
 188 010e 1B78     		ldrb	r3, [r3]	@ zero_extendqisi2
 189 0110 04E0     		b	.L47
 190              	.L5:
 183:.\camera_functions.c ****                 else if (clr==GREEN) bottom[j]=loadPix.G;
 191              		.loc 1 183 0 is_stmt 1
 192 0112 F968     		ldr	r1, [r7, #12]
 193 0114 0129     		cmp	r1, #1
 194 0116 0CBF     		ite	eq
 195 0118 5B78     		ldrbeq	r3, [r3, #1]	@ zero_extendqisi2
 184:.\camera_functions.c ****                 else  bottom[j]=loadPix.B;
 196              		.loc 1 184 0
 197 011a 9B78     		ldrbne	r3, [r3, #2]	@ zero_extendqisi2
 198              	.L47:
 199 011c A354     		strb	r3, [r4, r2]
 180:.\camera_functions.c ****                 loadPix = LCD_ReadPixel();
 200              		.loc 1 180 0
 201 011e B9F80430 		ldrh	r3, [r9, #4]
 202 0122 0133     		adds	r3, r3, #1
 203 0124 A9F80430 		strh	r3, [r9, #4]	@ movhi
 204 0128 DCE7     		b	.L4
 205              	.L52:
 185:.\camera_functions.c ****             }
 186:.\camera_functions.c ****             //Enter Cols
 187:.\camera_functions.c ****             for(j=0;j<numCols;j++) {
 206              		.loc 1 187 0
 207 012a 0023     		movs	r3, #0
ARM GAS  D:\TEMP\ccgG5kSd.s 			page 8


 188:.\camera_functions.c ****                 //Prep ABCD Vals 
 189:.\camera_functions.c ****                 A=bottom[j];
 190:.\camera_functions.c ****                 if(j==1){
 191:.\camera_functions.c ****                     D=0;C=0;
 192:.\camera_functions.c ****                 } else {
 193:.\camera_functions.c ****                     D=bottom[j-1];
 194:.\camera_functions.c ****                     if(i!=1) C=top[j-1];
 208              		.loc 1 194 0
 209 012c 9AF802C0 		ldrb	ip, [r10, #2]	@ zero_extendqisi2
 210 0130 BAF80610 		ldrh	r1, [r10, #6]
 211 0134 BAF800B0 		ldrh	fp, [r10]
 187:.\camera_functions.c ****                 //Prep ABCD Vals 
 212              		.loc 1 187 0
 213 0138 AAF80430 		strh	r3, [r10, #4]	@ movhi
 214              	.L9:
 187:.\camera_functions.c ****                 //Prep ABCD Vals 
 215              		.loc 1 187 0 is_stmt 0 discriminator 1
 216 013c B3F5A07F 		cmp	r3, #320
 217 0140 79D0     		beq	.L53
 190:.\camera_functions.c ****                     D=0;C=0;
 218              		.loc 1 190 0 is_stmt 1
 219 0142 012B     		cmp	r3, #1
 189:.\camera_functions.c ****                 if(j==1){
 220              		.loc 1 189 0
 221 0144 14F803A0 		ldrb	r10, [r4, r3]	@ zero_extendqisi2
 222              	.LVL14:
 190:.\camera_functions.c ****                     D=0;C=0;
 223              		.loc 1 190 0
 224 0148 09D0     		beq	.L10
 193:.\camera_functions.c ****                     if(i!=1) C=top[j-1];
 225              		.loc 1 193 0
 226 014a 5A1E     		subs	r2, r3, #1
 227              		.loc 1 194 0
 228 014c BCF1010F 		cmp	ip, #1
 193:.\camera_functions.c ****                     if(i!=1) C=top[j-1];
 229              		.loc 1 193 0
 230 0150 14F80290 		ldrb	r9, [r4, r2]	@ zero_extendqisi2
 231              	.LVL15:
 232              		.loc 1 194 0
 233 0154 00F0AC80 		beq	.L11
 234              		.loc 1 194 0 is_stmt 0 discriminator 1
 235 0158 B868     		ldr	r0, [r7, #8]
 236 015a 825C     		ldrb	r2, [r0, r2]	@ zero_extendqisi2
 237              	.LVL16:
 238 015c 06E0     		b	.L12
 239              	.LVL17:
 240              	.L10:
 195:.\camera_functions.c ****                 }
 196:.\camera_functions.c ****                 if(i==1){
 241              		.loc 1 196 0 is_stmt 1
 242 015e BCF1010F 		cmp	ip, #1
 243 0162 00F03881 		beq	.L13
 191:.\camera_functions.c ****                 } else {
 244              		.loc 1 191 0
 245 0166 4FF00009 		mov	r9, #0
 246 016a 4A46     		mov	r2, r9
 247              	.LVL18:
ARM GAS  D:\TEMP\ccgG5kSd.s 			page 9


 248              	.L12:
 197:.\camera_functions.c ****                     C=0;B=0;
 198:.\camera_functions.c ****                 }else {
 199:.\camera_functions.c ****                     B=top[j];
 249              		.loc 1 199 0
 250 016c B868     		ldr	r0, [r7, #8]
 251 016e 10F803E0 		ldrb	lr, [r0, r3]	@ zero_extendqisi2
 252              	.LVL19:
 200:.\camera_functions.c ****                 }
 201:.\camera_functions.c ****                 
 202:.\camera_functions.c ****                 //Rules For Assigning A.
 203:.\camera_functions.c ****                 //Rule 1: If Background for A, do nothing.
 204:.\camera_functions.c ****                 if (A==0);
 253              		.loc 1 204 0
 254 0172 BAF1000F 		cmp	r10, #0
 255 0176 5BD0     		beq	.L14
 205:.\camera_functions.c ****                 //Rule 2: All blank but A, A is new blob type.
 206:.\camera_functions.c ****                 else if (B==0 && C==0 && D==0 && A!=0) {
 256              		.loc 1 206 0
 257 0178 BEF1000F 		cmp	lr, #0
 258 017c 40F09C80 		bne	.L15
 259              		.loc 1 206 0 is_stmt 0 discriminator 1
 260 0180 22BB     		cbnz	r2, .L16
 261              	.LVL20:
 262              	.L28:
 263              		.loc 1 206 0 discriminator 2
 264 0182 B9F1000F 		cmp	r9, #0
 265 0186 25D1     		bne	.L17
 266              	.LVL21:
 267              	.L31:
 207:.\camera_functions.c ****                     blobCounter=blobCounter+1;
 268              		.loc 1 207 0 is_stmt 1
 269 0188 0BF10102 		add	r2, fp, #1
 270 018c 1FFA82FB 		uxth	fp, r2
 208:.\camera_functions.c ****                     blobClr[blobCounter-1]=clr;
 271              		.loc 1 208 0
 272 0190 3A68     		ldr	r2, [r7]
 273 0192 387B     		ldrb	r0, [r7, #12]	@ zero_extendqisi2
 274 0194 5A44     		add	r2, r2, fp
 275 0196 02F8010C 		strb	r0, [r2, #-1]
 276 019a 4FEA8B00 		lsl	r0, fp, #2
 277 019e 05EB000E 		add	lr, r5, r0
 209:.\camera_functions.c ****                     blobWeightsX[blobCounter-1]=blobWeightsX[blobCounter-1]+j;
 278              		.loc 1 209 0
 279 01a2 5EF8042C 		ldr	r2, [lr, #-4]
 210:.\camera_functions.c ****                     blobWeightsY[blobCounter-1]=blobWeightsY[blobCounter-1]+i;
 211:.\camera_functions.c ****                     blobElements[blobCounter-1]=blobElements[blobCounter-1]+1;
 212:.\camera_functions.c ****                     bottom[j]=blobCounter;
 280              		.loc 1 212 0
 281 01a6 04F803B0 		strb	fp, [r4, r3]
 209:.\camera_functions.c ****                     blobWeightsX[blobCounter-1]=blobWeightsX[blobCounter-1]+j;
 282              		.loc 1 209 0
 283 01aa 1A44     		add	r2, r2, r3
 284 01ac 4EF8042C 		str	r2, [lr, #-4]
 285 01b0 06EB000E 		add	lr, r6, r0
 210:.\camera_functions.c ****                     blobWeightsY[blobCounter-1]=blobWeightsY[blobCounter-1]+i;
 286              		.loc 1 210 0
ARM GAS  D:\TEMP\ccgG5kSd.s 			page 10


 287 01b4 5EF8042C 		ldr	r2, [lr, #-4]
 288 01b8 4044     		add	r0, r0, r8
 289 01ba 6244     		add	r2, r2, ip
 290 01bc 4EF8042C 		str	r2, [lr, #-4]
 211:.\camera_functions.c ****                     bottom[j]=blobCounter;
 291              		.loc 1 211 0
 292 01c0 50F8042C 		ldr	r2, [r0, #-4]
 293 01c4 0132     		adds	r2, r2, #1
 294 01c6 40F8042C 		str	r2, [r0, #-4]
 295              		.loc 1 212 0
 296 01ca 31E0     		b	.L14
 297              	.LVL22:
 298              	.L16:
 213:.\camera_functions.c ****                 }
 214:.\camera_functions.c ****                 //Rule 3: If A == D ~= B, and B~=0, then A,D becomes B. Don't care about C.
 215:.\camera_functions.c ****                 else if (A!=0 && D!=0 && B!=0 && B!=D) {
 299              		.loc 1 215 0 discriminator 1
 300 01cc B9F1000F 		cmp	r9, #0
 301 01d0 00F0C080 		beq	.L54
 302              	.LVL23:
 303              	.L17:
 304 01d4 4FEA8909 		lsl	r9, r9, #2
 305              	.LVL24:
 306 01d8 05EB0900 		add	r0, r5, r9
 216:.\camera_functions.c ****                     blobWeightsX[B-1]=blobWeightsX[B-1]+blobWeightsX[D-1]+j;
 217:.\camera_functions.c ****                     blobWeightsX[D-1]=0;
 218:.\camera_functions.c ****                     blobWeightsY[B-1]=blobWeightsY[B-1]+blobWeightsY[D-1]+i;
 219:.\camera_functions.c ****                     blobWeightsY[D-1]=0;
 220:.\camera_functions.c ****                     blobElements[B-1]=blobElements[B-1]+blobElements[D-1]+1;
 221:.\camera_functions.c ****                     blobElements[D-1]=0;
 222:.\camera_functions.c ****                     bottom[j]=top[j];
 223:.\camera_functions.c ****                     for (k = 0;k<j-1;k++)
 224:.\camera_functions.c ****                         if (bottom[k]==bottom[j-1])
 225:.\camera_functions.c ****                             bottom[k]=top[j];
 226:.\camera_functions.c ****                 }
 227:.\camera_functions.c ****                 //Rule 4: If B=0 and D~=0, then A is assigned to D. Don't care about C.
 228:.\camera_functions.c ****                 else if (A!=0 && D!= 0 && B==0) {
 229:.\camera_functions.c ****                     blobWeightsX[D-1]=blobWeightsX[D-1]+j;
 307              		.loc 1 229 0
 308 01dc 50F8042C 		ldr	r2, [r0, #-4]
 309 01e0 1A44     		add	r2, r2, r3
 310 01e2 40F8042C 		str	r2, [r0, #-4]
 311 01e6 06EB0900 		add	r0, r6, r9
 230:.\camera_functions.c ****                     blobWeightsY[D-1]=blobWeightsY[D-1]+i;
 312              		.loc 1 230 0
 313 01ea 50F8042C 		ldr	r2, [r0, #-4]
 314 01ee C144     		add	r9, r9, r8
 315 01f0 6244     		add	r2, r2, ip
 316 01f2 40F8042C 		str	r2, [r0, #-4]
 231:.\camera_functions.c ****                     blobElements[D-1]=blobElements[D-1]+1;
 317              		.loc 1 231 0
 318 01f6 59F8042C 		ldr	r2, [r9, #-4]
 319 01fa 0132     		adds	r2, r2, #1
 320 01fc 49F8042C 		str	r2, [r9, #-4]
 232:.\camera_functions.c ****                     bottom[j]=bottom[j-1];
 321              		.loc 1 232 0
 322 0200 E218     		adds	r2, r4, r3
ARM GAS  D:\TEMP\ccgG5kSd.s 			page 11


 323 0202 BEE0     		b	.L48
 324              	.LVL25:
 325              	.L19:
 326 0204 05EB020E 		add	lr, r5, r2
 327              	.LVL26:
 233:.\camera_functions.c ****                 }
 234:.\camera_functions.c ****                 //Rule 5:  If B==D==0, C~=0, then A assigned to C.
 235:.\camera_functions.c ****                 else if (B==0 && D==0 && A!=0 && C!=0) {
 236:.\camera_functions.c ****                     blobWeightsX[C-1]=blobWeightsX[C-1]+j;
 237:.\camera_functions.c ****                     blobWeightsY[C-1]=blobWeightsY[C-1]+i;
 238:.\camera_functions.c ****                     blobElements[C-1]=blobElements[C-1]+1;
 239:.\camera_functions.c ****                     bottom[j]=top[j-1];
 240:.\camera_functions.c ****                 }
 241:.\camera_functions.c ****                 //Rule 6: When B==D and nonzero A.
 242:.\camera_functions.c ****                 else if (B!=0 && A!=0 && D==B) {
 243:.\camera_functions.c ****                     blobWeightsX[B-1]=blobWeightsX[B-1]+j;
 328              		.loc 1 243 0
 329 0208 5EF8040C 		ldr	r0, [lr, #-4]
 330              	.LVL27:
 244:.\camera_functions.c ****                     blobWeightsY[B-1]=blobWeightsY[B-1]+i;
 245:.\camera_functions.c ****                     blobElements[B-1]=blobElements[B-1]+1;
 246:.\camera_functions.c ****                     bottom[j]=top[j];
 331              		.loc 1 246 0
 332 020c 04F80390 		strb	r9, [r4, r3]
 243:.\camera_functions.c ****                     blobWeightsY[B-1]=blobWeightsY[B-1]+i;
 333              		.loc 1 243 0
 334 0210 1844     		add	r0, r0, r3
 335 0212 4EF8040C 		str	r0, [lr, #-4]
 336 0216 06EB020E 		add	lr, r6, r2
 244:.\camera_functions.c ****                     blobWeightsY[B-1]=blobWeightsY[B-1]+i;
 337              		.loc 1 244 0
 338 021a 5EF8040C 		ldr	r0, [lr, #-4]
 339 021e 4244     		add	r2, r2, r8
 340 0220 6044     		add	r0, r0, ip
 341 0222 4EF8040C 		str	r0, [lr, #-4]
 245:.\camera_functions.c ****                     bottom[j]=top[j];
 342              		.loc 1 245 0
 343 0226 52F8040C 		ldr	r0, [r2, #-4]
 344 022a 0130     		adds	r0, r0, #1
 345 022c 42F8040C 		str	r0, [r2, #-4]
 346              	.LVL28:
 347              	.L14:
 348 0230 0133     		adds	r3, r3, #1
 349 0232 9BB2     		uxth	r3, r3
 350 0234 82E7     		b	.L9
 351              	.L53:
 352 0236 554B     		ldr	r3, .L57
 174:.\camera_functions.c ****             //Set Top Row to Bottom Row
 353              		.loc 1 174 0
 354 0238 9A78     		ldrb	r2, [r3, #2]	@ zero_extendqisi2
 355 023a D980     		strh	r1, [r3, #6]	@ movhi
 356 023c A3F800B0 		strh	fp, [r3]	@ movhi
 357 0240 0132     		adds	r2, r2, #1
 358 0242 33E7     		b	.L49
 359              	.L51:
 173:.\camera_functions.c ****         for (i=0;i<numRows;i++) {
 360              		.loc 1 173 0 discriminator 2
ARM GAS  D:\TEMP\ccgG5kSd.s 			page 12


 361 0244 FB68     		ldr	r3, [r7, #12]
 362 0246 0133     		adds	r3, r3, #1
 363 0248 DBB2     		uxtb	r3, r3
 364 024a 032B     		cmp	r3, #3
 365 024c FB60     		str	r3, [r7, #12]
 366              	.LVL29:
 367 024e 7FF42BAF 		bne	.L24
 247:.\camera_functions.c ****                 }
 248:.\camera_functions.c ****                 //Rule 7: if B~=0, and A~=0, but D==0...
 249:.\camera_functions.c ****                 else if (B!=0 && D==0 && A!=0) {
 250:.\camera_functions.c ****                     blobWeightsX[B-1]=blobWeightsX[B-1]+j;
 251:.\camera_functions.c ****                     blobWeightsY[B-1]=blobWeightsY[B-1]+i;
 252:.\camera_functions.c ****                     blobElements[B-1]=blobElements[B-1]+1;
 253:.\camera_functions.c ****                     bottom[j]=top[j];
 254:.\camera_functions.c ****                 }
 255:.\camera_functions.c ****             }   
 256:.\camera_functions.c ****         }
 257:.\camera_functions.c ****     }
 258:.\camera_functions.c ****     
 259:.\camera_functions.c ****     i=0;//Reset i=0 for counting valid blobs.
 368              		.loc 1 259 0
 369 0252 0023     		movs	r3, #0
 260:.\camera_functions.c ****     for (j=0;j<numCols;j++) { //Starts at 1, because the 0 index in blobWeights etc is not the firs
 370              		.loc 1 260 0
 371 0254 1846     		mov	r0, r3
 259:.\camera_functions.c ****     for (j=0;j<numCols;j++) { //Starts at 1, because the 0 index in blobWeights etc is not the firs
 372              		.loc 1 259 0
 373 0256 8AF80230 		strb	r3, [r10, #2]
 374              		.loc 1 260 0
 375 025a AAF80430 		strh	r3, [r10, #4]	@ movhi
 376              	.LVL30:
 377              	.L25:
 378              		.loc 1 260 0 is_stmt 0 discriminator 1
 379 025e B0F5A07F 		cmp	r0, #320
 380 0262 1DD0     		beq	.L55
 261:.\camera_functions.c ****         if(blobElements[j]>blobThresholdSize){
 381              		.loc 1 261 0 is_stmt 1
 382 0264 58F82020 		ldr	r2, [r8, r0, lsl #2]
 383 0268 502A     		cmp	r2, #80
 384 026a 16DD     		ble	.L26
 262:.\camera_functions.c ****             scaledX[i]=blobWeightsX[j]/blobElements[j];
 385              		.loc 1 262 0
 386 026c 55F82010 		ldr	r1, [r5, r0, lsl #2]
 387 0270 484C     		ldr	r4, .L57+8
 388 0272 91FBF2F1 		sdiv	r1, r1, r2
 389 0276 24F81310 		strh	r1, [r4, r3, lsl #1]	@ movhi
 263:.\camera_functions.c ****             scaledY[i]=blobWeightsY[j]/blobElements[j];
 390              		.loc 1 263 0
 391 027a 56F82010 		ldr	r1, [r6, r0, lsl #2]
 392 027e 464C     		ldr	r4, .L57+12
 393 0280 91FBF2F1 		sdiv	r1, r1, r2
 394 0284 24F81310 		strh	r1, [r4, r3, lsl #1]	@ movhi
 264:.\camera_functions.c ****             scaledClr[i]=blobClr[j];
 395              		.loc 1 264 0
 396 0288 3968     		ldr	r1, [r7]
 397 028a 0C5C     		ldrb	r4, [r1, r0]	@ zero_extendqisi2
 398 028c 4349     		ldr	r1, .L57+16
ARM GAS  D:\TEMP\ccgG5kSd.s 			page 13


 399 028e CC54     		strb	r4, [r1, r3]
 265:.\camera_functions.c ****             scaledElements[i]=blobElements[j];
 400              		.loc 1 265 0
 401 0290 3F49     		ldr	r1, .L57+4
 402 0292 41F82320 		str	r2, [r1, r3, lsl #2]
 266:.\camera_functions.c ****             i++;
 403              		.loc 1 266 0
 404 0296 0133     		adds	r3, r3, #1
 405 0298 DBB2     		uxtb	r3, r3
 406              	.L26:
 407 029a 421C     		adds	r2, r0, #1
 408 029c 90B2     		uxth	r0, r2
 409 029e DEE7     		b	.L25
 410              	.L55:
 267:.\camera_functions.c ****         }
 268:.\camera_functions.c ****     }    
 269:.\camera_functions.c **** }
 411              		.loc 1 269 0
 412 02a0 1437     		adds	r7, r7, #20
 413              		.cfi_remember_state
 414              		.cfi_def_cfa_offset 36
 415              	.LVL31:
 416 02a2 A9F80400 		strh	r0, [r9, #4]	@ movhi
 417 02a6 89F80230 		strb	r3, [r9, #2]
 418 02aa BD46     		mov	sp, r7
 419              		.cfi_def_cfa_register 13
 420              	.LVL32:
 421              		@ sp needed
 422 02ac BDE8F08F 		pop	{r4, r5, r6, r7, r8, r9, r10, fp, pc}
 423              	.LVL33:
 424              	.L11:
 425              		.cfi_restore_state
 204:.\camera_functions.c ****                 //Rule 2: All blank but A, A is new blob type.
 426              		.loc 1 204 0
 427 02b0 BAF1000F 		cmp	r10, #0
 428 02b4 BCD0     		beq	.L14
 429 02b6 64E7     		b	.L28
 430              	.LVL34:
 431              	.L15:
 215:.\camera_functions.c ****                     blobWeightsX[B-1]=blobWeightsX[B-1]+blobWeightsX[D-1]+j;
 432              		.loc 1 215 0
 433 02b8 B9F1000F 		cmp	r9, #0
 434 02bc 72D0     		beq	.L56
 215:.\camera_functions.c ****                     blobWeightsX[B-1]=blobWeightsX[B-1]+blobWeightsX[D-1]+j;
 435              		.loc 1 215 0 is_stmt 0 discriminator 3
 436 02be CE45     		cmp	lr, r9
 437 02c0 4FEA8902 		lsl	r2, r9, #2
 438              	.LVL35:
 439 02c4 9ED0     		beq	.L19
 440 02c6 4FEA8E01 		lsl	r1, lr, #2
 441 02ca 05EB0109 		add	r9, r5, r1
 442              	.LVL36:
 443 02ce 05EB020A 		add	r10, r5, r2
 444              	.LVL37:
 216:.\camera_functions.c ****                     blobWeightsX[D-1]=0;
 445              		.loc 1 216 0 is_stmt 1
 446 02d2 59F8040C 		ldr	r0, [r9, #-4]
ARM GAS  D:\TEMP\ccgG5kSd.s 			page 14


 447 02d6 7960     		str	r1, [r7, #4]
 448 02d8 5AF8041C 		ldr	r1, [r10, #-4]
 222:.\camera_functions.c ****                     for (k = 0;k<j-1;k++)
 449              		.loc 1 222 0
 450 02dc 04F803E0 		strb	lr, [r4, r3]
 451              	.LVL38:
 216:.\camera_functions.c ****                     blobWeightsX[D-1]=0;
 452              		.loc 1 216 0
 453 02e0 0144     		add	r1, r1, r0
 454 02e2 1944     		add	r1, r1, r3
 455 02e4 49F8041C 		str	r1, [r9, #-4]
 217:.\camera_functions.c ****                     blobWeightsY[B-1]=blobWeightsY[B-1]+blobWeightsY[D-1]+i;
 456              		.loc 1 217 0
 457 02e8 0021     		movs	r1, #0
 458 02ea 4AF8041C 		str	r1, [r10, #-4]
 459 02ee 7968     		ldr	r1, [r7, #4]
 460 02f0 06EB020A 		add	r10, r6, r2
 461 02f4 06EB0109 		add	r9, r6, r1
 218:.\camera_functions.c ****                     blobWeightsY[D-1]=0;
 462              		.loc 1 218 0
 463 02f8 5AF8041C 		ldr	r1, [r10, #-4]
 464 02fc 4244     		add	r2, r2, r8
 465 02fe 0846     		mov	r0, r1
 466 0300 59F8041C 		ldr	r1, [r9, #-4]
 467 0304 0844     		add	r0, r0, r1
 468 0306 0146     		mov	r1, r0
 469 0308 6144     		add	r1, r1, ip
 470 030a 49F8041C 		str	r1, [r9, #-4]
 219:.\camera_functions.c ****                     blobElements[B-1]=blobElements[B-1]+blobElements[D-1]+1;
 471              		.loc 1 219 0
 472 030e 0021     		movs	r1, #0
 473 0310 4AF8041C 		str	r1, [r10, #-4]
 474 0314 7968     		ldr	r1, [r7, #4]
 475 0316 08EB010A 		add	r10, r8, r1
 220:.\camera_functions.c ****                     blobElements[D-1]=0;
 476              		.loc 1 220 0
 477 031a 52F8041C 		ldr	r1, [r2, #-4]
 478 031e 0846     		mov	r0, r1
 479 0320 5AF8041C 		ldr	r1, [r10, #-4]
 480 0324 0844     		add	r0, r0, r1
 481 0326 0146     		mov	r1, r0
 482 0328 0131     		adds	r1, r1, #1
 483 032a 4AF8041C 		str	r1, [r10, #-4]
 221:.\camera_functions.c ****                     bottom[j]=top[j];
 484              		.loc 1 221 0
 485 032e 0021     		movs	r1, #0
 223:.\camera_functions.c ****                         if (bottom[k]==bottom[j-1])
 486              		.loc 1 223 0
 487 0330 8946     		mov	r9, r1
 221:.\camera_functions.c ****                     bottom[j]=top[j];
 488              		.loc 1 221 0
 489 0332 42F8041C 		str	r1, [r2, #-4]
 490              	.L20:
 491 0336 1FFA89F1 		uxth	r1, r9
 223:.\camera_functions.c ****                         if (bottom[k]==bottom[j-1])
 492              		.loc 1 223 0 discriminator 1
 493 033a 5A1E     		subs	r2, r3, #1
ARM GAS  D:\TEMP\ccgG5kSd.s 			page 15


 494 033c 9142     		cmp	r1, r2
 495 033e BFF677AF 		bge	.L14
 224:.\camera_functions.c ****                             bottom[k]=top[j];
 496              		.loc 1 224 0
 497 0342 605C     		ldrb	r0, [r4, r1]	@ zero_extendqisi2
 498 0344 A25C     		ldrb	r2, [r4, r2]	@ zero_extendqisi2
 499 0346 09F10109 		add	r9, r9, #1
 500 034a 9042     		cmp	r0, r2
 225:.\camera_functions.c ****                 }
 501              		.loc 1 225 0
 502 034c 08BF     		it	eq
 503 034e 04F801E0 		strbeq	lr, [r4, r1]
 504 0352 F0E7     		b	.L20
 505              	.LVL39:
 506              	.L54:
 507 0354 9000     		lsls	r0, r2, #2
 508 0356 05EB000E 		add	lr, r5, r0
 509              	.LVL40:
 236:.\camera_functions.c ****                     blobWeightsY[C-1]=blobWeightsY[C-1]+i;
 510              		.loc 1 236 0
 511 035a 5EF8042C 		ldr	r2, [lr, #-4]
 512              	.LVL41:
 513 035e 1A44     		add	r2, r2, r3
 514 0360 4EF8042C 		str	r2, [lr, #-4]
 515 0364 06EB000E 		add	lr, r6, r0
 237:.\camera_functions.c ****                     blobElements[C-1]=blobElements[C-1]+1;
 516              		.loc 1 237 0
 517 0368 5EF8042C 		ldr	r2, [lr, #-4]
 518 036c 4044     		add	r0, r0, r8
 519 036e 6244     		add	r2, r2, ip
 520 0370 4EF8042C 		str	r2, [lr, #-4]
 238:.\camera_functions.c ****                     bottom[j]=top[j-1];
 521              		.loc 1 238 0
 522 0374 50F8042C 		ldr	r2, [r0, #-4]
 523 0378 0132     		adds	r2, r2, #1
 524 037a 40F8042C 		str	r2, [r0, #-4]
 239:.\camera_functions.c ****                 }
 525              		.loc 1 239 0
 526 037e BA68     		ldr	r2, [r7, #8]
 527 0380 1A44     		add	r2, r2, r3
 528              	.LVL42:
 529              	.L48:
 530 0382 12F8012C 		ldrb	r2, [r2, #-1]	@ zero_extendqisi2
 531 0386 E254     		strb	r2, [r4, r3]
 532 0388 52E7     		b	.L14
 533              	.L58:
 534 038a 00BF     		.align	2
 535              	.L57:
 536 038c 00000000 		.word	.LANCHOR0
 537 0390 00000000 		.word	scaledElements
 538 0394 00000000 		.word	scaledX
 539 0398 00000000 		.word	scaledY
 540 039c 00000000 		.word	scaledClr
 541 03a0 00000000 		.word	loadPix
 542              	.LVL43:
 543              	.L56:
 544 03a4 4FEA8E00 		lsl	r0, lr, #2
ARM GAS  D:\TEMP\ccgG5kSd.s 			page 16


 545 03a8 05EB0009 		add	r9, r5, r0
 546              	.LVL44:
 250:.\camera_functions.c ****                     blobWeightsY[B-1]=blobWeightsY[B-1]+i;
 547              		.loc 1 250 0
 548 03ac 59F8042C 		ldr	r2, [r9, #-4]
 549              	.LVL45:
 253:.\camera_functions.c ****                 }
 550              		.loc 1 253 0
 551 03b0 04F803E0 		strb	lr, [r4, r3]
 250:.\camera_functions.c ****                     blobWeightsY[B-1]=blobWeightsY[B-1]+i;
 552              		.loc 1 250 0
 553 03b4 1A44     		add	r2, r2, r3
 554 03b6 49F8042C 		str	r2, [r9, #-4]
 555 03ba 06EB0009 		add	r9, r6, r0
 251:.\camera_functions.c ****                     blobElements[B-1]=blobElements[B-1]+1;
 556              		.loc 1 251 0
 557 03be 59F8042C 		ldr	r2, [r9, #-4]
 558 03c2 4044     		add	r0, r0, r8
 559 03c4 6244     		add	r2, r2, ip
 560 03c6 49F8042C 		str	r2, [r9, #-4]
 252:.\camera_functions.c ****                     bottom[j]=top[j];
 561              		.loc 1 252 0
 562 03ca 50F8042C 		ldr	r2, [r0, #-4]
 563 03ce 0132     		adds	r2, r2, #1
 564 03d0 40F8042C 		str	r2, [r0, #-4]
 565 03d4 2CE7     		b	.L14
 566              	.LVL46:
 567              	.L13:
 204:.\camera_functions.c ****                 //Rule 2: All blank but A, A is new blob type.
 568              		.loc 1 204 0
 569 03d6 BAF1000F 		cmp	r10, #0
 570 03da 3FF429AF 		beq	.L14
 571 03de D3E6     		b	.L31
 572              		.cfi_endproc
 573              	.LFE64:
 574              		.size	CamAnalyseFrame, .-CamAnalyseFrame
 575              		.section	.text.CamGetSequence,"ax",%progbits
 576              		.align	1
 577              		.global	CamGetSequence
 578              		.thumb
 579              		.thumb_func
 580              		.type	CamGetSequence, %function
 581              	CamGetSequence:
 582              	.LFB63:
  57:.\camera_functions.c ****     uint16 orderedScaledX[5];
 583              		.loc 1 57 0
 584              		.cfi_startproc
 585              		@ args = 0, pretend = 0, frame = 56
 586              		@ frame_needed = 0, uses_anonymous_args = 0
 587 0000 F0B5     		push	{r4, r5, r6, r7, lr}
 588              		.cfi_def_cfa_offset 20
 589              		.cfi_offset 4, -20
 590              		.cfi_offset 5, -16
 591              		.cfi_offset 6, -12
 592              		.cfi_offset 7, -8
 593              		.cfi_offset 14, -4
 594 0002 8FB0     		sub	sp, sp, #60
ARM GAS  D:\TEMP\ccgG5kSd.s 			page 17


 595              		.cfi_def_cfa_offset 80
  63:.\camera_functions.c ****     memset(lrgY,0,5*2);
 596              		.loc 1 63 0
 597 0004 08AD     		add	r5, sp, #32
 598 0006 0021     		movs	r1, #0
 599 0008 0A22     		movs	r2, #10
 600 000a 2846     		mov	r0, r5
  65:.\camera_functions.c ****     memset(orderedScaledX,0,5*2);
 601              		.loc 1 65 0
 602 000c 0026     		movs	r6, #0
  63:.\camera_functions.c ****     memset(lrgY,0,5*2);
 603              		.loc 1 63 0
 604 000e FFF7FEFF 		bl	memset
 605              	.LVL47:
  64:.\camera_functions.c ****     memset(lrgClr,0,5);
 606              		.loc 1 64 0
 607 0012 0021     		movs	r1, #0
 608 0014 0A22     		movs	r2, #10
 609 0016 0BA8     		add	r0, sp, #44
 610 0018 FFF7FEFF 		bl	memset
 611              	.LVL48:
  66:.\camera_functions.c ****     memset(orderedScaledY,0,5*2);
 612              		.loc 1 66 0
 613 001c 3146     		mov	r1, r6
 614 001e 0A22     		movs	r2, #10
 615 0020 02A8     		add	r0, sp, #8
  65:.\camera_functions.c ****     memset(orderedScaledX,0,5*2);
 616              		.loc 1 65 0
 617 0022 0096     		str	r6, [sp]
 618 0024 8DF80460 		strb	r6, [sp, #4]
  75:.\camera_functions.c ****         max=0;
 619              		.loc 1 75 0
 620 0028 574C     		ldr	r4, .L83
  66:.\camera_functions.c ****     memset(orderedScaledY,0,5*2);
 621              		.loc 1 66 0
 622 002a FFF7FEFF 		bl	memset
 623              	.LVL49:
  67:.\camera_functions.c ****     memset(orderedScaledClr,0,5);
 624              		.loc 1 67 0
 625 002e 3146     		mov	r1, r6
 626 0030 0A22     		movs	r2, #10
 627 0032 05A8     		add	r0, sp, #20
 628 0034 FFF7FEFF 		bl	memset
 629              	.LVL50:
  68:.\camera_functions.c ****     
 630              		.loc 1 68 0
 631 0038 3146     		mov	r1, r6
 632 003a 0522     		movs	r2, #5
 633 003c 5348     		ldr	r0, .L83+4
 634 003e FFF7FEFF 		bl	memset
 635              	.LVL51:
  71:.\camera_functions.c ****     
 636              		.loc 1 71 0
 637 0042 FFF7FEFF 		bl	CamAnalyseFrame
 638              	.LVL52:
  77:.\camera_functions.c ****             if(scaledElements[k]>scaledElements[max])
 639              		.loc 1 77 0
ARM GAS  D:\TEMP\ccgG5kSd.s 			page 18


 640 0046 A778     		ldrb	r7, [r4, #2]	@ zero_extendqisi2
 641              	.LVL53:
 642              	.L60:
  75:.\camera_functions.c ****         max=0;
 643              		.loc 1 75 0 discriminator 1
 644 0048 052E     		cmp	r6, #5
 645 004a 4FF00003 		mov	r3, #0
 646 004e 41D0     		beq	.L64
 647 0050 1A46     		mov	r2, r3
 648              	.L63:
 649 0052 98B2     		uxth	r0, r3
 650              	.LVL54:
  77:.\camera_functions.c ****             if(scaledElements[k]>scaledElements[max])
 651              		.loc 1 77 0 discriminator 1
 652 0054 B842     		cmp	r0, r7
 653 0056 4E49     		ldr	r1, .L83+8
 654 0058 08D2     		bcs	.L78
  78:.\camera_functions.c ****                 max=k;
 655              		.loc 1 78 0
 656 005a 51F823E0 		ldr	lr, [r1, r3, lsl #2]
 657 005e 51F82210 		ldr	r1, [r1, r2, lsl #2]
 658 0062 0133     		adds	r3, r3, #1
 659 0064 8E45     		cmp	lr, r1
 660 0066 C8BF     		it	gt
 661 0068 0246     		movgt	r2, r0
 662              	.LVL55:
 663 006a F2E7     		b	.L63
 664              	.L78:
  81:.\camera_functions.c ****         lrgY[j]=scaledY[max];
 665              		.loc 1 81 0 discriminator 2
 666 006c 4948     		ldr	r0, .L83+12
 667 006e 0EAB     		add	r3, sp, #56
 668 0070 30F81200 		ldrh	r0, [r0, r2, lsl #1]
 669 0074 03EB4603 		add	r3, r3, r6, lsl #1
 670 0078 23F8180C 		strh	r0, [r3, #-24]	@ movhi
  82:.\camera_functions.c ****         lrgClr[j]=scaledClr[max];
 671              		.loc 1 82 0 discriminator 2
 672 007c 4648     		ldr	r0, .L83+16
 673 007e 30F81200 		ldrh	r0, [r0, r2, lsl #1]
 674 0082 23F80C0C 		strh	r0, [r3, #-12]	@ movhi
  83:.\camera_functions.c ****         scaledElements[max]=0; //Reset Value of Counter, as to not find it again.
 675              		.loc 1 83 0 discriminator 2
 676 0086 4548     		ldr	r0, .L83+20
 677 0088 0EAB     		add	r3, sp, #56
 678 008a 805C     		ldrb	r0, [r0, r2]	@ zero_extendqisi2
 679 008c 3344     		add	r3, r3, r6
 680 008e 03F8380C 		strb	r0, [r3, #-56]
 681 0092 0136     		adds	r6, r6, #1
  84:.\camera_functions.c ****     }
 682              		.loc 1 84 0 discriminator 2
 683 0094 0023     		movs	r3, #0
 684 0096 41F82230 		str	r3, [r1, r2, lsl #2]
 685 009a B6B2     		uxth	r6, r6
 686 009c D4E7     		b	.L60
 687              	.LVL56:
 688              	.L80:
  95:.\camera_functions.c ****         orderedScaledY[j]=lrgY[max];
ARM GAS  D:\TEMP\ccgG5kSd.s 			page 19


 689              		.loc 1 95 0 discriminator 2
 690 009e 0EAA     		add	r2, sp, #56
 691 00a0 02EB4306 		add	r6, r2, r3, lsl #1
 692 00a4 0A44     		add	r2, r2, r1
 693 00a6 32F8181C 		ldrh	r1, [r2, #-24]
 694 00aa 26F8301C 		strh	r1, [r6, #-48]	@ movhi
  96:.\camera_functions.c ****         orderedScaledClr[j]=lrgClr[max];
 695              		.loc 1 96 0 discriminator 2
 696 00ae 32F80C1C 		ldrh	r1, [r2, #-12]
 697 00b2 26F8241C 		strh	r1, [r6, #-36]	@ movhi
  97:.\camera_functions.c ****         lrgX[max]=0; //Reset Counter, to not find again.
 698              		.loc 1 97 0 discriminator 2
 699 00b6 0EA9     		add	r1, sp, #56
 700 00b8 0844     		add	r0, r0, r1
 701              	.LVL57:
 702 00ba 10F8386C 		ldrb	r6, [r0, #-56]	@ zero_extendqisi2
 703 00be 3349     		ldr	r1, .L83+4
 704 00c0 CE54     		strb	r6, [r1, r3]
  98:.\camera_functions.c ****         lrgY[max]=0;
 705              		.loc 1 98 0 discriminator 2
 706 00c2 0021     		movs	r1, #0
 707 00c4 0133     		adds	r3, r3, #1
 708 00c6 22F8181C 		strh	r1, [r2, #-24]	@ movhi
  99:.\camera_functions.c ****         lrgClr[max]=0;
 709              		.loc 1 99 0 discriminator 2
 710 00ca 22F80C1C 		strh	r1, [r2, #-12]	@ movhi
 100:.\camera_functions.c ****     }    
 711              		.loc 1 100 0 discriminator 2
 712 00ce 00F8381C 		strb	r1, [r0, #-56]
 713 00d2 9BB2     		uxth	r3, r3
 714              	.L64:
  88:.\camera_functions.c ****         max=0;
 715              		.loc 1 88 0 discriminator 1
 716 00d4 052B     		cmp	r3, #5
 717 00d6 4FF00002 		mov	r2, #0
 718 00da 10D0     		beq	.L79
 719 00dc 1046     		mov	r0, r2
 720              	.L67:
  90:.\camera_functions.c ****             //Find Largest
 721              		.loc 1 90 0 discriminator 1
 722 00de 052A     		cmp	r2, #5
 723 00e0 96B2     		uxth	r6, r2
 724              	.LVL58:
 725 00e2 4FEA4001 		lsl	r1, r0, #1
 726 00e6 DAD0     		beq	.L80
  92:.\camera_functions.c ****                 max=k;
 727              		.loc 1 92 0
 728 00e8 0EAF     		add	r7, sp, #56
 729 00ea 3944     		add	r1, r1, r7
 730 00ec 31F8181C 		ldrh	r1, [r1, #-24]
 731 00f0 35F81270 		ldrh	r7, [r5, r2, lsl #1]
 732 00f4 0132     		adds	r2, r2, #1
 733 00f6 8F42     		cmp	r7, r1
 734 00f8 88BF     		it	hi
 735 00fa 3046     		movhi	r0, r6
 736              	.LVL59:
 737 00fc EFE7     		b	.L67
ARM GAS  D:\TEMP\ccgG5kSd.s 			page 20


 738              	.LVL60:
 739              	.L79:
 740 00fe A380     		strh	r3, [r4, #4]	@ movhi
 104:.\camera_functions.c ****         LCD_SetWindowWrite(offset+(k-1)*2+k*15,0,offset+k*15 + (k-1)*2+14,4);
 741              		.loc 1 104 0
 742 0100 E280     		strh	r2, [r4, #6]	@ movhi
 743              	.L68:
 104:.\camera_functions.c ****         LCD_SetWindowWrite(offset+(k-1)*2+k*15,0,offset+k*15 + (k-1)*2+14,4);
 744              		.loc 1 104 0 is_stmt 0 discriminator 1
 745 0102 E288     		ldrh	r2, [r4, #6]
 746 0104 042A     		cmp	r2, #4
 747 0106 3DD8     		bhi	.L81
 105:.\camera_functions.c ****         if(orderedScaledClr[k]==RED){ //R
 748              		.loc 1 105 0 is_stmt 1
 749 0108 C2EB0211 		rsb	r1, r2, r2, lsl #4
 750 010c 8BB2     		uxth	r3, r1
 751 010e 02F10E00 		add	r0, r2, #14
 752 0112 03EB4202 		add	r2, r3, r2, lsl #1
 753 0116 03EB4000 		add	r0, r3, r0, lsl #1
 754 011a 2A32     		adds	r2, r2, #42
 755 011c 92B2     		uxth	r2, r2
 756 011e 0423     		movs	r3, #4
 757 0120 80B2     		uxth	r0, r0
 758 0122 0021     		movs	r1, #0
 759 0124 FFF7FEFF 		bl	LCD_SetWindowWrite
 760              	.LVL61:
 106:.\camera_functions.c ****             loadPix.R=255;
 761              		.loc 1 106 0
 762 0128 174B     		ldr	r3, .L83
 763 012a 184A     		ldr	r2, .L83+4
 764 012c DB88     		ldrh	r3, [r3, #6]
 765 012e 1C4D     		ldr	r5, .L83+24
 766 0130 D25C     		ldrb	r2, [r2, r3]	@ zero_extendqisi2
 767 0132 22B9     		cbnz	r2, .L69
 107:.\camera_functions.c ****             loadPix.G=0;
 768              		.loc 1 107 0
 769 0134 FF23     		movs	r3, #255
 770 0136 2B70     		strb	r3, [r5]
 108:.\camera_functions.c ****             loadPix.B=0;
 771              		.loc 1 108 0
 772 0138 6A70     		strb	r2, [r5, #1]
 109:.\camera_functions.c ****         } else if (orderedScaledClr[k]==GREEN){ //G
 773              		.loc 1 109 0
 774 013a AA70     		strb	r2, [r5, #2]
 775 013c 0BE0     		b	.L70
 776              	.L69:
 777 013e 0023     		movs	r3, #0
 110:.\camera_functions.c ****             loadPix.R=0;
 778              		.loc 1 110 0
 779 0140 012A     		cmp	r2, #1
 111:.\camera_functions.c ****             loadPix.G=255;
 780              		.loc 1 111 0
 781 0142 2B70     		strb	r3, [r5]
 110:.\camera_functions.c ****             loadPix.R=0;
 782              		.loc 1 110 0
 783 0144 02D1     		bne	.L71
 112:.\camera_functions.c ****             loadPix.B=0;} 
ARM GAS  D:\TEMP\ccgG5kSd.s 			page 21


 784              		.loc 1 112 0
 785 0146 FF22     		movs	r2, #255
 786 0148 6A70     		strb	r2, [r5, #1]
 787 014a 03E0     		b	.L72
 788              	.L71:
 114:.\camera_functions.c ****             loadPix.R=0;
 789              		.loc 1 114 0
 790 014c 022A     		cmp	r2, #2
 116:.\camera_functions.c ****             loadPix.B=255;
 791              		.loc 1 116 0
 792 014e 6B70     		strb	r3, [r5, #1]
 117:.\camera_functions.c ****         } else {
 793              		.loc 1 117 0
 794 0150 08BF     		it	eq
 795 0152 FF23     		moveq	r3, #255
 796              	.L72:
 121:.\camera_functions.c ****         }   
 797              		.loc 1 121 0
 798 0154 AB70     		strb	r3, [r5, #2]
 799              	.L70:
 123:.\camera_functions.c ****             LCD_WritePixel(loadPix);
 800              		.loc 1 123 0
 801 0156 0023     		movs	r3, #0
 802 0158 A380     		strh	r3, [r4, #4]	@ movhi
 803              	.L73:
 123:.\camera_functions.c ****             LCD_WritePixel(loadPix);
 804              		.loc 1 123 0 is_stmt 0 discriminator 1
 805 015a A388     		ldrh	r3, [r4, #4]
 806 015c 0A4E     		ldr	r6, .L83
 807 015e 4A2B     		cmp	r3, #74
 808 0160 0CD8     		bhi	.L82
 124:.\camera_functions.c ****     }
 809              		.loc 1 124 0 is_stmt 1 discriminator 3
 810 0162 6878     		ldrb	r0, [r5, #1]	@ zero_extendqisi2
 811 0164 2B78     		ldrb	r3, [r5]	@ zero_extendqisi2
 812 0166 43EA0023 		orr	r3, r3, r0, lsl #8
 813 016a A878     		ldrb	r0, [r5, #2]	@ zero_extendqisi2
 814 016c 43EA0040 		orr	r0, r3, r0, lsl #16
 815 0170 FFF7FEFF 		bl	LCD_WritePixel
 816              	.LVL62:
 123:.\camera_functions.c ****             LCD_WritePixel(loadPix);
 817              		.loc 1 123 0 discriminator 3
 818 0174 B388     		ldrh	r3, [r6, #4]
 819 0176 0133     		adds	r3, r3, #1
 820 0178 B380     		strh	r3, [r6, #4]	@ movhi
 821 017a EEE7     		b	.L73
 822              	.L82:
 104:.\camera_functions.c ****         LCD_SetWindowWrite(offset+(k-1)*2+k*15,0,offset+k*15 + (k-1)*2+14,4);
 823              		.loc 1 104 0 discriminator 2
 824 017c F388     		ldrh	r3, [r6, #6]
 825 017e 0133     		adds	r3, r3, #1
 826 0180 F380     		strh	r3, [r6, #6]	@ movhi
 827 0182 BEE7     		b	.L68
 828              	.L81:
 126:.\camera_functions.c **** 
 829              		.loc 1 126 0
 830 0184 0FB0     		add	sp, sp, #60
ARM GAS  D:\TEMP\ccgG5kSd.s 			page 22


 831              		.cfi_def_cfa_offset 20
 832              		@ sp needed
 833 0186 F0BD     		pop	{r4, r5, r6, r7, pc}
 834              	.L84:
 835              		.align	2
 836              	.L83:
 837 0188 00000000 		.word	.LANCHOR0
 838 018c 00000000 		.word	orderedScaledClr
 839 0190 00000000 		.word	scaledElements
 840 0194 00000000 		.word	scaledX
 841 0198 00000000 		.word	scaledY
 842 019c 00000000 		.word	scaledClr
 843 01a0 00000000 		.word	loadPix
 844              		.cfi_endproc
 845              	.LFE63:
 846              		.size	CamGetSequence, .-CamGetSequence
 847              		.section	.text.CamMarkBlobs,"ax",%progbits
 848              		.align	1
 849              		.global	CamMarkBlobs
 850              		.thumb
 851              		.thumb_func
 852              		.type	CamMarkBlobs, %function
 853              	CamMarkBlobs:
 854              	.LFB65:
 270:.\camera_functions.c **** 
 271:.\camera_functions.c **** /*******************************************************************************
 272:.\camera_functions.c **** * Function Name: CamMarkBlobs
 273:.\camera_functions.c **** ****************************************************************************//**
 274:.\camera_functions.c **** *
 275:.\camera_functions.c **** * Takes the scaledX,Y data, and generates a white 10x10 square at the area 
 276:.\camera_functions.c **** * of interest. This shows the effective pinpointing done, in real time.
 277:.\camera_functions.c **** * 'i' holds how many blobs have been detected prior, from an Analyse Frame call.
 278:.\camera_functions.c **** *
 279:.\camera_functions.c **** *******************************************************************************/
 280:.\camera_functions.c **** 
 281:.\camera_functions.c **** void CamMarkBlobs() {
 855              		.loc 1 281 0
 856              		.cfi_startproc
 857              		@ args = 0, pretend = 0, frame = 0
 858              		@ frame_needed = 0, uses_anonymous_args = 0
 282:.\camera_functions.c ****     loadPix.R=255;
 859              		.loc 1 282 0
 860 0000 1B4B     		ldr	r3, .L92
 281:.\camera_functions.c ****     loadPix.R=255;
 861              		.loc 1 281 0
 862 0002 70B5     		push	{r4, r5, r6, lr}
 863              		.cfi_def_cfa_offset 16
 864              		.cfi_offset 4, -16
 865              		.cfi_offset 5, -12
 866              		.cfi_offset 6, -8
 867              		.cfi_offset 14, -4
 868 0004 1E46     		mov	r6, r3
 869              		.loc 1 282 0
 870 0006 FF22     		movs	r2, #255
 283:.\camera_functions.c ****     loadPix.G=255;
 284:.\camera_functions.c ****     loadPix.B=255;
 285:.\camera_functions.c ****     for (j=0;j<i; j++) {
ARM GAS  D:\TEMP\ccgG5kSd.s 			page 23


 871              		.loc 1 285 0
 872 0008 1A4C     		ldr	r4, .L92+4
 282:.\camera_functions.c ****     loadPix.G=255;
 873              		.loc 1 282 0
 874 000a 1A70     		strb	r2, [r3]
 283:.\camera_functions.c ****     loadPix.G=255;
 875              		.loc 1 283 0
 876 000c 5A70     		strb	r2, [r3, #1]
 284:.\camera_functions.c ****     for (j=0;j<i; j++) {
 877              		.loc 1 284 0
 878 000e 9A70     		strb	r2, [r3, #2]
 879              		.loc 1 285 0
 880 0010 0022     		movs	r2, #0
 881 0012 A280     		strh	r2, [r4, #4]	@ movhi
 882              	.L86:
 883              		.loc 1 285 0 is_stmt 0 discriminator 1
 884 0014 A388     		ldrh	r3, [r4, #4]
 885 0016 A278     		ldrb	r2, [r4, #2]	@ zero_extendqisi2
 886 0018 9A42     		cmp	r2, r3
 887 001a 27D9     		bls	.L90
 286:.\camera_functions.c ****         LCD_SetWindowWrite(scaledX[j]-5,scaledY[j]-5,scaledX[j]+5,scaledY[j]+5);
 888              		.loc 1 286 0 is_stmt 1
 889 001c 1649     		ldr	r1, .L92+8
 890 001e 174A     		ldr	r2, .L92+12
 891 0020 32F81320 		ldrh	r2, [r2, r3, lsl #1]
 892 0024 31F81330 		ldrh	r3, [r1, r3, lsl #1]
 893 0028 501F     		subs	r0, r2, #5
 894 002a 591F     		subs	r1, r3, #5
 895 002c 0532     		adds	r2, r2, #5
 896 002e 0533     		adds	r3, r3, #5
 897 0030 92B2     		uxth	r2, r2
 898 0032 9BB2     		uxth	r3, r3
 899 0034 80B2     		uxth	r0, r0
 900 0036 89B2     		uxth	r1, r1
 901 0038 FFF7FEFF 		bl	LCD_SetWindowWrite
 902              	.LVL63:
 287:.\camera_functions.c ****         for (k=0;k<100;k++) {
 903              		.loc 1 287 0
 904 003c 0D4B     		ldr	r3, .L92+4
 905 003e 0022     		movs	r2, #0
 906 0040 DA80     		strh	r2, [r3, #6]	@ movhi
 907              	.L87:
 908              		.loc 1 287 0 is_stmt 0 discriminator 1
 909 0042 E388     		ldrh	r3, [r4, #6]
 910 0044 0B4D     		ldr	r5, .L92+4
 911 0046 632B     		cmp	r3, #99
 912 0048 0CD8     		bhi	.L91
 288:.\camera_functions.c ****             LCD_WritePixel(loadPix);
 913              		.loc 1 288 0 is_stmt 1 discriminator 3
 914 004a 7078     		ldrb	r0, [r6, #1]	@ zero_extendqisi2
 915 004c 3378     		ldrb	r3, [r6]	@ zero_extendqisi2
 916 004e 43EA0023 		orr	r3, r3, r0, lsl #8
 917 0052 B078     		ldrb	r0, [r6, #2]	@ zero_extendqisi2
 918 0054 43EA0040 		orr	r0, r3, r0, lsl #16
 919 0058 FFF7FEFF 		bl	LCD_WritePixel
 920              	.LVL64:
 287:.\camera_functions.c ****         for (k=0;k<100;k++) {
ARM GAS  D:\TEMP\ccgG5kSd.s 			page 24


 921              		.loc 1 287 0 discriminator 3
 922 005c EB88     		ldrh	r3, [r5, #6]
 923 005e 0133     		adds	r3, r3, #1
 924 0060 EB80     		strh	r3, [r5, #6]	@ movhi
 925 0062 EEE7     		b	.L87
 926              	.L91:
 285:.\camera_functions.c ****         LCD_SetWindowWrite(scaledX[j]-5,scaledY[j]-5,scaledX[j]+5,scaledY[j]+5);
 927              		.loc 1 285 0 discriminator 2
 928 0064 AB88     		ldrh	r3, [r5, #4]
 929 0066 0133     		adds	r3, r3, #1
 930 0068 AB80     		strh	r3, [r5, #4]	@ movhi
 931 006a D3E7     		b	.L86
 932              	.L90:
 289:.\camera_functions.c ****         }
 290:.\camera_functions.c ****     }
 291:.\camera_functions.c **** }
 933              		.loc 1 291 0
 934 006c 70BD     		pop	{r4, r5, r6, pc}
 935              	.L93:
 936 006e 00BF     		.align	2
 937              	.L92:
 938 0070 00000000 		.word	loadPix
 939 0074 00000000 		.word	.LANCHOR0
 940 0078 00000000 		.word	scaledY
 941 007c 00000000 		.word	scaledX
 942              		.cfi_endproc
 943              	.LFE65:
 944              		.size	CamMarkBlobs, .-CamMarkBlobs
 945              		.section	.text.CamScanClosest,"ax",%progbits
 946              		.align	1
 947              		.global	CamScanClosest
 948              		.thumb
 949              		.thumb_func
 950              		.type	CamScanClosest, %function
 951              	CamScanClosest:
 952              	.LFB66:
 292:.\camera_functions.c **** 
 293:.\camera_functions.c **** /*******************************************************************************
 294:.\camera_functions.c **** * Function Name: CamScanClosest
 295:.\camera_functions.c **** ****************************************************************************//**
 296:.\camera_functions.c **** *
 297:.\camera_functions.c **** * Finds the closest puck of a specific colour, using depth perception.
 298:.\camera_functions.c **** * Returns False if no puck is found.
 299:.\camera_functions.c **** *
 300:.\camera_functions.c **** *******************************************************************************/
 301:.\camera_functions.c **** 
 302:.\camera_functions.c **** bool CamScanClosest(uint8 clr) {
 953              		.loc 1 302 0
 954              		.cfi_startproc
 955              		@ args = 0, pretend = 0, frame = 0
 956              		@ frame_needed = 0, uses_anonymous_args = 0
 957              	.LVL65:
 958 0000 F8B5     		push	{r3, r4, r5, r6, r7, lr}
 959              		.cfi_def_cfa_offset 24
 960              		.cfi_offset 3, -24
 961              		.cfi_offset 4, -20
 962              		.cfi_offset 5, -16
ARM GAS  D:\TEMP\ccgG5kSd.s 			page 25


 963              		.cfi_offset 6, -12
 964              		.cfi_offset 7, -8
 965              		.cfi_offset 14, -4
 966              		.loc 1 302 0
 967 0002 0646     		mov	r6, r0
 303:.\camera_functions.c ****     //Get a frame and find significant blobs.
 304:.\camera_functions.c ****     CamAnalyseFrame();
 968              		.loc 1 304 0
 969 0004 FFF7FEFF 		bl	CamAnalyseFrame
 970              	.LVL66:
 305:.\camera_functions.c ****     CamMarkBlobs();
 971              		.loc 1 305 0
 972 0008 FFF7FEFF 		bl	CamMarkBlobs
 973              	.LVL67:
 974 000c 0022     		movs	r2, #0
 975 000e 1046     		mov	r0, r2
 306:.\camera_functions.c ****     //Reset Counters for X and Y values.
 307:.\camera_functions.c ****     closestX=0;
 308:.\camera_functions.c ****     closestY=0;
 309:.\camera_functions.c ****     
 310:.\camera_functions.c ****     //i Holds how many blobs have been detected.
 311:.\camera_functions.c ****     for (j=0; j<i; j++) {
 976              		.loc 1 311 0
 977 0010 1346     		mov	r3, r2
 978 0012 244D     		ldr	r5, .L108
 979 0014 AC78     		ldrb	r4, [r5, #2]	@ zero_extendqisi2
 980              	.L95:
 981              		.loc 1 311 0 is_stmt 0 discriminator 1
 982 0016 A342     		cmp	r3, r4
 983 0018 0FD2     		bcs	.L106
 312:.\camera_functions.c ****         if (closestY < scaledY[j] && scaledClr[j]==clr) {
 984              		.loc 1 312 0 is_stmt 1
 985 001a 2349     		ldr	r1, .L108+4
 986 001c 31F81310 		ldrh	r1, [r1, r3, lsl #1]
 987 0020 8A42     		cmp	r2, r1
 988 0022 07D2     		bcs	.L96
 989              		.loc 1 312 0 is_stmt 0 discriminator 1
 990 0024 214F     		ldr	r7, .L108+8
 991 0026 FF5C     		ldrb	r7, [r7, r3]	@ zero_extendqisi2
 992 0028 B742     		cmp	r7, r6
 313:.\camera_functions.c ****             closestY = scaledY[j];
 314:.\camera_functions.c ****             closestX = scaledX[j];
 993              		.loc 1 314 0 is_stmt 1 discriminator 1
 994 002a 02BF     		ittt	eq
 995 002c 204A     		ldreq	r2, .L108+12
 996 002e 32F81300 		ldrheq	r0, [r2, r3, lsl #1]
 997 0032 0A46     		moveq	r2, r1
 998              	.L96:
 999 0034 0133     		adds	r3, r3, #1
 1000 0036 9BB2     		uxth	r3, r3
 1001 0038 EDE7     		b	.L95
 1002              	.L106:
 1003 003a 1E49     		ldr	r1, .L108+16
 1004 003c AB80     		strh	r3, [r5, #4]	@ movhi
 1005 003e 0A80     		strh	r2, [r1]	@ movhi
 1006 0040 1D4A     		ldr	r2, .L108+20
 1007 0042 1080     		strh	r0, [r2]	@ movhi
ARM GAS  D:\TEMP\ccgG5kSd.s 			page 26


 315:.\camera_functions.c ****         }
 316:.\camera_functions.c ****     }
 317:.\camera_functions.c ****     
 318:.\camera_functions.c ****     if(closestX != 0) {
 1008              		.loc 1 318 0
 1009 0044 68B3     		cbz	r0, .L98
 319:.\camera_functions.c ****     
 320:.\camera_functions.c ****         //mark closest with inverted colour.
 321:.\camera_functions.c ****         LCD_SetWindowWrite(closestX-5,closestY-5,closestX+5,closestY+5);
 1010              		.loc 1 321 0
 1011 0046 0B88     		ldrh	r3, [r1]
 1012 0048 441F     		subs	r4, r0, #5
 1013 004a 591F     		subs	r1, r3, #5
 1014 004c 421D     		adds	r2, r0, #5
 1015 004e 0533     		adds	r3, r3, #5
 1016 0050 A0B2     		uxth	r0, r4
 1017 0052 9BB2     		uxth	r3, r3
 1018 0054 89B2     		uxth	r1, r1
 1019 0056 92B2     		uxth	r2, r2
 1020 0058 FFF7FEFF 		bl	LCD_SetWindowWrite
 1021              	.LVL68:
 1022 005c 174C     		ldr	r4, .L108+24
 1023 005e FF23     		movs	r3, #255
 322:.\camera_functions.c ****         if (clr == RED) { //Red.
 1024              		.loc 1 322 0
 1025 0060 16B9     		cbnz	r6, .L99
 323:.\camera_functions.c ****             loadPix.R=0;
 1026              		.loc 1 323 0
 1027 0062 2670     		strb	r6, [r4]
 324:.\camera_functions.c ****             loadPix.G=255;
 1028              		.loc 1 324 0
 1029 0064 6370     		strb	r3, [r4, #1]
 1030 0066 07E0     		b	.L105
 1031              	.L99:
 325:.\camera_functions.c ****             loadPix.B=255;
 326:.\camera_functions.c ****         } else if (clr == GREEN){ //Green.
 1032              		.loc 1 326 0
 1033 0068 012E     		cmp	r6, #1
 327:.\camera_functions.c ****             loadPix.R=255;
 328:.\camera_functions.c ****             loadPix.G=0;
 1034              		.loc 1 328 0
 1035 006a 08BF     		it	eq
 1036 006c 0022     		moveq	r2, #0
 327:.\camera_functions.c ****             loadPix.R=255;
 1037              		.loc 1 327 0
 1038 006e 2370     		strb	r3, [r4]
 329:.\camera_functions.c ****             loadPix.B=255;
 330:.\camera_functions.c ****         } else  {
 331:.\camera_functions.c ****             loadPix.R=255;
 332:.\camera_functions.c ****             loadPix.G=255;
 1039              		.loc 1 332 0
 1040 0070 16BF     		itet	ne
 1041 0072 6370     		strbne	r3, [r4, #1]
 328:.\camera_functions.c ****             loadPix.B=255;
 1042              		.loc 1 328 0
 1043 0074 6270     		strbeq	r2, [r4, #1]
 333:.\camera_functions.c ****             loadPix.B=0;
ARM GAS  D:\TEMP\ccgG5kSd.s 			page 27


 1044              		.loc 1 333 0
 1045 0076 0023     		movne	r3, #0
 1046              	.L105:
 1047 0078 A370     		strb	r3, [r4, #2]
 334:.\camera_functions.c ****         }
 335:.\camera_functions.c ****         
 336:.\camera_functions.c ****         for (k=0; k<100; k++) {
 1048              		.loc 1 336 0
 1049 007a 0023     		movs	r3, #0
 1050 007c EB80     		strh	r3, [r5, #6]	@ movhi
 1051              	.L102:
 1052              		.loc 1 336 0 is_stmt 0 discriminator 1
 1053 007e EB88     		ldrh	r3, [r5, #6]
 1054 0080 084E     		ldr	r6, .L108
 1055 0082 632B     		cmp	r3, #99
 1056 0084 0CD8     		bhi	.L107
 337:.\camera_functions.c ****             LCD_WritePixel(loadPix);
 1057              		.loc 1 337 0 is_stmt 1 discriminator 3
 1058 0086 6078     		ldrb	r0, [r4, #1]	@ zero_extendqisi2
 1059 0088 2378     		ldrb	r3, [r4]	@ zero_extendqisi2
 1060 008a 43EA0023 		orr	r3, r3, r0, lsl #8
 1061 008e A078     		ldrb	r0, [r4, #2]	@ zero_extendqisi2
 1062 0090 43EA0040 		orr	r0, r3, r0, lsl #16
 1063 0094 FFF7FEFF 		bl	LCD_WritePixel
 1064              	.LVL69:
 336:.\camera_functions.c ****             LCD_WritePixel(loadPix);
 1065              		.loc 1 336 0 discriminator 3
 1066 0098 F388     		ldrh	r3, [r6, #6]
 1067 009a 0133     		adds	r3, r3, #1
 1068 009c F380     		strh	r3, [r6, #6]	@ movhi
 1069 009e EEE7     		b	.L102
 1070              	.L107:
 338:.\camera_functions.c ****         }
 339:.\camera_functions.c ****     
 340:.\camera_functions.c ****         return true;   
 1071              		.loc 1 340 0
 1072 00a0 0120     		movs	r0, #1
 1073              	.L98:
 341:.\camera_functions.c ****     } else {
 342:.\camera_functions.c ****         return false;      
 343:.\camera_functions.c ****     }
 344:.\camera_functions.c **** }
 1074              		.loc 1 344 0
 1075 00a2 F8BD     		pop	{r3, r4, r5, r6, r7, pc}
 1076              	.L109:
 1077              		.align	2
 1078              	.L108:
 1079 00a4 00000000 		.word	.LANCHOR0
 1080 00a8 00000000 		.word	scaledY
 1081 00ac 00000000 		.word	scaledClr
 1082 00b0 00000000 		.word	scaledX
 1083 00b4 00000000 		.word	closestY
 1084 00b8 00000000 		.word	closestX
 1085 00bc 00000000 		.word	loadPix
 1086              		.cfi_endproc
 1087              	.LFE66:
 1088              		.size	CamScanClosest, .-CamScanClosest
ARM GAS  D:\TEMP\ccgG5kSd.s 			page 28


 1089              		.section	.text.CamMarkClosest,"ax",%progbits
 1090              		.align	1
 1091              		.global	CamMarkClosest
 1092              		.thumb
 1093              		.thumb_func
 1094              		.type	CamMarkClosest, %function
 1095              	CamMarkClosest:
 1096              	.LFB67:
 345:.\camera_functions.c **** 
 346:.\camera_functions.c **** /*******************************************************************************
 347:.\camera_functions.c **** * Function Name: CamMarkClosest
 348:.\camera_functions.c **** ****************************************************************************//**
 349:.\camera_functions.c **** *
 350:.\camera_functions.c **** * Marks the found puck on the display.
 351:.\camera_functions.c **** *
 352:.\camera_functions.c **** *******************************************************************************/
 353:.\camera_functions.c **** void CamMarkClosest() {
 1097              		.loc 1 353 0
 1098              		.cfi_startproc
 1099              		@ args = 0, pretend = 0, frame = 0
 1100              		@ frame_needed = 0, uses_anonymous_args = 0
 1101 0000 70B5     		push	{r4, r5, r6, lr}
 1102              		.cfi_def_cfa_offset 16
 1103              		.cfi_offset 4, -16
 1104              		.cfi_offset 5, -12
 1105              		.cfi_offset 6, -8
 1106              		.cfi_offset 14, -4
 354:.\camera_functions.c ****     loadPix.R=255;
 1107              		.loc 1 354 0
 1108 0002 144C     		ldr	r4, .L114
 1109 0004 FF23     		movs	r3, #255
 1110 0006 2370     		strb	r3, [r4]
 355:.\camera_functions.c ****     loadPix.G=255;
 1111              		.loc 1 355 0
 1112 0008 6370     		strb	r3, [r4, #1]
 356:.\camera_functions.c ****     loadPix.B=255;
 1113              		.loc 1 356 0
 1114 000a A370     		strb	r3, [r4, #2]
 357:.\camera_functions.c ****     LCD_SetWindowWrite(closestX-5,closestY-5,closestX+5,closestY+5);
 1115              		.loc 1 357 0
 1116 000c 124B     		ldr	r3, .L114+4
 1117 000e 1A88     		ldrh	r2, [r3]
 1118 0010 124B     		ldr	r3, .L114+8
 1119 0012 501F     		subs	r0, r2, #5
 1120 0014 1B88     		ldrh	r3, [r3]
 1121 0016 0532     		adds	r2, r2, #5
 1122 0018 591F     		subs	r1, r3, #5
 1123 001a 0533     		adds	r3, r3, #5
 1124 001c 92B2     		uxth	r2, r2
 1125 001e 9BB2     		uxth	r3, r3
 1126 0020 80B2     		uxth	r0, r0
 1127 0022 89B2     		uxth	r1, r1
 1128 0024 FFF7FEFF 		bl	LCD_SetWindowWrite
 1129              	.LVL70:
 358:.\camera_functions.c ****     for (k=0;k<100;k++) {
 1130              		.loc 1 358 0
 1131 0028 0D4B     		ldr	r3, .L114+12
ARM GAS  D:\TEMP\ccgG5kSd.s 			page 29


 1132 002a 0022     		movs	r2, #0
 1133 002c 1D46     		mov	r5, r3
 1134 002e DA80     		strh	r2, [r3, #6]	@ movhi
 1135              	.L111:
 1136              		.loc 1 358 0 is_stmt 0 discriminator 1
 1137 0030 EB88     		ldrh	r3, [r5, #6]
 1138 0032 0B4E     		ldr	r6, .L114+12
 1139 0034 632B     		cmp	r3, #99
 1140 0036 0CD8     		bhi	.L113
 359:.\camera_functions.c ****         LCD_WritePixel(loadPix);
 1141              		.loc 1 359 0 is_stmt 1 discriminator 3
 1142 0038 6078     		ldrb	r0, [r4, #1]	@ zero_extendqisi2
 1143 003a 2378     		ldrb	r3, [r4]	@ zero_extendqisi2
 1144 003c 43EA0023 		orr	r3, r3, r0, lsl #8
 1145 0040 A078     		ldrb	r0, [r4, #2]	@ zero_extendqisi2
 1146 0042 43EA0040 		orr	r0, r3, r0, lsl #16
 1147 0046 FFF7FEFF 		bl	LCD_WritePixel
 1148              	.LVL71:
 358:.\camera_functions.c ****     for (k=0;k<100;k++) {
 1149              		.loc 1 358 0 discriminator 3
 1150 004a F388     		ldrh	r3, [r6, #6]
 1151 004c 0133     		adds	r3, r3, #1
 1152 004e F380     		strh	r3, [r6, #6]	@ movhi
 1153 0050 EEE7     		b	.L111
 1154              	.L113:
 360:.\camera_functions.c ****     }
 361:.\camera_functions.c **** }
 1155              		.loc 1 361 0
 1156 0052 70BD     		pop	{r4, r5, r6, pc}
 1157              	.L115:
 1158              		.align	2
 1159              	.L114:
 1160 0054 00000000 		.word	loadPix
 1161 0058 00000000 		.word	closestX
 1162 005c 00000000 		.word	closestY
 1163 0060 00000000 		.word	.LANCHOR0
 1164              		.cfi_endproc
 1165              	.LFE67:
 1166              		.size	CamMarkClosest, .-CamMarkClosest
 1167              		.comm	closestY,2,2
 1168              		.comm	closestX,2,2
 1169              		.comm	orderedScaledClr,5,1
 1170              		.global	blobCounter
 1171              		.comm	scaledElements,200,4
 1172              		.comm	scaledClr,50,1
 1173              		.comm	scaledY,100,2
 1174              		.comm	scaledX,100,2
 1175              		.global	k
 1176              		.global	j
 1177              		.global	i
 1178              		.comm	loadPix,3,1
 1179              		.global	blobThresholdSize
 1180              		.global	offset
 1181              		.global	numCols
 1182              		.global	numRows
 1183              		.global	BLUE
 1184              		.global	GREEN
ARM GAS  D:\TEMP\ccgG5kSd.s 			page 30


 1185              		.global	RED
 1186              		.comm	Camera_linebuffer,640,4
 1187              		.section	.rodata
 1188              		.align	1
 1189              		.type	blobThresholdSize, %object
 1190              		.size	blobThresholdSize, 1
 1191              	blobThresholdSize:
 1192 0000 50       		.byte	80
 1193              		.type	offset, %object
 1194              		.size	offset, 1
 1195              	offset:
 1196 0001 1E       		.byte	30
 1197              		.type	numCols, %object
 1198              		.size	numCols, 2
 1199              	numCols:
 1200 0002 4001     		.short	320
 1201              		.type	numRows, %object
 1202              		.size	numRows, 1
 1203              	numRows:
 1204 0004 F0       		.byte	-16
 1205              		.type	BLUE, %object
 1206              		.size	BLUE, 1
 1207              	BLUE:
 1208 0005 02       		.byte	2
 1209              		.type	GREEN, %object
 1210              		.size	GREEN, 1
 1211              	GREEN:
 1212 0006 01       		.byte	1
 1213              		.type	RED, %object
 1214              		.size	RED, 1
 1215              	RED:
 1216 0007 00       		.space	1
 1217              		.bss
 1218              		.align	1
 1219              		.set	.LANCHOR0,. + 0
 1220              		.type	blobCounter, %object
 1221              		.size	blobCounter, 2
 1222              	blobCounter:
 1223 0000 0000     		.space	2
 1224              		.type	i, %object
 1225              		.size	i, 1
 1226              	i:
 1227 0002 00       		.space	1
 1228 0003 00       		.space	1
 1229              		.type	j, %object
 1230              		.size	j, 2
 1231              	j:
 1232 0004 0000     		.space	2
 1233              		.type	k, %object
 1234              		.size	k, 2
 1235              	k:
 1236 0006 0000     		.space	2
 1237              		.text
 1238              	.Letext0:
 1239              		.file 2 "d:\\program files (x86)\\cypress\\psoc creator\\3.3\\psoc creator\\import\\gnu\\arm\\4.9.
 1240              		.file 3 "d:\\program files (x86)\\cypress\\psoc creator\\3.3\\psoc creator\\import\\gnu\\arm\\4.9.
 1241              		.file 4 "Generated_Source\\PSoC5/cytypes.h"
ARM GAS  D:\TEMP\ccgG5kSd.s 			page 31


 1242              		.file 5 "Generated_Source\\PSoC5/LCD.h"
 1243              		.file 6 "Generated_Source\\PSoC5/core_cm3.h"
 1244              		.file 7 "Generated_Source\\PSoC5/Camera.h"
 1245              		.file 8 ".\\camera_functions.h"