ARM GAS  D:\TEMP\cciL5Skh.s 			page 1


   1              		.syntax unified
   2              		.cpu cortex-m3
   3              		.fpu softvfp
   4              		.eabi_attribute 20, 1
   5              		.eabi_attribute 21, 1
   6              		.eabi_attribute 23, 3
   7              		.eabi_attribute 24, 1
   8              		.eabi_attribute 25, 1
   9              		.eabi_attribute 26, 1
  10              		.eabi_attribute 30, 4
  11              		.eabi_attribute 34, 1
  12              		.eabi_attribute 18, 4
  13              		.thumb
  14              		.file	"Camera_I2C.c"
  15              		.text
  16              	.Ltext0:
  17              		.cfi_sections	.debug_frame
  18              		.section	.text.Camera_I2C_Init,"ax",%progbits
  19              		.align	1
  20              		.global	Camera_I2C_Init
  21              		.thumb
  22              		.thumb_func
  23              		.type	Camera_I2C_Init, %function
  24              	Camera_I2C_Init:
  25              	.LFB0:
  26              		.file 1 ".\\Generated_Source\\PSoC5\\Camera_I2C.c"
   1:.\Generated_Source\PSoC5/Camera_I2C.c **** /*******************************************************************************
   2:.\Generated_Source\PSoC5/Camera_I2C.c **** * File Name: Camera_I2C.c
   3:.\Generated_Source\PSoC5/Camera_I2C.c **** * Version 3.50
   4:.\Generated_Source\PSoC5/Camera_I2C.c **** *
   5:.\Generated_Source\PSoC5/Camera_I2C.c **** * Description:
   6:.\Generated_Source\PSoC5/Camera_I2C.c **** *  This file provides the source code of APIs for the I2C component.
   7:.\Generated_Source\PSoC5/Camera_I2C.c **** *  The actual protocol and operation code resides in the interrupt service
   8:.\Generated_Source\PSoC5/Camera_I2C.c **** *  routine file.
   9:.\Generated_Source\PSoC5/Camera_I2C.c **** *
  10:.\Generated_Source\PSoC5/Camera_I2C.c **** *******************************************************************************
  11:.\Generated_Source\PSoC5/Camera_I2C.c **** * Copyright 2008-2015, Cypress Semiconductor Corporation. All rights reserved.
  12:.\Generated_Source\PSoC5/Camera_I2C.c **** * You may use this file only in accordance with the license, terms, conditions,
  13:.\Generated_Source\PSoC5/Camera_I2C.c **** * disclaimers, and limitations in the end user license agreement accompanying
  14:.\Generated_Source\PSoC5/Camera_I2C.c **** * the software package with which this file was provided.
  15:.\Generated_Source\PSoC5/Camera_I2C.c **** *******************************************************************************/
  16:.\Generated_Source\PSoC5/Camera_I2C.c **** 
  17:.\Generated_Source\PSoC5/Camera_I2C.c **** #include "Camera_I2C_PVT.h"
  18:.\Generated_Source\PSoC5/Camera_I2C.c **** 
  19:.\Generated_Source\PSoC5/Camera_I2C.c **** 
  20:.\Generated_Source\PSoC5/Camera_I2C.c **** /**********************************
  21:.\Generated_Source\PSoC5/Camera_I2C.c **** *      System variables
  22:.\Generated_Source\PSoC5/Camera_I2C.c **** **********************************/
  23:.\Generated_Source\PSoC5/Camera_I2C.c **** 
  24:.\Generated_Source\PSoC5/Camera_I2C.c **** uint8 Camera_I2C_initVar = 0u; /* Defines if component was initialized */
  25:.\Generated_Source\PSoC5/Camera_I2C.c **** 
  26:.\Generated_Source\PSoC5/Camera_I2C.c **** volatile uint8 Camera_I2C_state;  /* Current state of I2C FSM */
  27:.\Generated_Source\PSoC5/Camera_I2C.c **** 
  28:.\Generated_Source\PSoC5/Camera_I2C.c **** 
  29:.\Generated_Source\PSoC5/Camera_I2C.c **** /*******************************************************************************
  30:.\Generated_Source\PSoC5/Camera_I2C.c **** * Function Name: Camera_I2C_Init
  31:.\Generated_Source\PSoC5/Camera_I2C.c **** ********************************************************************************
ARM GAS  D:\TEMP\cciL5Skh.s 			page 2


  32:.\Generated_Source\PSoC5/Camera_I2C.c **** *
  33:.\Generated_Source\PSoC5/Camera_I2C.c **** * Summary:
  34:.\Generated_Source\PSoC5/Camera_I2C.c **** *  Initializes I2C registers with initial values provided from customizer.
  35:.\Generated_Source\PSoC5/Camera_I2C.c **** *
  36:.\Generated_Source\PSoC5/Camera_I2C.c **** * Parameters:
  37:.\Generated_Source\PSoC5/Camera_I2C.c **** *  None.
  38:.\Generated_Source\PSoC5/Camera_I2C.c **** *
  39:.\Generated_Source\PSoC5/Camera_I2C.c **** * Return:
  40:.\Generated_Source\PSoC5/Camera_I2C.c **** *  None.
  41:.\Generated_Source\PSoC5/Camera_I2C.c **** *
  42:.\Generated_Source\PSoC5/Camera_I2C.c **** * Global variables:
  43:.\Generated_Source\PSoC5/Camera_I2C.c **** *  None.
  44:.\Generated_Source\PSoC5/Camera_I2C.c **** *
  45:.\Generated_Source\PSoC5/Camera_I2C.c **** * Reentrant:
  46:.\Generated_Source\PSoC5/Camera_I2C.c **** *  No.
  47:.\Generated_Source\PSoC5/Camera_I2C.c **** *
  48:.\Generated_Source\PSoC5/Camera_I2C.c **** *******************************************************************************/
  49:.\Generated_Source\PSoC5/Camera_I2C.c **** void Camera_I2C_Init(void) 
  50:.\Generated_Source\PSoC5/Camera_I2C.c **** {
  27              		.loc 1 50 0
  28              		.cfi_startproc
  29              		@ args = 0, pretend = 0, frame = 0
  30              		@ frame_needed = 0, uses_anonymous_args = 0
  51:.\Generated_Source\PSoC5/Camera_I2C.c **** #if (Camera_I2C_FF_IMPLEMENTED)
  52:.\Generated_Source\PSoC5/Camera_I2C.c ****     /* Configure fixed function block */
  53:.\Generated_Source\PSoC5/Camera_I2C.c ****     Camera_I2C_CFG_REG  = Camera_I2C_DEFAULT_CFG;
  31              		.loc 1 53 0
  32 0000 114B     		ldr	r3, .L2
  33 0002 0222     		movs	r2, #2
  50:.\Generated_Source\PSoC5/Camera_I2C.c **** #if (Camera_I2C_FF_IMPLEMENTED)
  34              		.loc 1 50 0
  35 0004 10B5     		push	{r4, lr}
  36              		.cfi_def_cfa_offset 8
  37              		.cfi_offset 4, -8
  38              		.cfi_offset 14, -4
  39              		.loc 1 53 0
  40 0006 1A70     		strb	r2, [r3]
  54:.\Generated_Source\PSoC5/Camera_I2C.c ****     Camera_I2C_XCFG_REG = Camera_I2C_DEFAULT_XCFG;
  41              		.loc 1 54 0
  42 0008 8122     		movs	r2, #129
  43 000a 03F80E2C 		strb	r2, [r3, #-14]
  55:.\Generated_Source\PSoC5/Camera_I2C.c ****     Camera_I2C_ADDR_REG = Camera_I2C_DEFAULT_ADDR;
  44              		.loc 1 55 0
  45 000e 0822     		movs	r2, #8
  46 0010 03F80C2C 		strb	r2, [r3, #-12]
  56:.\Generated_Source\PSoC5/Camera_I2C.c ****     Camera_I2C_CLKDIV1_REG = LO8(Camera_I2C_DEFAULT_DIVIDE_FACTOR);
  57:.\Generated_Source\PSoC5/Camera_I2C.c ****     Camera_I2C_CLKDIV2_REG = HI8(Camera_I2C_DEFAULT_DIVIDE_FACTOR);
  47              		.loc 1 57 0
  48 0014 0024     		movs	r4, #0
  56:.\Generated_Source\PSoC5/Camera_I2C.c ****     Camera_I2C_CLKDIV1_REG = LO8(Camera_I2C_DEFAULT_DIVIDE_FACTOR);
  49              		.loc 1 56 0
  50 0016 0C22     		movs	r2, #12
  51 0018 5A71     		strb	r2, [r3, #5]
  52              		.loc 1 57 0
  53 001a 9C71     		strb	r4, [r3, #6]
  58:.\Generated_Source\PSoC5/Camera_I2C.c **** 
  59:.\Generated_Source\PSoC5/Camera_I2C.c **** #else
ARM GAS  D:\TEMP\cciL5Skh.s 			page 3


  60:.\Generated_Source\PSoC5/Camera_I2C.c ****     uint8 intState;
  61:.\Generated_Source\PSoC5/Camera_I2C.c **** 
  62:.\Generated_Source\PSoC5/Camera_I2C.c ****     /* Configure control and interrupt sources */
  63:.\Generated_Source\PSoC5/Camera_I2C.c ****     Camera_I2C_CFG_REG      = Camera_I2C_DEFAULT_CFG;
  64:.\Generated_Source\PSoC5/Camera_I2C.c ****     Camera_I2C_INT_MASK_REG = Camera_I2C_DEFAULT_INT_MASK;
  65:.\Generated_Source\PSoC5/Camera_I2C.c **** 
  66:.\Generated_Source\PSoC5/Camera_I2C.c ****     /* Enable interrupt generation in status */
  67:.\Generated_Source\PSoC5/Camera_I2C.c ****     intState = CyEnterCriticalSection();
  68:.\Generated_Source\PSoC5/Camera_I2C.c ****     Camera_I2C_INT_ENABLE_REG |= Camera_I2C_INTR_ENABLE;
  69:.\Generated_Source\PSoC5/Camera_I2C.c ****     CyExitCriticalSection(intState);
  70:.\Generated_Source\PSoC5/Camera_I2C.c **** 
  71:.\Generated_Source\PSoC5/Camera_I2C.c ****     /* Configure bit counter */
  72:.\Generated_Source\PSoC5/Camera_I2C.c ****     #if (Camera_I2C_MODE_SLAVE_ENABLED)
  73:.\Generated_Source\PSoC5/Camera_I2C.c ****         Camera_I2C_PERIOD_REG = Camera_I2C_DEFAULT_PERIOD;
  74:.\Generated_Source\PSoC5/Camera_I2C.c ****     #endif  /* (Camera_I2C_MODE_SLAVE_ENABLED) */
  75:.\Generated_Source\PSoC5/Camera_I2C.c **** 
  76:.\Generated_Source\PSoC5/Camera_I2C.c ****     /* Configure clock generator */
  77:.\Generated_Source\PSoC5/Camera_I2C.c ****     #if (Camera_I2C_MODE_MASTER_ENABLED)
  78:.\Generated_Source\PSoC5/Camera_I2C.c ****         Camera_I2C_MCLK_PRD_REG = Camera_I2C_DEFAULT_MCLK_PRD;
  79:.\Generated_Source\PSoC5/Camera_I2C.c ****         Camera_I2C_MCLK_CMP_REG = Camera_I2C_DEFAULT_MCLK_CMP;
  80:.\Generated_Source\PSoC5/Camera_I2C.c ****     #endif /* (Camera_I2C_MODE_MASTER_ENABLED) */
  81:.\Generated_Source\PSoC5/Camera_I2C.c **** #endif /* (Camera_I2C_FF_IMPLEMENTED) */
  82:.\Generated_Source\PSoC5/Camera_I2C.c **** 
  83:.\Generated_Source\PSoC5/Camera_I2C.c **** #if (Camera_I2C_TIMEOUT_ENABLED)
  84:.\Generated_Source\PSoC5/Camera_I2C.c ****     Camera_I2C_TimeoutInit();
  85:.\Generated_Source\PSoC5/Camera_I2C.c **** #endif /* (Camera_I2C_TIMEOUT_ENABLED) */
  86:.\Generated_Source\PSoC5/Camera_I2C.c **** 
  87:.\Generated_Source\PSoC5/Camera_I2C.c ****     /* Configure internal interrupt */
  88:.\Generated_Source\PSoC5/Camera_I2C.c ****     CyIntDisable    (Camera_I2C_ISR_NUMBER);
  54              		.loc 1 88 0
  55 001c 0B4B     		ldr	r3, .L2+4
  56 001e 4FF40042 		mov	r2, #32768
  57 0022 1A60     		str	r2, [r3]
  89:.\Generated_Source\PSoC5/Camera_I2C.c ****     CyIntSetPriority(Camera_I2C_ISR_NUMBER, Camera_I2C_ISR_PRIORITY);
  58              		.loc 1 89 0
  59 0024 0F20     		movs	r0, #15
  60 0026 0721     		movs	r1, #7
  61 0028 FFF7FEFF 		bl	CyIntSetPriority
  62              	.LVL0:
  90:.\Generated_Source\PSoC5/Camera_I2C.c ****     #if (Camera_I2C_INTERN_I2C_INTR_HANDLER)
  91:.\Generated_Source\PSoC5/Camera_I2C.c ****         (void) CyIntSetVector(Camera_I2C_ISR_NUMBER, &Camera_I2C_ISR);
  63              		.loc 1 91 0
  64 002c 0F20     		movs	r0, #15
  65 002e 0849     		ldr	r1, .L2+8
  66 0030 FFF7FEFF 		bl	CyIntSetVector
  67              	.LVL1:
  92:.\Generated_Source\PSoC5/Camera_I2C.c ****     #endif /* (Camera_I2C_INTERN_I2C_INTR_HANDLER) */
  93:.\Generated_Source\PSoC5/Camera_I2C.c **** 
  94:.\Generated_Source\PSoC5/Camera_I2C.c ****     /* Set FSM to default state */
  95:.\Generated_Source\PSoC5/Camera_I2C.c ****     Camera_I2C_state = Camera_I2C_SM_IDLE;
  68              		.loc 1 95 0
  69 0034 074B     		ldr	r3, .L2+12
  70 0036 1022     		movs	r2, #16
  71 0038 1A70     		strb	r2, [r3]
  96:.\Generated_Source\PSoC5/Camera_I2C.c **** 
  97:.\Generated_Source\PSoC5/Camera_I2C.c **** #if (Camera_I2C_MODE_SLAVE_ENABLED)
  98:.\Generated_Source\PSoC5/Camera_I2C.c ****     /* Clear status and buffers index */
ARM GAS  D:\TEMP\cciL5Skh.s 			page 4


  99:.\Generated_Source\PSoC5/Camera_I2C.c ****     Camera_I2C_slStatus = 0u;
 100:.\Generated_Source\PSoC5/Camera_I2C.c ****     Camera_I2C_slRdBufIndex = 0u;
 101:.\Generated_Source\PSoC5/Camera_I2C.c ****     Camera_I2C_slWrBufIndex = 0u;
 102:.\Generated_Source\PSoC5/Camera_I2C.c **** 
 103:.\Generated_Source\PSoC5/Camera_I2C.c ****     /* Configure matched address */
 104:.\Generated_Source\PSoC5/Camera_I2C.c ****     Camera_I2C_SlaveSetAddress(Camera_I2C_DEFAULT_ADDR);
 105:.\Generated_Source\PSoC5/Camera_I2C.c **** #endif /* (Camera_I2C_MODE_SLAVE_ENABLED) */
 106:.\Generated_Source\PSoC5/Camera_I2C.c **** 
 107:.\Generated_Source\PSoC5/Camera_I2C.c **** #if (Camera_I2C_MODE_MASTER_ENABLED)
 108:.\Generated_Source\PSoC5/Camera_I2C.c ****     /* Clear status and buffers index */
 109:.\Generated_Source\PSoC5/Camera_I2C.c ****     Camera_I2C_mstrStatus = 0u;
  72              		.loc 1 109 0
  73 003a 074B     		ldr	r3, .L2+16
  74 003c 1C70     		strb	r4, [r3]
 110:.\Generated_Source\PSoC5/Camera_I2C.c ****     Camera_I2C_mstrRdBufIndex = 0u;
  75              		.loc 1 110 0
  76 003e 074B     		ldr	r3, .L2+20
  77 0040 1C70     		strb	r4, [r3]
 111:.\Generated_Source\PSoC5/Camera_I2C.c ****     Camera_I2C_mstrWrBufIndex = 0u;
  78              		.loc 1 111 0
  79 0042 074B     		ldr	r3, .L2+24
  80 0044 1C70     		strb	r4, [r3]
  81 0046 10BD     		pop	{r4, pc}
  82              	.L3:
  83              		.align	2
  84              	.L2:
  85 0048 D6490040 		.word	1073760726
  86 004c 80E100E0 		.word	-536813184
  87 0050 00000000 		.word	Camera_I2C_ISR
  88 0054 00000000 		.word	Camera_I2C_state
  89 0058 00000000 		.word	Camera_I2C_mstrStatus
  90 005c 00000000 		.word	Camera_I2C_mstrRdBufIndex
  91 0060 00000000 		.word	Camera_I2C_mstrWrBufIndex
  92              		.cfi_endproc
  93              	.LFE0:
  94              		.size	Camera_I2C_Init, .-Camera_I2C_Init
  95              		.section	.text.Camera_I2C_Enable,"ax",%progbits
  96              		.align	1
  97              		.global	Camera_I2C_Enable
  98              		.thumb
  99              		.thumb_func
 100              		.type	Camera_I2C_Enable, %function
 101              	Camera_I2C_Enable:
 102              	.LFB1:
 112:.\Generated_Source\PSoC5/Camera_I2C.c **** #endif /* (Camera_I2C_MODE_MASTER_ENABLED) */
 113:.\Generated_Source\PSoC5/Camera_I2C.c **** }
 114:.\Generated_Source\PSoC5/Camera_I2C.c **** 
 115:.\Generated_Source\PSoC5/Camera_I2C.c **** 
 116:.\Generated_Source\PSoC5/Camera_I2C.c **** /*******************************************************************************
 117:.\Generated_Source\PSoC5/Camera_I2C.c **** * Function Name: Camera_I2C_Enable
 118:.\Generated_Source\PSoC5/Camera_I2C.c **** ********************************************************************************
 119:.\Generated_Source\PSoC5/Camera_I2C.c **** *
 120:.\Generated_Source\PSoC5/Camera_I2C.c **** * Summary:
 121:.\Generated_Source\PSoC5/Camera_I2C.c **** *  Enables I2C operations.
 122:.\Generated_Source\PSoC5/Camera_I2C.c **** *
 123:.\Generated_Source\PSoC5/Camera_I2C.c **** * Parameters:
 124:.\Generated_Source\PSoC5/Camera_I2C.c **** *  None.
ARM GAS  D:\TEMP\cciL5Skh.s 			page 5


 125:.\Generated_Source\PSoC5/Camera_I2C.c **** *
 126:.\Generated_Source\PSoC5/Camera_I2C.c **** * Return:
 127:.\Generated_Source\PSoC5/Camera_I2C.c **** *  None.
 128:.\Generated_Source\PSoC5/Camera_I2C.c **** *
 129:.\Generated_Source\PSoC5/Camera_I2C.c **** * Global variables:
 130:.\Generated_Source\PSoC5/Camera_I2C.c **** *  None.
 131:.\Generated_Source\PSoC5/Camera_I2C.c **** *
 132:.\Generated_Source\PSoC5/Camera_I2C.c **** *******************************************************************************/
 133:.\Generated_Source\PSoC5/Camera_I2C.c **** void Camera_I2C_Enable(void) 
 134:.\Generated_Source\PSoC5/Camera_I2C.c **** {
 103              		.loc 1 134 0
 104              		.cfi_startproc
 105              		@ args = 0, pretend = 0, frame = 0
 106              		@ frame_needed = 0, uses_anonymous_args = 0
 107 0000 08B5     		push	{r3, lr}
 108              		.cfi_def_cfa_offset 8
 109              		.cfi_offset 3, -8
 110              		.cfi_offset 14, -4
 135:.\Generated_Source\PSoC5/Camera_I2C.c **** #if (Camera_I2C_FF_IMPLEMENTED)
 136:.\Generated_Source\PSoC5/Camera_I2C.c ****     uint8 intState;
 137:.\Generated_Source\PSoC5/Camera_I2C.c **** 
 138:.\Generated_Source\PSoC5/Camera_I2C.c ****     /* Enable power to block */
 139:.\Generated_Source\PSoC5/Camera_I2C.c ****     intState = CyEnterCriticalSection();
 111              		.loc 1 139 0
 112 0002 FFF7FEFF 		bl	CyEnterCriticalSection
 113              	.LVL2:
 140:.\Generated_Source\PSoC5/Camera_I2C.c ****     Camera_I2C_ACT_PWRMGR_REG  |= Camera_I2C_ACT_PWR_EN;
 114              		.loc 1 140 0
 115 0006 064A     		ldr	r2, .L5
 116 0008 1378     		ldrb	r3, [r2]	@ zero_extendqisi2
 117 000a 43F00403 		orr	r3, r3, #4
 118 000e 1370     		strb	r3, [r2]
 141:.\Generated_Source\PSoC5/Camera_I2C.c ****     Camera_I2C_STBY_PWRMGR_REG |= Camera_I2C_STBY_PWR_EN;
 119              		.loc 1 141 0
 120 0010 137C     		ldrb	r3, [r2, #16]	@ zero_extendqisi2
 121 0012 43F00403 		orr	r3, r3, #4
 122 0016 1374     		strb	r3, [r2, #16]
 142:.\Generated_Source\PSoC5/Camera_I2C.c ****     CyExitCriticalSection(intState);
 143:.\Generated_Source\PSoC5/Camera_I2C.c **** #else
 144:.\Generated_Source\PSoC5/Camera_I2C.c ****     #if (Camera_I2C_MODE_SLAVE_ENABLED)
 145:.\Generated_Source\PSoC5/Camera_I2C.c ****         /* Enable bit counter */
 146:.\Generated_Source\PSoC5/Camera_I2C.c ****         uint8 intState = CyEnterCriticalSection();
 147:.\Generated_Source\PSoC5/Camera_I2C.c ****         Camera_I2C_COUNTER_AUX_CTL_REG |= Camera_I2C_CNT7_ENABLE;
 148:.\Generated_Source\PSoC5/Camera_I2C.c ****         CyExitCriticalSection(intState);
 149:.\Generated_Source\PSoC5/Camera_I2C.c ****     #endif /* (Camera_I2C_MODE_SLAVE_ENABLED) */
 150:.\Generated_Source\PSoC5/Camera_I2C.c **** 
 151:.\Generated_Source\PSoC5/Camera_I2C.c ****     /* Enable slave or master bits */
 152:.\Generated_Source\PSoC5/Camera_I2C.c ****     Camera_I2C_CFG_REG |= Camera_I2C_ENABLE_MS;
 153:.\Generated_Source\PSoC5/Camera_I2C.c **** #endif /* (Camera_I2C_FF_IMPLEMENTED) */
 154:.\Generated_Source\PSoC5/Camera_I2C.c **** 
 155:.\Generated_Source\PSoC5/Camera_I2C.c **** #if (Camera_I2C_TIMEOUT_ENABLED)
 156:.\Generated_Source\PSoC5/Camera_I2C.c ****     Camera_I2C_TimeoutEnable();
 157:.\Generated_Source\PSoC5/Camera_I2C.c **** #endif /* (Camera_I2C_TIMEOUT_ENABLED) */
 158:.\Generated_Source\PSoC5/Camera_I2C.c **** }
 123              		.loc 1 158 0
 124 0018 BDE80840 		pop	{r3, lr}
 125              		.cfi_restore 14
ARM GAS  D:\TEMP\cciL5Skh.s 			page 6


 126              		.cfi_restore 3
 127              		.cfi_def_cfa_offset 0
 142:.\Generated_Source\PSoC5/Camera_I2C.c ****     CyExitCriticalSection(intState);
 128              		.loc 1 142 0
 129 001c FFF7FEBF 		b	CyExitCriticalSection
 130              	.LVL3:
 131              	.L6:
 132              		.align	2
 133              	.L5:
 134 0020 A5430040 		.word	1073759141
 135              		.cfi_endproc
 136              	.LFE1:
 137              		.size	Camera_I2C_Enable, .-Camera_I2C_Enable
 138              		.section	.text.Camera_I2C_Start,"ax",%progbits
 139              		.align	1
 140              		.global	Camera_I2C_Start
 141              		.thumb
 142              		.thumb_func
 143              		.type	Camera_I2C_Start, %function
 144              	Camera_I2C_Start:
 145              	.LFB2:
 159:.\Generated_Source\PSoC5/Camera_I2C.c **** 
 160:.\Generated_Source\PSoC5/Camera_I2C.c **** 
 161:.\Generated_Source\PSoC5/Camera_I2C.c **** /*******************************************************************************
 162:.\Generated_Source\PSoC5/Camera_I2C.c **** * Function Name: Camera_I2C_Start
 163:.\Generated_Source\PSoC5/Camera_I2C.c **** ********************************************************************************
 164:.\Generated_Source\PSoC5/Camera_I2C.c **** *
 165:.\Generated_Source\PSoC5/Camera_I2C.c **** * Summary:
 166:.\Generated_Source\PSoC5/Camera_I2C.c **** *  Starts the I2C hardware. Enables Active mode power template bits or clock
 167:.\Generated_Source\PSoC5/Camera_I2C.c **** *  gating as appropriate. It is required to be executed before I2C bus
 168:.\Generated_Source\PSoC5/Camera_I2C.c **** *  operation.
 169:.\Generated_Source\PSoC5/Camera_I2C.c **** *
 170:.\Generated_Source\PSoC5/Camera_I2C.c **** * Parameters:
 171:.\Generated_Source\PSoC5/Camera_I2C.c **** *  None.
 172:.\Generated_Source\PSoC5/Camera_I2C.c **** *
 173:.\Generated_Source\PSoC5/Camera_I2C.c **** * Return:
 174:.\Generated_Source\PSoC5/Camera_I2C.c **** *  None.
 175:.\Generated_Source\PSoC5/Camera_I2C.c **** *
 176:.\Generated_Source\PSoC5/Camera_I2C.c **** * Side Effects:
 177:.\Generated_Source\PSoC5/Camera_I2C.c **** *  This component automatically enables its interrupt.  If I2C is enabled !
 178:.\Generated_Source\PSoC5/Camera_I2C.c **** *  without the interrupt enabled, it can lock up the I2C bus.
 179:.\Generated_Source\PSoC5/Camera_I2C.c **** *
 180:.\Generated_Source\PSoC5/Camera_I2C.c **** * Global variables:
 181:.\Generated_Source\PSoC5/Camera_I2C.c **** *  Camera_I2C_initVar - This variable is used to check the initial
 182:.\Generated_Source\PSoC5/Camera_I2C.c **** *                             configuration, modified on the first
 183:.\Generated_Source\PSoC5/Camera_I2C.c **** *                             function call.
 184:.\Generated_Source\PSoC5/Camera_I2C.c **** *
 185:.\Generated_Source\PSoC5/Camera_I2C.c **** * Reentrant:
 186:.\Generated_Source\PSoC5/Camera_I2C.c **** *  No.
 187:.\Generated_Source\PSoC5/Camera_I2C.c **** *
 188:.\Generated_Source\PSoC5/Camera_I2C.c **** *******************************************************************************/
 189:.\Generated_Source\PSoC5/Camera_I2C.c **** void Camera_I2C_Start(void) 
 190:.\Generated_Source\PSoC5/Camera_I2C.c **** {
 146              		.loc 1 190 0
 147              		.cfi_startproc
 148              		@ args = 0, pretend = 0, frame = 0
 149              		@ frame_needed = 0, uses_anonymous_args = 0
ARM GAS  D:\TEMP\cciL5Skh.s 			page 7


 150 0000 10B5     		push	{r4, lr}
 151              		.cfi_def_cfa_offset 8
 152              		.cfi_offset 4, -8
 153              		.cfi_offset 14, -4
 191:.\Generated_Source\PSoC5/Camera_I2C.c ****     if (0u == Camera_I2C_initVar)
 154              		.loc 1 191 0
 155 0002 074C     		ldr	r4, .L10
 156 0004 2378     		ldrb	r3, [r4]	@ zero_extendqisi2
 157 0006 1BB9     		cbnz	r3, .L8
 192:.\Generated_Source\PSoC5/Camera_I2C.c ****     {
 193:.\Generated_Source\PSoC5/Camera_I2C.c ****         Camera_I2C_Init();
 158              		.loc 1 193 0
 159 0008 FFF7FEFF 		bl	Camera_I2C_Init
 160              	.LVL4:
 194:.\Generated_Source\PSoC5/Camera_I2C.c ****         Camera_I2C_initVar = 1u; /* Component initialized */
 161              		.loc 1 194 0
 162 000c 0123     		movs	r3, #1
 163 000e 2370     		strb	r3, [r4]
 164              	.L8:
 195:.\Generated_Source\PSoC5/Camera_I2C.c ****     }
 196:.\Generated_Source\PSoC5/Camera_I2C.c **** 
 197:.\Generated_Source\PSoC5/Camera_I2C.c ****     Camera_I2C_Enable();
 165              		.loc 1 197 0
 166 0010 FFF7FEFF 		bl	Camera_I2C_Enable
 167              	.LVL5:
 198:.\Generated_Source\PSoC5/Camera_I2C.c ****     Camera_I2C_EnableInt();
 168              		.loc 1 198 0
 169 0014 034B     		ldr	r3, .L10+4
 170 0016 4FF40042 		mov	r2, #32768
 171 001a 1A60     		str	r2, [r3]
 172 001c 10BD     		pop	{r4, pc}
 173              	.L11:
 174 001e 00BF     		.align	2
 175              	.L10:
 176 0020 00000000 		.word	.LANCHOR0
 177 0024 00E100E0 		.word	-536813312
 178              		.cfi_endproc
 179              	.LFE2:
 180              		.size	Camera_I2C_Start, .-Camera_I2C_Start
 181              		.section	.text.Camera_I2C_Stop,"ax",%progbits
 182              		.align	1
 183              		.global	Camera_I2C_Stop
 184              		.thumb
 185              		.thumb_func
 186              		.type	Camera_I2C_Stop, %function
 187              	Camera_I2C_Stop:
 188              	.LFB3:
 199:.\Generated_Source\PSoC5/Camera_I2C.c **** }
 200:.\Generated_Source\PSoC5/Camera_I2C.c **** 
 201:.\Generated_Source\PSoC5/Camera_I2C.c **** 
 202:.\Generated_Source\PSoC5/Camera_I2C.c **** /*******************************************************************************
 203:.\Generated_Source\PSoC5/Camera_I2C.c **** * Function Name: Camera_I2C_Stop
 204:.\Generated_Source\PSoC5/Camera_I2C.c **** ********************************************************************************
 205:.\Generated_Source\PSoC5/Camera_I2C.c **** *
 206:.\Generated_Source\PSoC5/Camera_I2C.c **** * Summary:
 207:.\Generated_Source\PSoC5/Camera_I2C.c **** *  Disables I2C hardware and disables I2C interrupt. Disables Active mode power
 208:.\Generated_Source\PSoC5/Camera_I2C.c **** *  template bits or clock gating as appropriate.
ARM GAS  D:\TEMP\cciL5Skh.s 			page 8


 209:.\Generated_Source\PSoC5/Camera_I2C.c **** *
 210:.\Generated_Source\PSoC5/Camera_I2C.c **** * Parameters:
 211:.\Generated_Source\PSoC5/Camera_I2C.c **** *  None.
 212:.\Generated_Source\PSoC5/Camera_I2C.c **** *
 213:.\Generated_Source\PSoC5/Camera_I2C.c **** * Return:
 214:.\Generated_Source\PSoC5/Camera_I2C.c **** *  None.
 215:.\Generated_Source\PSoC5/Camera_I2C.c **** *
 216:.\Generated_Source\PSoC5/Camera_I2C.c **** *******************************************************************************/
 217:.\Generated_Source\PSoC5/Camera_I2C.c **** void Camera_I2C_Stop(void) 
 218:.\Generated_Source\PSoC5/Camera_I2C.c **** {
 189              		.loc 1 218 0
 190              		.cfi_startproc
 191              		@ args = 0, pretend = 0, frame = 0
 192              		@ frame_needed = 0, uses_anonymous_args = 0
 193 0000 2DE9F843 		push	{r3, r4, r5, r6, r7, r8, r9, lr}
 194              		.cfi_def_cfa_offset 32
 195              		.cfi_offset 3, -32
 196              		.cfi_offset 4, -28
 197              		.cfi_offset 5, -24
 198              		.cfi_offset 6, -20
 199              		.cfi_offset 7, -16
 200              		.cfi_offset 8, -12
 201              		.cfi_offset 9, -8
 202              		.cfi_offset 14, -4
 219:.\Generated_Source\PSoC5/Camera_I2C.c ****     Camera_I2C_DisableInt();
 203              		.loc 1 219 0
 204 0004 224B     		ldr	r3, .L13
 205              	.LBB2:
 220:.\Generated_Source\PSoC5/Camera_I2C.c **** 
 221:.\Generated_Source\PSoC5/Camera_I2C.c **** #if (Camera_I2C_TIMEOUT_ENABLED)
 222:.\Generated_Source\PSoC5/Camera_I2C.c ****     Camera_I2C_TimeoutStop();
 223:.\Generated_Source\PSoC5/Camera_I2C.c **** #endif  /* End (Camera_I2C_TIMEOUT_ENABLED) */
 224:.\Generated_Source\PSoC5/Camera_I2C.c **** 
 225:.\Generated_Source\PSoC5/Camera_I2C.c **** #if (Camera_I2C_FF_IMPLEMENTED)
 226:.\Generated_Source\PSoC5/Camera_I2C.c ****     {
 227:.\Generated_Source\PSoC5/Camera_I2C.c ****         uint8 intState;
 228:.\Generated_Source\PSoC5/Camera_I2C.c ****         uint16 blockResetCycles;
 229:.\Generated_Source\PSoC5/Camera_I2C.c **** 
 230:.\Generated_Source\PSoC5/Camera_I2C.c ****         /* Store registers effected by block disable */
 231:.\Generated_Source\PSoC5/Camera_I2C.c ****         Camera_I2C_backup.addr    = Camera_I2C_ADDR_REG;
 206              		.loc 1 231 0
 207 0006 DFF8A880 		ldr	r8, .L13+32
 208              	.LBE2:
 219:.\Generated_Source\PSoC5/Camera_I2C.c ****     Camera_I2C_DisableInt();
 209              		.loc 1 219 0
 210 000a 4FF40049 		mov	r9, #32768
 211 000e C3F80090 		str	r9, [r3]
 212              	.LBB3:
 213              		.loc 1 231 0
 214 0012 98F80030 		ldrb	r3, [r8]	@ zero_extendqisi2
 215 0016 1F4C     		ldr	r4, .L13+4
 232:.\Generated_Source\PSoC5/Camera_I2C.c ****         Camera_I2C_backup.clkDiv1 = Camera_I2C_CLKDIV1_REG;
 216              		.loc 1 232 0
 217 0018 1F4F     		ldr	r7, .L13+8
 231:.\Generated_Source\PSoC5/Camera_I2C.c ****         Camera_I2C_backup.clkDiv1 = Camera_I2C_CLKDIV1_REG;
 218              		.loc 1 231 0
 219 001a E370     		strb	r3, [r4, #3]
ARM GAS  D:\TEMP\cciL5Skh.s 			page 9


 220              		.loc 1 232 0
 221 001c 3B78     		ldrb	r3, [r7]	@ zero_extendqisi2
 233:.\Generated_Source\PSoC5/Camera_I2C.c ****         Camera_I2C_backup.clkDiv2 = Camera_I2C_CLKDIV2_REG;
 222              		.loc 1 233 0
 223 001e 1F4E     		ldr	r6, .L13+12
 232:.\Generated_Source\PSoC5/Camera_I2C.c ****         Camera_I2C_backup.clkDiv1 = Camera_I2C_CLKDIV1_REG;
 224              		.loc 1 232 0
 225 0020 2371     		strb	r3, [r4, #4]
 226              		.loc 1 233 0
 227 0022 3378     		ldrb	r3, [r6]	@ zero_extendqisi2
 234:.\Generated_Source\PSoC5/Camera_I2C.c **** 
 235:.\Generated_Source\PSoC5/Camera_I2C.c ****         /* Calculate number of cycles to reset block */
 236:.\Generated_Source\PSoC5/Camera_I2C.c ****         blockResetCycles = ((uint16) ((uint16) Camera_I2C_CLKDIV2_REG << 8u) | Camera_I2C_CLKDIV1_R
 237:.\Generated_Source\PSoC5/Camera_I2C.c **** 
 238:.\Generated_Source\PSoC5/Camera_I2C.c ****         /* Disable block */
 239:.\Generated_Source\PSoC5/Camera_I2C.c ****         Camera_I2C_CFG_REG &= (uint8) ~Camera_I2C_CFG_EN_SLAVE;
 228              		.loc 1 239 0
 229 0024 1E4D     		ldr	r5, .L13+16
 233:.\Generated_Source\PSoC5/Camera_I2C.c ****         Camera_I2C_backup.clkDiv2 = Camera_I2C_CLKDIV2_REG;
 230              		.loc 1 233 0
 231 0026 6371     		strb	r3, [r4, #5]
 236:.\Generated_Source\PSoC5/Camera_I2C.c **** 
 232              		.loc 1 236 0
 233 0028 3078     		ldrb	r0, [r6]	@ zero_extendqisi2
 234 002a 3B78     		ldrb	r3, [r7]	@ zero_extendqisi2
 235              	.LVL6:
 236              		.loc 1 239 0
 237 002c 2A78     		ldrb	r2, [r5]	@ zero_extendqisi2
 236:.\Generated_Source\PSoC5/Camera_I2C.c **** 
 238              		.loc 1 236 0
 239 002e 43EA0020 		orr	r0, r3, r0, lsl #8
 240              	.LVL7:
 241              		.loc 1 239 0
 242 0032 02F0FE02 		and	r2, r2, #254
 236:.\Generated_Source\PSoC5/Camera_I2C.c **** 
 243              		.loc 1 236 0
 244 0036 0130     		adds	r0, r0, #1
 245              		.loc 1 239 0
 246 0038 2A70     		strb	r2, [r5]
 240:.\Generated_Source\PSoC5/Camera_I2C.c ****         /* Wait for block reset before disable power */
 241:.\Generated_Source\PSoC5/Camera_I2C.c ****         CyDelayCycles((uint32) blockResetCycles);
 247              		.loc 1 241 0
 248 003a 80B2     		uxth	r0, r0
 249 003c FFF7FEFF 		bl	CyDelayCycles
 250              	.LVL8:
 242:.\Generated_Source\PSoC5/Camera_I2C.c **** 
 243:.\Generated_Source\PSoC5/Camera_I2C.c ****         /* Disable power to block */
 244:.\Generated_Source\PSoC5/Camera_I2C.c ****         intState = CyEnterCriticalSection();
 251              		.loc 1 244 0
 252 0040 FFF7FEFF 		bl	CyEnterCriticalSection
 253              	.LVL9:
 245:.\Generated_Source\PSoC5/Camera_I2C.c ****         Camera_I2C_ACT_PWRMGR_REG  &= (uint8) ~Camera_I2C_ACT_PWR_EN;
 254              		.loc 1 245 0
 255 0044 174A     		ldr	r2, .L13+20
 256 0046 1378     		ldrb	r3, [r2]	@ zero_extendqisi2
 257 0048 03F0FB03 		and	r3, r3, #251
 258 004c 1370     		strb	r3, [r2]
ARM GAS  D:\TEMP\cciL5Skh.s 			page 10


 246:.\Generated_Source\PSoC5/Camera_I2C.c ****         Camera_I2C_STBY_PWRMGR_REG &= (uint8) ~Camera_I2C_STBY_PWR_EN;
 259              		.loc 1 246 0
 260 004e 137C     		ldrb	r3, [r2, #16]	@ zero_extendqisi2
 261 0050 03F0FB03 		and	r3, r3, #251
 262 0054 1374     		strb	r3, [r2, #16]
 247:.\Generated_Source\PSoC5/Camera_I2C.c ****         CyExitCriticalSection(intState);
 263              		.loc 1 247 0
 264 0056 FFF7FEFF 		bl	CyExitCriticalSection
 265              	.LVL10:
 248:.\Generated_Source\PSoC5/Camera_I2C.c **** 
 249:.\Generated_Source\PSoC5/Camera_I2C.c ****         /* Enable block */
 250:.\Generated_Source\PSoC5/Camera_I2C.c ****         Camera_I2C_CFG_REG |= (uint8) Camera_I2C_ENABLE_MS;
 266              		.loc 1 250 0
 267 005a 2B78     		ldrb	r3, [r5]	@ zero_extendqisi2
 268              	.LBE3:
 251:.\Generated_Source\PSoC5/Camera_I2C.c **** 
 252:.\Generated_Source\PSoC5/Camera_I2C.c ****         /* Restore registers effected by block disable. Ticket ID#198004 */
 253:.\Generated_Source\PSoC5/Camera_I2C.c ****         Camera_I2C_ADDR_REG    = Camera_I2C_backup.addr;
 254:.\Generated_Source\PSoC5/Camera_I2C.c ****         Camera_I2C_ADDR_REG    = Camera_I2C_backup.addr;
 255:.\Generated_Source\PSoC5/Camera_I2C.c ****         Camera_I2C_CLKDIV1_REG = Camera_I2C_backup.clkDiv1;
 256:.\Generated_Source\PSoC5/Camera_I2C.c ****         Camera_I2C_CLKDIV2_REG = Camera_I2C_backup.clkDiv2;
 257:.\Generated_Source\PSoC5/Camera_I2C.c ****     }
 258:.\Generated_Source\PSoC5/Camera_I2C.c **** #else
 259:.\Generated_Source\PSoC5/Camera_I2C.c **** 
 260:.\Generated_Source\PSoC5/Camera_I2C.c ****     /* Disable slave or master bits */
 261:.\Generated_Source\PSoC5/Camera_I2C.c ****     Camera_I2C_CFG_REG &= (uint8) ~Camera_I2C_ENABLE_MS;
 262:.\Generated_Source\PSoC5/Camera_I2C.c **** 
 263:.\Generated_Source\PSoC5/Camera_I2C.c **** #if (Camera_I2C_MODE_SLAVE_ENABLED)
 264:.\Generated_Source\PSoC5/Camera_I2C.c ****     {
 265:.\Generated_Source\PSoC5/Camera_I2C.c ****         /* Disable bit counter */
 266:.\Generated_Source\PSoC5/Camera_I2C.c ****         uint8 intState = CyEnterCriticalSection();
 267:.\Generated_Source\PSoC5/Camera_I2C.c ****         Camera_I2C_COUNTER_AUX_CTL_REG &= (uint8) ~Camera_I2C_CNT7_ENABLE;
 268:.\Generated_Source\PSoC5/Camera_I2C.c ****         CyExitCriticalSection(intState);
 269:.\Generated_Source\PSoC5/Camera_I2C.c ****     }
 270:.\Generated_Source\PSoC5/Camera_I2C.c **** #endif /* (Camera_I2C_MODE_SLAVE_ENABLED) */
 271:.\Generated_Source\PSoC5/Camera_I2C.c **** 
 272:.\Generated_Source\PSoC5/Camera_I2C.c ****     /* Clear interrupt source register */
 273:.\Generated_Source\PSoC5/Camera_I2C.c ****     (void) Camera_I2C_CSR_REG;
 274:.\Generated_Source\PSoC5/Camera_I2C.c **** #endif /* (Camera_I2C_FF_IMPLEMENTED) */
 275:.\Generated_Source\PSoC5/Camera_I2C.c **** 
 276:.\Generated_Source\PSoC5/Camera_I2C.c ****     /* Disable interrupt on stop (enabled by write transaction) */
 277:.\Generated_Source\PSoC5/Camera_I2C.c ****     Camera_I2C_DISABLE_INT_ON_STOP;
 278:.\Generated_Source\PSoC5/Camera_I2C.c ****     Camera_I2C_ClearPendingInt();
 279:.\Generated_Source\PSoC5/Camera_I2C.c **** 
 280:.\Generated_Source\PSoC5/Camera_I2C.c ****     /* Reset FSM to default state */
 281:.\Generated_Source\PSoC5/Camera_I2C.c ****     Camera_I2C_state = Camera_I2C_SM_IDLE;
 269              		.loc 1 281 0
 270 005c 1022     		movs	r2, #16
 271              	.LBB4:
 250:.\Generated_Source\PSoC5/Camera_I2C.c **** 
 272              		.loc 1 250 0
 273 005e 43F00203 		orr	r3, r3, #2
 274 0062 2B70     		strb	r3, [r5]
 253:.\Generated_Source\PSoC5/Camera_I2C.c ****         Camera_I2C_ADDR_REG    = Camera_I2C_backup.addr;
 275              		.loc 1 253 0
 276 0064 E378     		ldrb	r3, [r4, #3]	@ zero_extendqisi2
 277 0066 88F80030 		strb	r3, [r8]
ARM GAS  D:\TEMP\cciL5Skh.s 			page 11


 254:.\Generated_Source\PSoC5/Camera_I2C.c ****         Camera_I2C_CLKDIV1_REG = Camera_I2C_backup.clkDiv1;
 278              		.loc 1 254 0
 279 006a E378     		ldrb	r3, [r4, #3]	@ zero_extendqisi2
 280 006c 88F80030 		strb	r3, [r8]
 255:.\Generated_Source\PSoC5/Camera_I2C.c ****         Camera_I2C_CLKDIV2_REG = Camera_I2C_backup.clkDiv2;
 281              		.loc 1 255 0
 282 0070 2379     		ldrb	r3, [r4, #4]	@ zero_extendqisi2
 283 0072 3B70     		strb	r3, [r7]
 256:.\Generated_Source\PSoC5/Camera_I2C.c ****     }
 284              		.loc 1 256 0
 285 0074 6379     		ldrb	r3, [r4, #5]	@ zero_extendqisi2
 286 0076 3370     		strb	r3, [r6]
 287              	.LBE4:
 277:.\Generated_Source\PSoC5/Camera_I2C.c ****     Camera_I2C_ClearPendingInt();
 288              		.loc 1 277 0
 289 0078 2B78     		ldrb	r3, [r5]	@ zero_extendqisi2
 290 007a 03F0EF03 		and	r3, r3, #239
 291 007e 2B70     		strb	r3, [r5]
 278:.\Generated_Source\PSoC5/Camera_I2C.c **** 
 292              		.loc 1 278 0
 293 0080 094B     		ldr	r3, .L13+24
 294 0082 C3F80090 		str	r9, [r3]
 295              		.loc 1 281 0
 296 0086 094B     		ldr	r3, .L13+28
 297 0088 1A70     		strb	r2, [r3]
 298 008a BDE8F883 		pop	{r3, r4, r5, r6, r7, r8, r9, pc}
 299              	.L14:
 300 008e 00BF     		.align	2
 301              	.L13:
 302 0090 80E100E0 		.word	-536813184
 303 0094 00000000 		.word	Camera_I2C_backup
 304 0098 DB490040 		.word	1073760731
 305 009c DC490040 		.word	1073760732
 306 00a0 D6490040 		.word	1073760726
 307 00a4 A5430040 		.word	1073759141
 308 00a8 80E200E0 		.word	-536812928
 309 00ac 00000000 		.word	Camera_I2C_state
 310 00b0 CA490040 		.word	1073760714
 311              		.cfi_endproc
 312              	.LFE3:
 313              		.size	Camera_I2C_Stop, .-Camera_I2C_Stop
 314              		.comm	Camera_I2C_state,1,1
 315              		.global	Camera_I2C_initVar
 316              		.bss
 317              		.set	.LANCHOR0,. + 0
 318              		.type	Camera_I2C_initVar, %object
 319              		.size	Camera_I2C_initVar, 1
 320              	Camera_I2C_initVar:
 321 0000 00       		.space	1
 322              		.text
 323              	.Letext0:
 324              		.file 2 ".\\Generated_Source\\PSoC5\\cytypes.h"
 325              		.file 3 ".\\Generated_Source\\PSoC5\\Camera_I2C.h"
 326              		.file 4 ".\\Generated_Source\\PSoC5\\Camera_I2C_PVT.h"
 327              		.file 5 ".\\Generated_Source\\PSoC5\\CyLib.h"