ARM GAS  D:\TEMP\ccfbKCRE.s 			page 1


   1              		.syntax unified
   2              		.cpu cortex-m3
   3              		.fpu softvfp
   4              		.eabi_attribute 20, 1
   5              		.eabi_attribute 21, 1
   6              		.eabi_attribute 23, 3
   7              		.eabi_attribute 24, 1
   8              		.eabi_attribute 25, 1
   9              		.eabi_attribute 26, 1
  10              		.eabi_attribute 30, 4
  11              		.eabi_attribute 34, 1
  12              		.eabi_attribute 18, 4
  13              		.thumb
  14              		.file	"cyfitter_cfg.c"
  15              		.text
  16              	.Ltext0:
  17              		.cfi_sections	.debug_frame
  18              		.section	.text.SetAnalogRoutingPumps,"ax",%progbits
  19              		.align	1
  20              		.global	SetAnalogRoutingPumps
  21              		.thumb
  22              		.thumb_func
  23              		.type	SetAnalogRoutingPumps, %function
  24              	SetAnalogRoutingPumps:
  25              	.LFB7:
  26              		.file 1 ".\\Generated_Source\\PSoC5\\cyfitter_cfg.c"
   1:.\Generated_Source\PSoC5/cyfitter_cfg.c **** /*******************************************************************************
   2:.\Generated_Source\PSoC5/cyfitter_cfg.c **** * File Name: cyfitter_cfg.c
   3:.\Generated_Source\PSoC5/cyfitter_cfg.c **** * 
   4:.\Generated_Source\PSoC5/cyfitter_cfg.c **** * PSoC Creator  3.3 CP3
   5:.\Generated_Source\PSoC5/cyfitter_cfg.c **** *
   6:.\Generated_Source\PSoC5/cyfitter_cfg.c **** * Description:
   7:.\Generated_Source\PSoC5/cyfitter_cfg.c **** * This file contains device initialization code.
   8:.\Generated_Source\PSoC5/cyfitter_cfg.c **** * Except for the user defined sections in CyClockStartupError(), this file should not be modified.
   9:.\Generated_Source\PSoC5/cyfitter_cfg.c **** * This file is automatically generated by PSoC Creator.
  10:.\Generated_Source\PSoC5/cyfitter_cfg.c **** *
  11:.\Generated_Source\PSoC5/cyfitter_cfg.c **** ********************************************************************************
  12:.\Generated_Source\PSoC5/cyfitter_cfg.c **** * Copyright (c) 2007-2016 Cypress Semiconductor.  All rights reserved.
  13:.\Generated_Source\PSoC5/cyfitter_cfg.c **** * You may use this file only in accordance with the license, terms, conditions, 
  14:.\Generated_Source\PSoC5/cyfitter_cfg.c **** * disclaimers, and limitations in the end user license agreement accompanying 
  15:.\Generated_Source\PSoC5/cyfitter_cfg.c **** * the software package with which this file was provided.
  16:.\Generated_Source\PSoC5/cyfitter_cfg.c **** ********************************************************************************/
  17:.\Generated_Source\PSoC5/cyfitter_cfg.c **** 
  18:.\Generated_Source\PSoC5/cyfitter_cfg.c **** #include <string.h>
  19:.\Generated_Source\PSoC5/cyfitter_cfg.c **** #include "cytypes.h"
  20:.\Generated_Source\PSoC5/cyfitter_cfg.c **** #include "cydevice_trm.h"
  21:.\Generated_Source\PSoC5/cyfitter_cfg.c **** #include "cyfitter.h"
  22:.\Generated_Source\PSoC5/cyfitter_cfg.c **** #include "CyLib.h"
  23:.\Generated_Source\PSoC5/cyfitter_cfg.c **** #include "cyfitter_cfg.h"
  24:.\Generated_Source\PSoC5/cyfitter_cfg.c **** 
  25:.\Generated_Source\PSoC5/cyfitter_cfg.c **** #define CY_NEED_CYCLOCKSTARTUPERROR 1
  26:.\Generated_Source\PSoC5/cyfitter_cfg.c **** 
  27:.\Generated_Source\PSoC5/cyfitter_cfg.c **** 
  28:.\Generated_Source\PSoC5/cyfitter_cfg.c **** #if defined(__GNUC__) || defined(__ARMCC_VERSION)
  29:.\Generated_Source\PSoC5/cyfitter_cfg.c ****     #define CYPACKED 
  30:.\Generated_Source\PSoC5/cyfitter_cfg.c ****     #define CYPACKED_ATTR __attribute__ ((packed))
  31:.\Generated_Source\PSoC5/cyfitter_cfg.c ****     #define CYALIGNED __attribute__ ((aligned))
ARM GAS  D:\TEMP\ccfbKCRE.s 			page 2


  32:.\Generated_Source\PSoC5/cyfitter_cfg.c ****     #define CY_CFG_UNUSED __attribute__ ((unused))
  33:.\Generated_Source\PSoC5/cyfitter_cfg.c ****     #ifndef CY_CFG_SECTION
  34:.\Generated_Source\PSoC5/cyfitter_cfg.c ****         #define CY_CFG_SECTION __attribute__ ((section(".psocinit")))
  35:.\Generated_Source\PSoC5/cyfitter_cfg.c ****     #endif
  36:.\Generated_Source\PSoC5/cyfitter_cfg.c ****     
  37:.\Generated_Source\PSoC5/cyfitter_cfg.c ****     #if defined(__ARMCC_VERSION)
  38:.\Generated_Source\PSoC5/cyfitter_cfg.c ****         #define CY_CFG_MEMORY_BARRIER() __memory_changed()
  39:.\Generated_Source\PSoC5/cyfitter_cfg.c ****     #else
  40:.\Generated_Source\PSoC5/cyfitter_cfg.c ****         #define CY_CFG_MEMORY_BARRIER() __sync_synchronize()
  41:.\Generated_Source\PSoC5/cyfitter_cfg.c ****     #endif
  42:.\Generated_Source\PSoC5/cyfitter_cfg.c ****     
  43:.\Generated_Source\PSoC5/cyfitter_cfg.c **** #elif defined(__ICCARM__)
  44:.\Generated_Source\PSoC5/cyfitter_cfg.c ****     #include <intrinsics.h>
  45:.\Generated_Source\PSoC5/cyfitter_cfg.c **** 
  46:.\Generated_Source\PSoC5/cyfitter_cfg.c ****     #define CYPACKED __packed
  47:.\Generated_Source\PSoC5/cyfitter_cfg.c ****     #define CYPACKED_ATTR 
  48:.\Generated_Source\PSoC5/cyfitter_cfg.c ****     #define CYALIGNED _Pragma("data_alignment=4")
  49:.\Generated_Source\PSoC5/cyfitter_cfg.c ****     #define CY_CFG_UNUSED _Pragma("diag_suppress=Pe177")
  50:.\Generated_Source\PSoC5/cyfitter_cfg.c ****     #define CY_CFG_SECTION _Pragma("location=\".psocinit\"")
  51:.\Generated_Source\PSoC5/cyfitter_cfg.c ****     
  52:.\Generated_Source\PSoC5/cyfitter_cfg.c ****     #define CY_CFG_MEMORY_BARRIER() __DMB()
  53:.\Generated_Source\PSoC5/cyfitter_cfg.c ****     
  54:.\Generated_Source\PSoC5/cyfitter_cfg.c **** #else
  55:.\Generated_Source\PSoC5/cyfitter_cfg.c ****     #error Unsupported toolchain
  56:.\Generated_Source\PSoC5/cyfitter_cfg.c **** #endif
  57:.\Generated_Source\PSoC5/cyfitter_cfg.c **** 
  58:.\Generated_Source\PSoC5/cyfitter_cfg.c **** 
  59:.\Generated_Source\PSoC5/cyfitter_cfg.c **** CY_CFG_UNUSED
  60:.\Generated_Source\PSoC5/cyfitter_cfg.c **** static void CYMEMZERO(void *s, size_t n);
  61:.\Generated_Source\PSoC5/cyfitter_cfg.c **** CY_CFG_UNUSED
  62:.\Generated_Source\PSoC5/cyfitter_cfg.c **** static void CYMEMZERO(void *s, size_t n)
  63:.\Generated_Source\PSoC5/cyfitter_cfg.c **** {
  64:.\Generated_Source\PSoC5/cyfitter_cfg.c **** 	(void)memset(s, 0, n);
  65:.\Generated_Source\PSoC5/cyfitter_cfg.c **** }
  66:.\Generated_Source\PSoC5/cyfitter_cfg.c **** CY_CFG_UNUSED
  67:.\Generated_Source\PSoC5/cyfitter_cfg.c **** static void CYCONFIGCPY(void *dest, const void *src, size_t n);
  68:.\Generated_Source\PSoC5/cyfitter_cfg.c **** CY_CFG_UNUSED
  69:.\Generated_Source\PSoC5/cyfitter_cfg.c **** static void CYCONFIGCPY(void *dest, const void *src, size_t n)
  70:.\Generated_Source\PSoC5/cyfitter_cfg.c **** {
  71:.\Generated_Source\PSoC5/cyfitter_cfg.c **** 	(void)memcpy(dest, src, n);
  72:.\Generated_Source\PSoC5/cyfitter_cfg.c **** }
  73:.\Generated_Source\PSoC5/cyfitter_cfg.c **** CY_CFG_UNUSED
  74:.\Generated_Source\PSoC5/cyfitter_cfg.c **** static void CYCONFIGCPYCODE(void *dest, const void *src, size_t n);
  75:.\Generated_Source\PSoC5/cyfitter_cfg.c **** CY_CFG_UNUSED
  76:.\Generated_Source\PSoC5/cyfitter_cfg.c **** static void CYCONFIGCPYCODE(void *dest, const void *src, size_t n)
  77:.\Generated_Source\PSoC5/cyfitter_cfg.c **** {
  78:.\Generated_Source\PSoC5/cyfitter_cfg.c **** 	(void)memcpy(dest, src, n);
  79:.\Generated_Source\PSoC5/cyfitter_cfg.c **** }
  80:.\Generated_Source\PSoC5/cyfitter_cfg.c **** 
  81:.\Generated_Source\PSoC5/cyfitter_cfg.c **** 
  82:.\Generated_Source\PSoC5/cyfitter_cfg.c **** 
  83:.\Generated_Source\PSoC5/cyfitter_cfg.c **** /* Clock startup error codes                                                   */
  84:.\Generated_Source\PSoC5/cyfitter_cfg.c **** #define CYCLOCKSTART_NO_ERROR    0u
  85:.\Generated_Source\PSoC5/cyfitter_cfg.c **** #define CYCLOCKSTART_XTAL_ERROR  1u
  86:.\Generated_Source\PSoC5/cyfitter_cfg.c **** #define CYCLOCKSTART_32KHZ_ERROR 2u
  87:.\Generated_Source\PSoC5/cyfitter_cfg.c **** #define CYCLOCKSTART_PLL_ERROR   3u
  88:.\Generated_Source\PSoC5/cyfitter_cfg.c **** 
ARM GAS  D:\TEMP\ccfbKCRE.s 			page 3


  89:.\Generated_Source\PSoC5/cyfitter_cfg.c **** #ifdef CY_NEED_CYCLOCKSTARTUPERROR
  90:.\Generated_Source\PSoC5/cyfitter_cfg.c **** /*******************************************************************************
  91:.\Generated_Source\PSoC5/cyfitter_cfg.c **** * Function Name: CyClockStartupError
  92:.\Generated_Source\PSoC5/cyfitter_cfg.c **** ********************************************************************************
  93:.\Generated_Source\PSoC5/cyfitter_cfg.c **** * Summary:
  94:.\Generated_Source\PSoC5/cyfitter_cfg.c **** *  If an error is encountered during clock configuration (crystal startup error,
  95:.\Generated_Source\PSoC5/cyfitter_cfg.c **** *  PLL lock error, etc.), the system will end up here.  Unless reimplemented by
  96:.\Generated_Source\PSoC5/cyfitter_cfg.c **** *  the customer, this function will stop in an infinite loop.
  97:.\Generated_Source\PSoC5/cyfitter_cfg.c **** *
  98:.\Generated_Source\PSoC5/cyfitter_cfg.c **** * Parameters:
  99:.\Generated_Source\PSoC5/cyfitter_cfg.c **** *   void
 100:.\Generated_Source\PSoC5/cyfitter_cfg.c **** *
 101:.\Generated_Source\PSoC5/cyfitter_cfg.c **** * Return:
 102:.\Generated_Source\PSoC5/cyfitter_cfg.c **** *   void
 103:.\Generated_Source\PSoC5/cyfitter_cfg.c **** *
 104:.\Generated_Source\PSoC5/cyfitter_cfg.c **** *******************************************************************************/
 105:.\Generated_Source\PSoC5/cyfitter_cfg.c **** CY_CFG_UNUSED
 106:.\Generated_Source\PSoC5/cyfitter_cfg.c **** static void CyClockStartupError(uint8 errorCode);
 107:.\Generated_Source\PSoC5/cyfitter_cfg.c **** CY_CFG_UNUSED
 108:.\Generated_Source\PSoC5/cyfitter_cfg.c **** static void CyClockStartupError(uint8 errorCode)
 109:.\Generated_Source\PSoC5/cyfitter_cfg.c **** {
 110:.\Generated_Source\PSoC5/cyfitter_cfg.c ****     /* To remove the compiler warning if errorCode not used.                */
 111:.\Generated_Source\PSoC5/cyfitter_cfg.c ****     errorCode = errorCode;
 112:.\Generated_Source\PSoC5/cyfitter_cfg.c **** 
 113:.\Generated_Source\PSoC5/cyfitter_cfg.c ****     /* `#START CyClockStartupError` */
 114:.\Generated_Source\PSoC5/cyfitter_cfg.c **** 
 115:.\Generated_Source\PSoC5/cyfitter_cfg.c ****     /* If we have a clock startup error (bad MHz crystal, PLL lock, etc.),  */
 116:.\Generated_Source\PSoC5/cyfitter_cfg.c ****     /* we will end up here to allow the customer to implement something to  */
 117:.\Generated_Source\PSoC5/cyfitter_cfg.c ****     /* deal with the clock condition.                                       */
 118:.\Generated_Source\PSoC5/cyfitter_cfg.c **** 
 119:.\Generated_Source\PSoC5/cyfitter_cfg.c ****     /* `#END` */
 120:.\Generated_Source\PSoC5/cyfitter_cfg.c **** 
 121:.\Generated_Source\PSoC5/cyfitter_cfg.c ****     /* If nothing else, stop here since the clocks have not started         */
 122:.\Generated_Source\PSoC5/cyfitter_cfg.c ****     /* correctly.                                                           */
 123:.\Generated_Source\PSoC5/cyfitter_cfg.c ****     while(1) {}
 124:.\Generated_Source\PSoC5/cyfitter_cfg.c **** }
 125:.\Generated_Source\PSoC5/cyfitter_cfg.c **** #endif
 126:.\Generated_Source\PSoC5/cyfitter_cfg.c **** 
 127:.\Generated_Source\PSoC5/cyfitter_cfg.c **** #define CY_CFG_BASE_ADDR_COUNT 42u
 128:.\Generated_Source\PSoC5/cyfitter_cfg.c **** CYPACKED typedef struct
 129:.\Generated_Source\PSoC5/cyfitter_cfg.c **** {
 130:.\Generated_Source\PSoC5/cyfitter_cfg.c **** 	uint8 offset;
 131:.\Generated_Source\PSoC5/cyfitter_cfg.c **** 	uint8 value;
 132:.\Generated_Source\PSoC5/cyfitter_cfg.c **** } CYPACKED_ATTR cy_cfg_addrvalue_t;
 133:.\Generated_Source\PSoC5/cyfitter_cfg.c **** 
 134:.\Generated_Source\PSoC5/cyfitter_cfg.c **** #define cy_cfg_addr_table ((const uint32 CYFAR *)0x48000000u)
 135:.\Generated_Source\PSoC5/cyfitter_cfg.c **** #define cy_cfg_data_table ((const cy_cfg_addrvalue_t CYFAR *)0x480000A8u)
 136:.\Generated_Source\PSoC5/cyfitter_cfg.c **** 
 137:.\Generated_Source\PSoC5/cyfitter_cfg.c **** /* IOPINS0_0 Address: CYREG_PRT0_DR Size (bytes): 10 */
 138:.\Generated_Source\PSoC5/cyfitter_cfg.c **** #define BS_IOPINS0_0_VAL ((const uint8 CYFAR *)0x48001130u)
 139:.\Generated_Source\PSoC5/cyfitter_cfg.c **** 
 140:.\Generated_Source\PSoC5/cyfitter_cfg.c **** /* IOPINS0_7 Address: CYREG_PRT12_DM0 Size (bytes): 8 */
 141:.\Generated_Source\PSoC5/cyfitter_cfg.c **** #define BS_IOPINS0_7_VAL ((const uint8 CYFAR *)0x4800113Cu)
 142:.\Generated_Source\PSoC5/cyfitter_cfg.c **** 
 143:.\Generated_Source\PSoC5/cyfitter_cfg.c **** /* IOPINS0_8 Address: CYREG_PRT15_DR Size (bytes): 10 */
 144:.\Generated_Source\PSoC5/cyfitter_cfg.c **** #define BS_IOPINS0_8_VAL ((const uint8 CYFAR *)0x48001144u)
 145:.\Generated_Source\PSoC5/cyfitter_cfg.c **** 
ARM GAS  D:\TEMP\ccfbKCRE.s 			page 4


 146:.\Generated_Source\PSoC5/cyfitter_cfg.c **** /* IOPINS0_2 Address: CYREG_PRT2_DM0 Size (bytes): 8 */
 147:.\Generated_Source\PSoC5/cyfitter_cfg.c **** #define BS_IOPINS0_2_VAL ((const uint8 CYFAR *)0x48001150u)
 148:.\Generated_Source\PSoC5/cyfitter_cfg.c **** 
 149:.\Generated_Source\PSoC5/cyfitter_cfg.c **** /* IOPINS0_3 Address: CYREG_PRT3_DR Size (bytes): 10 */
 150:.\Generated_Source\PSoC5/cyfitter_cfg.c **** #define BS_IOPINS0_3_VAL ((const uint8 CYFAR *)0x48001158u)
 151:.\Generated_Source\PSoC5/cyfitter_cfg.c **** 
 152:.\Generated_Source\PSoC5/cyfitter_cfg.c **** /* PHUB_CFGMEM1 Address: CYREG_PHUB_CFGMEM1_CFG0 Size (bytes): 4 */
 153:.\Generated_Source\PSoC5/cyfitter_cfg.c **** #define BS_PHUB_CFGMEM1_VAL ((const uint8 CYFAR *)0x48001164u)
 154:.\Generated_Source\PSoC5/cyfitter_cfg.c **** 
 155:.\Generated_Source\PSoC5/cyfitter_cfg.c **** 
 156:.\Generated_Source\PSoC5/cyfitter_cfg.c **** /*******************************************************************************
 157:.\Generated_Source\PSoC5/cyfitter_cfg.c **** * Function Name: cfg_write_bytes32
 158:.\Generated_Source\PSoC5/cyfitter_cfg.c **** ********************************************************************************
 159:.\Generated_Source\PSoC5/cyfitter_cfg.c **** * Summary:
 160:.\Generated_Source\PSoC5/cyfitter_cfg.c **** *  This function is used for setting up the chip configuration areas that
 161:.\Generated_Source\PSoC5/cyfitter_cfg.c **** *  contain relatively sparse data.
 162:.\Generated_Source\PSoC5/cyfitter_cfg.c **** *
 163:.\Generated_Source\PSoC5/cyfitter_cfg.c **** * Parameters:
 164:.\Generated_Source\PSoC5/cyfitter_cfg.c **** *   void
 165:.\Generated_Source\PSoC5/cyfitter_cfg.c **** *
 166:.\Generated_Source\PSoC5/cyfitter_cfg.c **** * Return:
 167:.\Generated_Source\PSoC5/cyfitter_cfg.c **** *   void
 168:.\Generated_Source\PSoC5/cyfitter_cfg.c **** *
 169:.\Generated_Source\PSoC5/cyfitter_cfg.c **** *******************************************************************************/
 170:.\Generated_Source\PSoC5/cyfitter_cfg.c **** static void cfg_write_bytes32(const uint32 addr_table[], const cy_cfg_addrvalue_t data_table[]);
 171:.\Generated_Source\PSoC5/cyfitter_cfg.c **** static void cfg_write_bytes32(const uint32 addr_table[], const cy_cfg_addrvalue_t data_table[])
 172:.\Generated_Source\PSoC5/cyfitter_cfg.c **** {
 173:.\Generated_Source\PSoC5/cyfitter_cfg.c **** 	/* For 32-bit little-endian architectures */
 174:.\Generated_Source\PSoC5/cyfitter_cfg.c **** 	uint32 i, j = 0u;
 175:.\Generated_Source\PSoC5/cyfitter_cfg.c **** 	for (i = 0u; i < CY_CFG_BASE_ADDR_COUNT; i++)
 176:.\Generated_Source\PSoC5/cyfitter_cfg.c **** 	{
 177:.\Generated_Source\PSoC5/cyfitter_cfg.c **** 		uint32 baseAddr = addr_table[i];
 178:.\Generated_Source\PSoC5/cyfitter_cfg.c **** 		uint8 count = (uint8)baseAddr;
 179:.\Generated_Source\PSoC5/cyfitter_cfg.c **** 		baseAddr &= 0xFFFFFF00u;
 180:.\Generated_Source\PSoC5/cyfitter_cfg.c **** 		while (count != 0u)
 181:.\Generated_Source\PSoC5/cyfitter_cfg.c **** 		{
 182:.\Generated_Source\PSoC5/cyfitter_cfg.c **** 			CY_SET_XTND_REG8((void CYFAR *)(baseAddr + data_table[j].offset), data_table[j].value);
 183:.\Generated_Source\PSoC5/cyfitter_cfg.c **** 			j++;
 184:.\Generated_Source\PSoC5/cyfitter_cfg.c **** 			count--;
 185:.\Generated_Source\PSoC5/cyfitter_cfg.c **** 		}
 186:.\Generated_Source\PSoC5/cyfitter_cfg.c **** 	}
 187:.\Generated_Source\PSoC5/cyfitter_cfg.c **** }
 188:.\Generated_Source\PSoC5/cyfitter_cfg.c **** 
 189:.\Generated_Source\PSoC5/cyfitter_cfg.c **** /*******************************************************************************
 190:.\Generated_Source\PSoC5/cyfitter_cfg.c **** * Function Name: ClockSetup
 191:.\Generated_Source\PSoC5/cyfitter_cfg.c **** ********************************************************************************
 192:.\Generated_Source\PSoC5/cyfitter_cfg.c **** *
 193:.\Generated_Source\PSoC5/cyfitter_cfg.c **** * Summary:
 194:.\Generated_Source\PSoC5/cyfitter_cfg.c **** *  Performs the initialization of all of the clocks in the device based on the
 195:.\Generated_Source\PSoC5/cyfitter_cfg.c **** *  settings in the Clock tab of the DWR.  This includes enabling the requested
 196:.\Generated_Source\PSoC5/cyfitter_cfg.c **** *  clocks and setting the necessary dividers to produce the desired frequency. 
 197:.\Generated_Source\PSoC5/cyfitter_cfg.c **** *
 198:.\Generated_Source\PSoC5/cyfitter_cfg.c **** * Parameters:
 199:.\Generated_Source\PSoC5/cyfitter_cfg.c **** *  void
 200:.\Generated_Source\PSoC5/cyfitter_cfg.c **** *
 201:.\Generated_Source\PSoC5/cyfitter_cfg.c **** * Return:
 202:.\Generated_Source\PSoC5/cyfitter_cfg.c **** *  void
ARM GAS  D:\TEMP\ccfbKCRE.s 			page 5


 203:.\Generated_Source\PSoC5/cyfitter_cfg.c **** *
 204:.\Generated_Source\PSoC5/cyfitter_cfg.c **** *******************************************************************************/
 205:.\Generated_Source\PSoC5/cyfitter_cfg.c **** static void ClockSetup(void);
 206:.\Generated_Source\PSoC5/cyfitter_cfg.c **** static void ClockSetup(void)
 207:.\Generated_Source\PSoC5/cyfitter_cfg.c **** {
 208:.\Generated_Source\PSoC5/cyfitter_cfg.c **** 	uint32 timeout;
 209:.\Generated_Source\PSoC5/cyfitter_cfg.c **** 	uint8 pllLock;
 210:.\Generated_Source\PSoC5/cyfitter_cfg.c **** 
 211:.\Generated_Source\PSoC5/cyfitter_cfg.c **** 
 212:.\Generated_Source\PSoC5/cyfitter_cfg.c **** 	/* Configure Digital Clocks based on settings from Clock DWR */
 213:.\Generated_Source\PSoC5/cyfitter_cfg.c **** 	CY_SET_XTND_REG16((void CYFAR *)(CYREG_CLKDIST_DCFG0_CFG0), 0x0002u);
 214:.\Generated_Source\PSoC5/cyfitter_cfg.c **** 	CY_SET_XTND_REG8((void CYFAR *)(CYREG_CLKDIST_DCFG0_CFG0 + 0x2u), 0x18u);
 215:.\Generated_Source\PSoC5/cyfitter_cfg.c **** 	CY_SET_XTND_REG16((void CYFAR *)(CYREG_CLKDIST_DCFG1_CFG0), 0x0005u);
 216:.\Generated_Source\PSoC5/cyfitter_cfg.c **** 	CY_SET_XTND_REG8((void CYFAR *)(CYREG_CLKDIST_DCFG1_CFG0 + 0x2u), 0x18u);
 217:.\Generated_Source\PSoC5/cyfitter_cfg.c **** 	CY_SET_XTND_REG16((void CYFAR *)(CYREG_CLKDIST_DCFG2_CFG0), 0x0007u);
 218:.\Generated_Source\PSoC5/cyfitter_cfg.c **** 	CY_SET_XTND_REG8((void CYFAR *)(CYREG_CLKDIST_DCFG2_CFG0 + 0x2u), 0x18u);
 219:.\Generated_Source\PSoC5/cyfitter_cfg.c **** 	CY_SET_XTND_REG16((void CYFAR *)(CYREG_CLKDIST_DCFG3_CFG0), 0x0047u);
 220:.\Generated_Source\PSoC5/cyfitter_cfg.c **** 	CY_SET_XTND_REG8((void CYFAR *)(CYREG_CLKDIST_DCFG3_CFG0 + 0x2u), 0x18u);
 221:.\Generated_Source\PSoC5/cyfitter_cfg.c **** 	CY_SET_XTND_REG16((void CYFAR *)(CYREG_CLKDIST_DCFG4_CFG0), 0x0047u);
 222:.\Generated_Source\PSoC5/cyfitter_cfg.c **** 	CY_SET_XTND_REG8((void CYFAR *)(CYREG_CLKDIST_DCFG4_CFG0 + 0x2u), 0x18u);
 223:.\Generated_Source\PSoC5/cyfitter_cfg.c **** 	CY_SET_XTND_REG16((void CYFAR *)(CYREG_CLKDIST_DCFG5_CFG0), 0x02CFu);
 224:.\Generated_Source\PSoC5/cyfitter_cfg.c **** 	CY_SET_XTND_REG8((void CYFAR *)(CYREG_CLKDIST_DCFG5_CFG0 + 0x2u), 0x18u);
 225:.\Generated_Source\PSoC5/cyfitter_cfg.c **** 
 226:.\Generated_Source\PSoC5/cyfitter_cfg.c **** 	/* Configure ILO based on settings from Clock DWR */
 227:.\Generated_Source\PSoC5/cyfitter_cfg.c **** 	CY_SET_XTND_REG8((void CYFAR *)(CYREG_SLOWCLK_ILO_CR0), 0x02u);
 228:.\Generated_Source\PSoC5/cyfitter_cfg.c **** 	CY_SET_XTND_REG8((void CYFAR *)(CYREG_CLKDIST_CR), 0x08u);
 229:.\Generated_Source\PSoC5/cyfitter_cfg.c **** 
 230:.\Generated_Source\PSoC5/cyfitter_cfg.c **** 	/* Configure IMO based on settings from Clock DWR */
 231:.\Generated_Source\PSoC5/cyfitter_cfg.c **** 	CY_SET_XTND_REG8((void CYFAR *)(CYREG_FASTCLK_IMO_CR), 0x03u);
 232:.\Generated_Source\PSoC5/cyfitter_cfg.c **** 	CY_SET_XTND_REG8((void CYFAR *)(CYREG_IMO_TR1), (CY_GET_XTND_REG8((void CYFAR *)CYREG_FLSHID_CUST_
 233:.\Generated_Source\PSoC5/cyfitter_cfg.c **** 
 234:.\Generated_Source\PSoC5/cyfitter_cfg.c **** 	/* Configure PLL based on settings from Clock DWR */
 235:.\Generated_Source\PSoC5/cyfitter_cfg.c **** 	CY_SET_XTND_REG16((void CYFAR *)(CYREG_FASTCLK_PLL_P), 0x0018u);
 236:.\Generated_Source\PSoC5/cyfitter_cfg.c **** 	CY_SET_XTND_REG16((void CYFAR *)(CYREG_FASTCLK_PLL_CFG0), 0x2251u);
 237:.\Generated_Source\PSoC5/cyfitter_cfg.c **** 	/* Wait up to 250us for the PLL to lock */
 238:.\Generated_Source\PSoC5/cyfitter_cfg.c **** 	pllLock = 0u;
 239:.\Generated_Source\PSoC5/cyfitter_cfg.c **** 	for (timeout = 250u / 10u; (timeout > 0u) && (pllLock != 0x03u); timeout--)
 240:.\Generated_Source\PSoC5/cyfitter_cfg.c **** 	{ 
 241:.\Generated_Source\PSoC5/cyfitter_cfg.c **** 		pllLock = 0x03u & ((uint8)((uint8)pllLock << 1) | ((CY_GET_XTND_REG8((void CYFAR *)CYREG_FASTCLK_
 242:.\Generated_Source\PSoC5/cyfitter_cfg.c **** 		CyDelayCycles(10u * 48u); /* Delay 10us based on 48MHz clock */
 243:.\Generated_Source\PSoC5/cyfitter_cfg.c **** 	}
 244:.\Generated_Source\PSoC5/cyfitter_cfg.c **** 	/* If we ran out of time the PLL didn't lock so go to the error function */
 245:.\Generated_Source\PSoC5/cyfitter_cfg.c **** 	if (timeout == 0u)
 246:.\Generated_Source\PSoC5/cyfitter_cfg.c **** 	{
 247:.\Generated_Source\PSoC5/cyfitter_cfg.c **** 		CyClockStartupError(CYCLOCKSTART_PLL_ERROR);
 248:.\Generated_Source\PSoC5/cyfitter_cfg.c **** 	}
 249:.\Generated_Source\PSoC5/cyfitter_cfg.c **** 
 250:.\Generated_Source\PSoC5/cyfitter_cfg.c **** 	/* Configure Bus/Master Clock based on settings from Clock DWR */
 251:.\Generated_Source\PSoC5/cyfitter_cfg.c **** 	CY_SET_XTND_REG16((void CYFAR *)(CYREG_CLKDIST_MSTR0), 0x0100u);
 252:.\Generated_Source\PSoC5/cyfitter_cfg.c **** 	CY_SET_XTND_REG8((void CYFAR *)(CYREG_CLKDIST_MSTR0), 0x07u);
 253:.\Generated_Source\PSoC5/cyfitter_cfg.c **** 	CY_SET_XTND_REG8((void CYFAR *)(CYREG_CLKDIST_BCFG0), 0x00u);
 254:.\Generated_Source\PSoC5/cyfitter_cfg.c **** 	CY_SET_XTND_REG8((void CYFAR *)(CYREG_CLKDIST_BCFG2), 0x48u);
 255:.\Generated_Source\PSoC5/cyfitter_cfg.c **** 	CY_SET_XTND_REG8((void CYFAR *)(CYREG_CLKDIST_MSTR0), 0x00u);
 256:.\Generated_Source\PSoC5/cyfitter_cfg.c **** 	CY_SET_XTND_REG8((void CYFAR *)(CYREG_CLKDIST_LD), 0x02u);
 257:.\Generated_Source\PSoC5/cyfitter_cfg.c **** 
 258:.\Generated_Source\PSoC5/cyfitter_cfg.c **** 	CY_SET_XTND_REG8((void CYFAR *)(CYREG_PM_ACT_CFG2), ((CY_GET_XTND_REG8((void CYFAR *)CYREG_PM_ACT_
 259:.\Generated_Source\PSoC5/cyfitter_cfg.c **** }
ARM GAS  D:\TEMP\ccfbKCRE.s 			page 6


 260:.\Generated_Source\PSoC5/cyfitter_cfg.c **** 
 261:.\Generated_Source\PSoC5/cyfitter_cfg.c **** 
 262:.\Generated_Source\PSoC5/cyfitter_cfg.c **** /* Analog API Functions */
 263:.\Generated_Source\PSoC5/cyfitter_cfg.c **** 
 264:.\Generated_Source\PSoC5/cyfitter_cfg.c **** 
 265:.\Generated_Source\PSoC5/cyfitter_cfg.c **** /*******************************************************************************
 266:.\Generated_Source\PSoC5/cyfitter_cfg.c **** * Function Name: AnalogSetDefault
 267:.\Generated_Source\PSoC5/cyfitter_cfg.c **** ********************************************************************************
 268:.\Generated_Source\PSoC5/cyfitter_cfg.c **** *
 269:.\Generated_Source\PSoC5/cyfitter_cfg.c **** * Summary:
 270:.\Generated_Source\PSoC5/cyfitter_cfg.c **** *  Sets up the analog portions of the chip to default values based on chip
 271:.\Generated_Source\PSoC5/cyfitter_cfg.c **** *  configuration options from the project.
 272:.\Generated_Source\PSoC5/cyfitter_cfg.c **** *
 273:.\Generated_Source\PSoC5/cyfitter_cfg.c **** * Parameters:
 274:.\Generated_Source\PSoC5/cyfitter_cfg.c **** *  void
 275:.\Generated_Source\PSoC5/cyfitter_cfg.c **** *
 276:.\Generated_Source\PSoC5/cyfitter_cfg.c **** * Return:
 277:.\Generated_Source\PSoC5/cyfitter_cfg.c **** *  void
 278:.\Generated_Source\PSoC5/cyfitter_cfg.c **** *
 279:.\Generated_Source\PSoC5/cyfitter_cfg.c **** *******************************************************************************/
 280:.\Generated_Source\PSoC5/cyfitter_cfg.c **** static void AnalogSetDefault(void);
 281:.\Generated_Source\PSoC5/cyfitter_cfg.c **** static void AnalogSetDefault(void)
 282:.\Generated_Source\PSoC5/cyfitter_cfg.c **** {
 283:.\Generated_Source\PSoC5/cyfitter_cfg.c **** 	uint8 bg_xover_inl_trim = CY_GET_XTND_REG8((void CYFAR *)(CYREG_FLSHID_MFG_CFG_BG_XOVER_INL_TRIM +
 284:.\Generated_Source\PSoC5/cyfitter_cfg.c **** 	CY_SET_XTND_REG8((void CYFAR *)(CYREG_BG_DFT0), (bg_xover_inl_trim & 0x07u));
 285:.\Generated_Source\PSoC5/cyfitter_cfg.c **** 	CY_SET_XTND_REG8((void CYFAR *)(CYREG_BG_DFT1), ((bg_xover_inl_trim >> 4) & 0x0Fu));
 286:.\Generated_Source\PSoC5/cyfitter_cfg.c **** 	CY_SET_XTND_REG8((void CYFAR *)CYREG_PRT0_AG, 0x1Cu);
 287:.\Generated_Source\PSoC5/cyfitter_cfg.c **** 	CY_SET_XTND_REG8((void CYFAR *)CYREG_BG_CR0, 0x02u);
 288:.\Generated_Source\PSoC5/cyfitter_cfg.c **** 	CY_SET_XTND_REG8((void CYFAR *)CYREG_DAC2_SW0, 0x10u);
 289:.\Generated_Source\PSoC5/cyfitter_cfg.c **** 	CY_SET_XTND_REG8((void CYFAR *)CYREG_CMP3_SW0, 0x10u);
 290:.\Generated_Source\PSoC5/cyfitter_cfg.c **** 	CY_SET_XTND_REG8((void CYFAR *)CYREG_CMP3_SW3, 0x40u);
 291:.\Generated_Source\PSoC5/cyfitter_cfg.c **** 	CY_SET_XTND_REG8((void CYFAR *)CYREG_DSM0_SW0, 0xD0u);
 292:.\Generated_Source\PSoC5/cyfitter_cfg.c **** 	CY_SET_XTND_REG8((void CYFAR *)CYREG_BUS_SW0, 0x10u);
 293:.\Generated_Source\PSoC5/cyfitter_cfg.c **** 	CY_SET_XTND_REG8((void CYFAR *)CYREG_PUMP_CR0, 0x44u);
 294:.\Generated_Source\PSoC5/cyfitter_cfg.c **** }
 295:.\Generated_Source\PSoC5/cyfitter_cfg.c **** 
 296:.\Generated_Source\PSoC5/cyfitter_cfg.c **** 
 297:.\Generated_Source\PSoC5/cyfitter_cfg.c **** /*******************************************************************************
 298:.\Generated_Source\PSoC5/cyfitter_cfg.c **** * Function Name: SetAnalogRoutingPumps
 299:.\Generated_Source\PSoC5/cyfitter_cfg.c **** ********************************************************************************
 300:.\Generated_Source\PSoC5/cyfitter_cfg.c **** *
 301:.\Generated_Source\PSoC5/cyfitter_cfg.c **** * Summary:
 302:.\Generated_Source\PSoC5/cyfitter_cfg.c **** * Enables or disables the analog pumps feeding analog routing switches.
 303:.\Generated_Source\PSoC5/cyfitter_cfg.c **** * Intended to be called at startup, based on the Vdda system configuration;
 304:.\Generated_Source\PSoC5/cyfitter_cfg.c **** * may be called during operation when the user informs us that the Vdda voltage
 305:.\Generated_Source\PSoC5/cyfitter_cfg.c **** * crossed the pump threshold.
 306:.\Generated_Source\PSoC5/cyfitter_cfg.c **** *
 307:.\Generated_Source\PSoC5/cyfitter_cfg.c **** * Parameters:
 308:.\Generated_Source\PSoC5/cyfitter_cfg.c **** *  enabled - 1 to enable the pumps, 0 to disable the pumps
 309:.\Generated_Source\PSoC5/cyfitter_cfg.c **** *
 310:.\Generated_Source\PSoC5/cyfitter_cfg.c **** * Return:
 311:.\Generated_Source\PSoC5/cyfitter_cfg.c **** *  void
 312:.\Generated_Source\PSoC5/cyfitter_cfg.c **** *
 313:.\Generated_Source\PSoC5/cyfitter_cfg.c **** *******************************************************************************/
 314:.\Generated_Source\PSoC5/cyfitter_cfg.c **** void SetAnalogRoutingPumps(uint8 enabled)
 315:.\Generated_Source\PSoC5/cyfitter_cfg.c **** {
  27              		.loc 1 315 0
ARM GAS  D:\TEMP\ccfbKCRE.s 			page 7


  28              		.cfi_startproc
  29              		@ args = 0, pretend = 0, frame = 0
  30              		@ frame_needed = 0, uses_anonymous_args = 0
  31              		@ link register save eliminated.
  32              	.LVL0:
 316:.\Generated_Source\PSoC5/cyfitter_cfg.c **** 	uint8 regValue = CY_GET_XTND_REG8((void CYFAR *)CYREG_PUMP_CR0);
  33              		.loc 1 316 0
  34 0000 054A     		ldr	r2, .L5
  35 0002 1378     		ldrb	r3, [r2]	@ zero_extendqisi2
  36 0004 DBB2     		uxtb	r3, r3
  37              	.LVL1:
 317:.\Generated_Source\PSoC5/cyfitter_cfg.c **** 	if (enabled != 0u)
  38              		.loc 1 317 0
  39 0006 10B1     		cbz	r0, .L2
 318:.\Generated_Source\PSoC5/cyfitter_cfg.c **** 	{
 319:.\Generated_Source\PSoC5/cyfitter_cfg.c **** 		regValue |= 0x22u;
  40              		.loc 1 319 0
  41 0008 43F02203 		orr	r3, r3, #34
  42              	.LVL2:
  43 000c 01E0     		b	.L3
  44              	.L2:
 320:.\Generated_Source\PSoC5/cyfitter_cfg.c **** 	}
 321:.\Generated_Source\PSoC5/cyfitter_cfg.c **** 	else
 322:.\Generated_Source\PSoC5/cyfitter_cfg.c **** 	{
 323:.\Generated_Source\PSoC5/cyfitter_cfg.c **** 		regValue &= (uint8)~0x22u;
  45              		.loc 1 323 0
  46 000e 03F0DD03 		and	r3, r3, #221
  47              	.LVL3:
  48              	.L3:
 324:.\Generated_Source\PSoC5/cyfitter_cfg.c **** 	}
 325:.\Generated_Source\PSoC5/cyfitter_cfg.c **** 	CY_SET_XTND_REG8((void CYFAR *)CYREG_PUMP_CR0, regValue);
  49              		.loc 1 325 0
  50 0012 1370     		strb	r3, [r2]
  51 0014 7047     		bx	lr
  52              	.L6:
  53 0016 00BF     		.align	2
  54              	.L5:
  55 0018 76580040 		.word	1073764470
  56              		.cfi_endproc
  57              	.LFE7:
  58              		.size	SetAnalogRoutingPumps, .-SetAnalogRoutingPumps
  59              		.section	.text.cyfitter_cfg,"ax",%progbits
  60              		.align	1
  61              		.global	cyfitter_cfg
  62              		.thumb
  63              		.thumb_func
  64              		.type	cyfitter_cfg, %function
  65              	cyfitter_cfg:
  66              	.LFB8:
 326:.\Generated_Source\PSoC5/cyfitter_cfg.c **** }
 327:.\Generated_Source\PSoC5/cyfitter_cfg.c **** 
 328:.\Generated_Source\PSoC5/cyfitter_cfg.c **** #define CY_AMUX_UNUSED CYREG_BOOST_SR
 329:.\Generated_Source\PSoC5/cyfitter_cfg.c **** 
 330:.\Generated_Source\PSoC5/cyfitter_cfg.c **** 
 331:.\Generated_Source\PSoC5/cyfitter_cfg.c **** /*******************************************************************************
 332:.\Generated_Source\PSoC5/cyfitter_cfg.c **** * Function Name: cyfitter_cfg
 333:.\Generated_Source\PSoC5/cyfitter_cfg.c **** ********************************************************************************
ARM GAS  D:\TEMP\ccfbKCRE.s 			page 8


 334:.\Generated_Source\PSoC5/cyfitter_cfg.c **** * Summary:
 335:.\Generated_Source\PSoC5/cyfitter_cfg.c **** *  This function is called by the start-up code for the selected device. It
 336:.\Generated_Source\PSoC5/cyfitter_cfg.c **** *  performs all of the necessary device configuration based on the design
 337:.\Generated_Source\PSoC5/cyfitter_cfg.c **** *  settings.  This includes settings from the Design Wide Resources (DWR) such
 338:.\Generated_Source\PSoC5/cyfitter_cfg.c **** *  as Clocks and Pins as well as any component configuration that is necessary.
 339:.\Generated_Source\PSoC5/cyfitter_cfg.c **** *
 340:.\Generated_Source\PSoC5/cyfitter_cfg.c **** * Parameters:  
 341:.\Generated_Source\PSoC5/cyfitter_cfg.c **** *   void
 342:.\Generated_Source\PSoC5/cyfitter_cfg.c **** *
 343:.\Generated_Source\PSoC5/cyfitter_cfg.c **** * Return:
 344:.\Generated_Source\PSoC5/cyfitter_cfg.c **** *   void
 345:.\Generated_Source\PSoC5/cyfitter_cfg.c **** *
 346:.\Generated_Source\PSoC5/cyfitter_cfg.c **** *******************************************************************************/
 347:.\Generated_Source\PSoC5/cyfitter_cfg.c **** 
 348:.\Generated_Source\PSoC5/cyfitter_cfg.c **** void cyfitter_cfg(void)
 349:.\Generated_Source\PSoC5/cyfitter_cfg.c **** {
  67              		.loc 1 349 0
  68              		.cfi_startproc
  69              		@ args = 0, pretend = 0, frame = 0
  70              		@ frame_needed = 0, uses_anonymous_args = 0
  71 0000 F8B5     		push	{r3, r4, r5, r6, r7, lr}
  72              		.cfi_def_cfa_offset 24
  73              		.cfi_offset 3, -24
  74              		.cfi_offset 4, -20
  75              		.cfi_offset 5, -16
  76              		.cfi_offset 6, -12
  77              		.cfi_offset 7, -8
  78              		.cfi_offset 14, -4
 350:.\Generated_Source\PSoC5/cyfitter_cfg.c **** #ifdef CYGlobalIntDisable
 351:.\Generated_Source\PSoC5/cyfitter_cfg.c **** 	/* Disable interrupts by default. Let user enable if/when they want. */
 352:.\Generated_Source\PSoC5/cyfitter_cfg.c **** 	CYGlobalIntDisable
  79              		.loc 1 352 0
  80              	@ 352 ".\Generated_Source\PSoC5\cyfitter_cfg.c" 1
  81 0002 72B6     		CPSID   i
  82              	@ 0 "" 2
 353:.\Generated_Source\PSoC5/cyfitter_cfg.c **** #endif
 354:.\Generated_Source\PSoC5/cyfitter_cfg.c **** 
 355:.\Generated_Source\PSoC5/cyfitter_cfg.c **** 
 356:.\Generated_Source\PSoC5/cyfitter_cfg.c **** 	/* Set Flash Cycles based on max possible frequency in case a glitch occurs during ClockSetup(). *
 357:.\Generated_Source\PSoC5/cyfitter_cfg.c **** 	CY_SET_XTND_REG8((void CYFAR *)(CYREG_CACHE_CC_CTL), (((CYDEV_INSTRUCT_CACHE_ENABLED) != 0) ? 0x61
  83              		.loc 1 357 0
  84              		.thumb
  85 0004 764B     		ldr	r3, .L22
  86 0006 6122     		movs	r2, #97
  87 0008 1A70     		strb	r2, [r3]
  88              	.LBB50:
  89              	.LBB51:
 214:.\Generated_Source\PSoC5/cyfitter_cfg.c **** 	CY_SET_XTND_REG16((void CYFAR *)(CYREG_CLKDIST_DCFG1_CFG0), 0x0005u);
  90              		.loc 1 214 0
  91 000a 7649     		ldr	r1, .L22+4
 213:.\Generated_Source\PSoC5/cyfitter_cfg.c **** 	CY_SET_XTND_REG8((void CYFAR *)(CYREG_CLKDIST_DCFG0_CFG0 + 0x2u), 0x18u);
  92              		.loc 1 213 0
  93 000c 0222     		movs	r2, #2
  94 000e A3F5F063 		sub	r3, r3, #1920
  95 0012 1A80     		strh	r2, [r3]	@ movhi
 215:.\Generated_Source\PSoC5/cyfitter_cfg.c **** 	CY_SET_XTND_REG8((void CYFAR *)(CYREG_CLKDIST_DCFG1_CFG0 + 0x2u), 0x18u);
  96              		.loc 1 215 0
ARM GAS  D:\TEMP\ccfbKCRE.s 			page 9


  97 0014 0520     		movs	r0, #5
 214:.\Generated_Source\PSoC5/cyfitter_cfg.c **** 	CY_SET_XTND_REG16((void CYFAR *)(CYREG_CLKDIST_DCFG1_CFG0), 0x0005u);
  98              		.loc 1 214 0
  99 0016 1823     		movs	r3, #24
 100 0018 0B70     		strb	r3, [r1]
 215:.\Generated_Source\PSoC5/cyfitter_cfg.c **** 	CY_SET_XTND_REG8((void CYFAR *)(CYREG_CLKDIST_DCFG1_CFG0 + 0x2u), 0x18u);
 101              		.loc 1 215 0
 102 001a 4880     		strh	r0, [r1, #2]	@ movhi
 217:.\Generated_Source\PSoC5/cyfitter_cfg.c **** 	CY_SET_XTND_REG8((void CYFAR *)(CYREG_CLKDIST_DCFG2_CFG0 + 0x2u), 0x18u);
 103              		.loc 1 217 0
 104 001c 0720     		movs	r0, #7
 216:.\Generated_Source\PSoC5/cyfitter_cfg.c **** 	CY_SET_XTND_REG16((void CYFAR *)(CYREG_CLKDIST_DCFG2_CFG0), 0x0007u);
 105              		.loc 1 216 0
 106 001e 0B71     		strb	r3, [r1, #4]
 217:.\Generated_Source\PSoC5/cyfitter_cfg.c **** 	CY_SET_XTND_REG8((void CYFAR *)(CYREG_CLKDIST_DCFG2_CFG0 + 0x2u), 0x18u);
 107              		.loc 1 217 0
 108 0020 C880     		strh	r0, [r1, #6]	@ movhi
 219:.\Generated_Source\PSoC5/cyfitter_cfg.c **** 	CY_SET_XTND_REG8((void CYFAR *)(CYREG_CLKDIST_DCFG3_CFG0 + 0x2u), 0x18u);
 109              		.loc 1 219 0
 110 0022 7148     		ldr	r0, .L22+8
 218:.\Generated_Source\PSoC5/cyfitter_cfg.c **** 	CY_SET_XTND_REG16((void CYFAR *)(CYREG_CLKDIST_DCFG3_CFG0), 0x0047u);
 111              		.loc 1 218 0
 112 0024 0B72     		strb	r3, [r1, #8]
 219:.\Generated_Source\PSoC5/cyfitter_cfg.c **** 	CY_SET_XTND_REG8((void CYFAR *)(CYREG_CLKDIST_DCFG3_CFG0 + 0x2u), 0x18u);
 113              		.loc 1 219 0
 114 0026 4721     		movs	r1, #71
 115 0028 0180     		strh	r1, [r0]	@ movhi
 220:.\Generated_Source\PSoC5/cyfitter_cfg.c **** 	CY_SET_XTND_REG16((void CYFAR *)(CYREG_CLKDIST_DCFG4_CFG0), 0x0047u);
 116              		.loc 1 220 0
 117 002a 8370     		strb	r3, [r0, #2]
 221:.\Generated_Source\PSoC5/cyfitter_cfg.c **** 	CY_SET_XTND_REG8((void CYFAR *)(CYREG_CLKDIST_DCFG4_CFG0 + 0x2u), 0x18u);
 118              		.loc 1 221 0
 119 002c 8180     		strh	r1, [r0, #4]	@ movhi
 223:.\Generated_Source\PSoC5/cyfitter_cfg.c **** 	CY_SET_XTND_REG8((void CYFAR *)(CYREG_CLKDIST_DCFG5_CFG0 + 0x2u), 0x18u);
 120              		.loc 1 223 0
 121 002e 40F2CF20 		movw	r0, #719
 222:.\Generated_Source\PSoC5/cyfitter_cfg.c **** 	CY_SET_XTND_REG16((void CYFAR *)(CYREG_CLKDIST_DCFG5_CFG0), 0x02CFu);
 122              		.loc 1 222 0
 123 0032 6E49     		ldr	r1, .L22+12
 236:.\Generated_Source\PSoC5/cyfitter_cfg.c **** 	/* Wait up to 250us for the PLL to lock */
 124              		.loc 1 236 0
 125 0034 1925     		movs	r5, #25
 222:.\Generated_Source\PSoC5/cyfitter_cfg.c **** 	CY_SET_XTND_REG16((void CYFAR *)(CYREG_CLKDIST_DCFG5_CFG0), 0x02CFu);
 126              		.loc 1 222 0
 127 0036 0B70     		strb	r3, [r1]
 223:.\Generated_Source\PSoC5/cyfitter_cfg.c **** 	CY_SET_XTND_REG8((void CYFAR *)(CYREG_CLKDIST_DCFG5_CFG0 + 0x2u), 0x18u);
 128              		.loc 1 223 0
 129 0038 4880     		strh	r0, [r1, #2]	@ movhi
 224:.\Generated_Source\PSoC5/cyfitter_cfg.c **** 
 130              		.loc 1 224 0
 131 003a 0B71     		strb	r3, [r1, #4]
 227:.\Generated_Source\PSoC5/cyfitter_cfg.c **** 	CY_SET_XTND_REG8((void CYFAR *)(CYREG_CLKDIST_CR), 0x08u);
 132              		.loc 1 227 0
 133 003c 81F86E22 		strb	r2, [r1, #622]
 228:.\Generated_Source\PSoC5/cyfitter_cfg.c **** 
 134              		.loc 1 228 0
 135 0040 4FF04022 		mov	r2, #1073758208
ARM GAS  D:\TEMP\ccfbKCRE.s 			page 10


 136 0044 0821     		movs	r1, #8
 137 0046 1170     		strb	r1, [r2]
 231:.\Generated_Source\PSoC5/cyfitter_cfg.c **** 	CY_SET_XTND_REG8((void CYFAR *)(CYREG_IMO_TR1), (CY_GET_XTND_REG8((void CYFAR *)CYREG_FLSHID_CUST_
 138              		.loc 1 231 0
 139 0048 0321     		movs	r1, #3
 140 004a 82F80012 		strb	r1, [r2, #512]
 232:.\Generated_Source\PSoC5/cyfitter_cfg.c **** 
 141              		.loc 1 232 0
 142 004e 684A     		ldr	r2, .L22+16
 143 0050 6849     		ldr	r1, .L22+20
 144 0052 1278     		ldrb	r2, [r2]	@ zero_extendqisi2
 238:.\Generated_Source\PSoC5/cyfitter_cfg.c **** 	for (timeout = 250u / 10u; (timeout > 0u) && (pllLock != 0x03u); timeout--)
 145              		.loc 1 238 0
 146 0054 0024     		movs	r4, #0
 232:.\Generated_Source\PSoC5/cyfitter_cfg.c **** 
 147              		.loc 1 232 0
 148 0056 D2B2     		uxtb	r2, r2
 149 0058 0A70     		strb	r2, [r1]
 235:.\Generated_Source\PSoC5/cyfitter_cfg.c **** 	CY_SET_XTND_REG16((void CYFAR *)(CYREG_FASTCLK_PLL_CFG0), 0x2251u);
 150              		.loc 1 235 0
 151 005a 674A     		ldr	r2, .L22+24
 152 005c 1380     		strh	r3, [r2]	@ movhi
 236:.\Generated_Source\PSoC5/cyfitter_cfg.c **** 	/* Wait up to 250us for the PLL to lock */
 153              		.loc 1 236 0
 154 005e 42F25122 		movw	r2, #8785
 155 0062 664B     		ldr	r3, .L22+28
 156 0064 1A80     		strh	r2, [r3]	@ movhi
 157              	.LVL4:
 158              	.L9:
 241:.\Generated_Source\PSoC5/cyfitter_cfg.c **** 		CyDelayCycles(10u * 48u); /* Delay 10us based on 48MHz clock */
 159              		.loc 1 241 0
 160 0066 664B     		ldr	r3, .L22+32
 242:.\Generated_Source\PSoC5/cyfitter_cfg.c **** 	}
 161              		.loc 1 242 0
 162 0068 4FF4F070 		mov	r0, #480
 241:.\Generated_Source\PSoC5/cyfitter_cfg.c **** 		CyDelayCycles(10u * 48u); /* Delay 10us based on 48MHz clock */
 163              		.loc 1 241 0
 164 006c 1B78     		ldrb	r3, [r3]	@ zero_extendqisi2
 165 006e 03F00103 		and	r3, r3, #1
 166 0072 43EA4404 		orr	r4, r3, r4, lsl #1
 167              	.LVL5:
 242:.\Generated_Source\PSoC5/cyfitter_cfg.c **** 	}
 168              		.loc 1 242 0
 169 0076 FFF7FEFF 		bl	CyDelayCycles
 170              	.LVL6:
 239:.\Generated_Source\PSoC5/cyfitter_cfg.c **** 	{ 
 171              		.loc 1 239 0
 172 007a 013D     		subs	r5, r5, #1
 173              	.LVL7:
 241:.\Generated_Source\PSoC5/cyfitter_cfg.c **** 		CyDelayCycles(10u * 48u); /* Delay 10us based on 48MHz clock */
 174              		.loc 1 241 0
 175 007c 04F00304 		and	r4, r4, #3
 176              	.LVL8:
 239:.\Generated_Source\PSoC5/cyfitter_cfg.c **** 	{ 
 177              		.loc 1 239 0
 178 0080 16D0     		beq	.L8
 179              	.LVL9:
ARM GAS  D:\TEMP\ccfbKCRE.s 			page 11


 180 0082 032C     		cmp	r4, #3
 181 0084 EFD1     		bne	.L9
 251:.\Generated_Source\PSoC5/cyfitter_cfg.c **** 	CY_SET_XTND_REG8((void CYFAR *)(CYREG_CLKDIST_MSTR0), 0x07u);
 182              		.loc 1 251 0
 183 0086 5F4B     		ldr	r3, .L22+36
 184 0088 4FF48072 		mov	r2, #256
 185 008c 1A80     		strh	r2, [r3]	@ movhi
 252:.\Generated_Source\PSoC5/cyfitter_cfg.c **** 	CY_SET_XTND_REG8((void CYFAR *)(CYREG_CLKDIST_BCFG0), 0x00u);
 186              		.loc 1 252 0
 187 008e 0722     		movs	r2, #7
 188 0090 1A70     		strb	r2, [r3]
 253:.\Generated_Source\PSoC5/cyfitter_cfg.c **** 	CY_SET_XTND_REG8((void CYFAR *)(CYREG_CLKDIST_BCFG2), 0x48u);
 189              		.loc 1 253 0
 190 0092 5D4A     		ldr	r2, .L22+40
 191 0094 0024     		movs	r4, #0
 192              	.LVL10:
 254:.\Generated_Source\PSoC5/cyfitter_cfg.c **** 	CY_SET_XTND_REG8((void CYFAR *)(CYREG_CLKDIST_MSTR0), 0x00u);
 193              		.loc 1 254 0
 194 0096 4821     		movs	r1, #72
 253:.\Generated_Source\PSoC5/cyfitter_cfg.c **** 	CY_SET_XTND_REG8((void CYFAR *)(CYREG_CLKDIST_BCFG2), 0x48u);
 195              		.loc 1 253 0
 196 0098 1470     		strb	r4, [r2]
 254:.\Generated_Source\PSoC5/cyfitter_cfg.c **** 	CY_SET_XTND_REG8((void CYFAR *)(CYREG_CLKDIST_MSTR0), 0x00u);
 197              		.loc 1 254 0
 198 009a 9170     		strb	r1, [r2, #2]
 256:.\Generated_Source\PSoC5/cyfitter_cfg.c **** 
 199              		.loc 1 256 0
 200 009c 0222     		movs	r2, #2
 255:.\Generated_Source\PSoC5/cyfitter_cfg.c **** 	CY_SET_XTND_REG8((void CYFAR *)(CYREG_CLKDIST_LD), 0x02u);
 201              		.loc 1 255 0
 202 009e 1C70     		strb	r4, [r3]
 256:.\Generated_Source\PSoC5/cyfitter_cfg.c **** 
 203              		.loc 1 256 0
 204 00a0 03F8032C 		strb	r2, [r3, #-3]
 258:.\Generated_Source\PSoC5/cyfitter_cfg.c **** }
 205              		.loc 1 258 0
 206 00a4 594A     		ldr	r2, .L22+44
 207 00a6 1378     		ldrb	r3, [r2]	@ zero_extendqisi2
 208 00a8 43F03F03 		orr	r3, r3, #63
 209 00ac 1370     		strb	r3, [r2]
 210              	.LVL11:
 211 00ae 00E0     		b	.L11
 212              	.LVL12:
 213              	.L8:
 214 00b0 FEE7     		b	.L8
 215              	.LVL13:
 216              	.L11:
 217              	.LBE51:
 218              	.LBE50:
 219              	.LBB52:
 220              	.LBB53:
 358:.\Generated_Source\PSoC5/cyfitter_cfg.c **** 	/* Setup clocks based on selections from Clock DWR */
 359:.\Generated_Source\PSoC5/cyfitter_cfg.c **** 	ClockSetup();
 360:.\Generated_Source\PSoC5/cyfitter_cfg.c **** 	{
 361:.\Generated_Source\PSoC5/cyfitter_cfg.c **** 
 362:.\Generated_Source\PSoC5/cyfitter_cfg.c **** 		CYPACKED typedef struct {
 363:.\Generated_Source\PSoC5/cyfitter_cfg.c **** 			void CYFAR *address;
ARM GAS  D:\TEMP\ccfbKCRE.s 			page 12


 364:.\Generated_Source\PSoC5/cyfitter_cfg.c **** 			uint16 size;
 365:.\Generated_Source\PSoC5/cyfitter_cfg.c **** 		} CYPACKED_ATTR cfg_memset_t;
 366:.\Generated_Source\PSoC5/cyfitter_cfg.c **** 
 367:.\Generated_Source\PSoC5/cyfitter_cfg.c **** 		static const cfg_memset_t CYCODE cfg_memset_list [] = {
 368:.\Generated_Source\PSoC5/cyfitter_cfg.c **** 			/* address, size */
 369:.\Generated_Source\PSoC5/cyfitter_cfg.c **** 			{(void CYFAR *)(CYREG_I2C_XCFG), 25u},
 370:.\Generated_Source\PSoC5/cyfitter_cfg.c **** 			{(void CYFAR *)(CYREG_TMR0_CFG0), 12u},
 371:.\Generated_Source\PSoC5/cyfitter_cfg.c **** 			{(void CYFAR *)(CYREG_PRT1_DR), 16u},
 372:.\Generated_Source\PSoC5/cyfitter_cfg.c **** 			{(void CYFAR *)(CYREG_PRT4_DR), 48u},
 373:.\Generated_Source\PSoC5/cyfitter_cfg.c **** 			{(void CYFAR *)(CYDEV_UCFG_B0_P0_U0_BASE), 4096u},
 374:.\Generated_Source\PSoC5/cyfitter_cfg.c **** 			{(void CYFAR *)(CYDEV_UCFG_B1_P2_U0_BASE), 2048u},
 375:.\Generated_Source\PSoC5/cyfitter_cfg.c **** 			{(void CYFAR *)(CYDEV_UCFG_DSI0_BASE), 2560u},
 376:.\Generated_Source\PSoC5/cyfitter_cfg.c **** 			{(void CYFAR *)(CYDEV_UCFG_DSI12_BASE), 512u},
 377:.\Generated_Source\PSoC5/cyfitter_cfg.c **** 			{(void CYFAR *)(CYREG_BCTL0_MDCLK_EN), 32u},
 378:.\Generated_Source\PSoC5/cyfitter_cfg.c **** 		};
 379:.\Generated_Source\PSoC5/cyfitter_cfg.c **** 
 380:.\Generated_Source\PSoC5/cyfitter_cfg.c **** 		uint8 CYDATA i;
 381:.\Generated_Source\PSoC5/cyfitter_cfg.c **** 
 382:.\Generated_Source\PSoC5/cyfitter_cfg.c **** 		/* Zero out critical memory blocks before beginning configuration */
 383:.\Generated_Source\PSoC5/cyfitter_cfg.c **** 		for (i = 0u; i < (sizeof(cfg_memset_list)/sizeof(cfg_memset_list[0])); i++)
 384:.\Generated_Source\PSoC5/cyfitter_cfg.c **** 		{
 385:.\Generated_Source\PSoC5/cyfitter_cfg.c **** 			const cfg_memset_t CYCODE * CYDATA ms = &cfg_memset_list[i];
 386:.\Generated_Source\PSoC5/cyfitter_cfg.c **** 			CYMEMZERO(ms->address, (size_t)(uint32)(ms->size));
 221              		.loc 1 386 0 discriminator 3
 222 00b2 574A     		ldr	r2, .L22+48
 223 00b4 0623     		movs	r3, #6
 224 00b6 03FB0423 		mla	r3, r3, r4, r2
 225              	.LBB54:
 226              	.LBB55:
  64:.\Generated_Source\PSoC5/cyfitter_cfg.c **** }
 227              		.loc 1 64 0 discriminator 3
 228 00ba 0021     		movs	r1, #0
 229 00bc 1868     		ldr	r0, [r3]	@ unaligned
 230 00be 9A88     		ldrh	r2, [r3, #4]	@ unaligned
 231 00c0 0134     		adds	r4, r4, #1
 232              	.LVL14:
 233 00c2 FFF7FEFF 		bl	memset
 234              	.LVL15:
 235              	.LBE55:
 236              	.LBE54:
 237              	.LBE53:
 383:.\Generated_Source\PSoC5/cyfitter_cfg.c **** 		{
 238              		.loc 1 383 0 discriminator 3
 239 00c6 092C     		cmp	r4, #9
 240 00c8 F3D1     		bne	.L11
 241 00ca 5248     		ldr	r0, .L22+52
 242 00cc 0024     		movs	r4, #0
 243              	.LVL16:
 244              	.L14:
 245              	.LBB56:
 246              	.LBB57:
 247              	.LBB58:
 177:.\Generated_Source\PSoC5/cyfitter_cfg.c **** 		uint8 count = (uint8)baseAddr;
 248              		.loc 1 177 0
 249 00ce 50F8041F 		ldr	r1, [r0, #4]!
 250              	.LVL17:
 251 00d2 04F11053 		add	r3, r4, #603979776
ARM GAS  D:\TEMP\ccfbKCRE.s 			page 13


 252 00d6 03F15402 		add	r2, r3, #84
 179:.\Generated_Source\PSoC5/cyfitter_cfg.c **** 		while (count != 0u)
 253              		.loc 1 179 0
 254 00da 21F0FF05 		bic	r5, r1, #255
 255              	.LVL18:
 256 00de 5533     		adds	r3, r3, #85
 257 00e0 C9B2     		uxtb	r1, r1
 258 00e2 0B44     		add	r3, r3, r1
 259 00e4 5200     		lsls	r2, r2, #1
 260 00e6 5B00     		lsls	r3, r3, #1
 261              	.LVL19:
 262              	.L12:
 263 00e8 0232     		adds	r2, r2, #2
 180:.\Generated_Source\PSoC5/cyfitter_cfg.c **** 		{
 264              		.loc 1 180 0
 265 00ea 9A42     		cmp	r2, r3
 266 00ec 05D0     		beq	.L21
 182:.\Generated_Source\PSoC5/cyfitter_cfg.c **** 			j++;
 267              		.loc 1 182 0
 268 00ee 12F8026C 		ldrb	r6, [r2, #-2]	@ zero_extendqisi2
 269 00f2 12F8017C 		ldrb	r7, [r2, #-1]	@ zero_extendqisi2
 270 00f6 AF55     		strb	r7, [r5, r6]
 271 00f8 F6E7     		b	.L12
 272              	.L21:
 273              	.LBE58:
 175:.\Generated_Source\PSoC5/cyfitter_cfg.c **** 	{
 274              		.loc 1 175 0
 275 00fa 474B     		ldr	r3, .L22+56
 276 00fc 0C44     		add	r4, r4, r1
 277              	.LVL20:
 278 00fe 9842     		cmp	r0, r3
 279 0100 E5D1     		bne	.L14
 280              	.LBE57:
 281              	.LBE56:
 387:.\Generated_Source\PSoC5/cyfitter_cfg.c **** 		}
 388:.\Generated_Source\PSoC5/cyfitter_cfg.c **** 
 389:.\Generated_Source\PSoC5/cyfitter_cfg.c **** 		cfg_write_bytes32(cy_cfg_addr_table, cy_cfg_data_table);
 390:.\Generated_Source\PSoC5/cyfitter_cfg.c **** 
 391:.\Generated_Source\PSoC5/cyfitter_cfg.c **** 		/* Perform normal device configuration. Order is not critical for these items. */
 392:.\Generated_Source\PSoC5/cyfitter_cfg.c **** 		CY_SET_XTND_REG16((void CYFAR *)(CYREG_LUT3_CR), 0x0303u);
 282              		.loc 1 392 0
 283 0102 40F20332 		movw	r2, #771
 284 0106 454B     		ldr	r3, .L22+60
 393:.\Generated_Source\PSoC5/cyfitter_cfg.c **** 		CYMEMZERO((void CYFAR *)(CYREG_PHUB_CFGMEM0_CFG0), 4u);
 394:.\Generated_Source\PSoC5/cyfitter_cfg.c **** 		CYCONFIGCPY((void CYFAR *)(CYREG_PHUB_CFGMEM1_CFG0), (const void CYFAR *)(BS_PHUB_CFGMEM1_VAL), 4
 395:.\Generated_Source\PSoC5/cyfitter_cfg.c **** 		CYMEMZERO((void CYFAR *)(CYREG_PHUB_CFGMEM2_CFG0), 4u);
 396:.\Generated_Source\PSoC5/cyfitter_cfg.c **** 
 397:.\Generated_Source\PSoC5/cyfitter_cfg.c **** 		/* Enable digital routing */
 398:.\Generated_Source\PSoC5/cyfitter_cfg.c **** 		CY_SET_XTND_REG8((void CYFAR *)CYREG_BCTL0_BANK_CTL, CY_GET_XTND_REG8((void CYFAR *)CYREG_BCTL0_B
 399:.\Generated_Source\PSoC5/cyfitter_cfg.c **** 		CY_SET_XTND_REG8((void CYFAR *)CYREG_BCTL1_BANK_CTL, CY_GET_XTND_REG8((void CYFAR *)CYREG_BCTL1_B
 400:.\Generated_Source\PSoC5/cyfitter_cfg.c **** 
 401:.\Generated_Source\PSoC5/cyfitter_cfg.c **** 		/* Enable UDB array */
 402:.\Generated_Source\PSoC5/cyfitter_cfg.c **** 		CY_SET_XTND_REG8((void CYFAR *)CYREG_PM_ACT_CFG0, CY_GET_XTND_REG8((void CYFAR *)CYREG_PM_ACT_CFG
 285              		.loc 1 402 0
 286 0108 454D     		ldr	r5, .L22+64
 287              	.LVL21:
 392:.\Generated_Source\PSoC5/cyfitter_cfg.c **** 		CYMEMZERO((void CYFAR *)(CYREG_PHUB_CFGMEM0_CFG0), 4u);
ARM GAS  D:\TEMP\ccfbKCRE.s 			page 14


 288              		.loc 1 392 0
 289 010a 1A80     		strh	r2, [r3]	@ movhi
 290              	.LVL22:
 291              	.LBB59:
 292              	.LBB60:
  64:.\Generated_Source\PSoC5/cyfitter_cfg.c **** }
 293              		.loc 1 64 0
 294 010c 454A     		ldr	r2, .L22+68
 295 010e 0023     		movs	r3, #0
 296 0110 1360     		str	r3, [r2]
 297              	.LVL23:
 298              	.LBE60:
 299              	.LBE59:
 300              	.LBB61:
 301              	.LBB62:
  71:.\Generated_Source\PSoC5/cyfitter_cfg.c **** }
 302              		.loc 1 71 0
 303 0112 454A     		ldr	r2, .L22+72
 304              	.LBE62:
 305              	.LBE61:
 306              	.LBE52:
 307              	.LBB67:
 308              	.LBB68:
 309 0114 454C     		ldr	r4, .L22+76
 310              	.LVL24:
 311              	.LBE68:
 312              	.LBE67:
 313              	.LBB70:
 314              	.LBB64:
 315              	.LBB63:
 316 0116 1168     		ldr	r1, [r2]
 317 0118 454A     		ldr	r2, .L22+80
 318 011a 1160     		str	r1, [r2]
 319              	.LVL25:
 320              	.LBE63:
 321              	.LBE64:
 322              	.LBB65:
 323              	.LBB66:
  64:.\Generated_Source\PSoC5/cyfitter_cfg.c **** }
 324              		.loc 1 64 0
 325 011c 9360     		str	r3, [r2, #8]
 326              	.LBE66:
 327              	.LBE65:
 398:.\Generated_Source\PSoC5/cyfitter_cfg.c **** 		CY_SET_XTND_REG8((void CYFAR *)CYREG_BCTL1_BANK_CTL, CY_GET_XTND_REG8((void CYFAR *)CYREG_BCTL1_B
 328              		.loc 1 398 0
 329 011e 02F55942 		add	r2, r2, #55552
 330 0122 FB32     		adds	r2, r2, #251
 331 0124 1378     		ldrb	r3, [r2]	@ zero_extendqisi2
 332 0126 43F00203 		orr	r3, r3, #2
 333 012a 1370     		strb	r3, [r2]
 399:.\Generated_Source\PSoC5/cyfitter_cfg.c **** 
 334              		.loc 1 399 0
 335 012c 137C     		ldrb	r3, [r2, #16]	@ zero_extendqisi2
 336 012e 43F00203 		orr	r3, r3, #2
 337 0132 1374     		strb	r3, [r2, #16]
 338              		.loc 1 402 0
 339 0134 2B78     		ldrb	r3, [r5]	@ zero_extendqisi2
ARM GAS  D:\TEMP\ccfbKCRE.s 			page 15


 403:.\Generated_Source\PSoC5/cyfitter_cfg.c **** 		CY_SET_XTND_REG8((void CYFAR *)CYREG_PM_AVAIL_CR2, CY_GET_XTND_REG8((void CYFAR *)CYREG_PM_AVAIL_
 340              		.loc 1 403 0
 341 0136 A2F58632 		sub	r2, r2, #68608
 402:.\Generated_Source\PSoC5/cyfitter_cfg.c **** 		CY_SET_XTND_REG8((void CYFAR *)CYREG_PM_AVAIL_CR2, CY_GET_XTND_REG8((void CYFAR *)CYREG_PM_AVAIL_
 342              		.loc 1 402 0
 343 013a 43F04003 		orr	r3, r3, #64
 344 013e 2B70     		strb	r3, [r5]
 345              		.loc 1 403 0
 346 0140 413A     		subs	r2, r2, #65
 347 0142 1378     		ldrb	r3, [r2]	@ zero_extendqisi2
 348 0144 43F01003 		orr	r3, r3, #16
 349 0148 1370     		strb	r3, [r2]
 350              	.LVL26:
 351              	.LBE70:
 352              	.LBB71:
 353              	.LBB72:
  71:.\Generated_Source\PSoC5/cyfitter_cfg.c **** }
 354              		.loc 1 71 0
 355 014a 3A4A     		ldr	r2, .L22+84
 356 014c 3A4B     		ldr	r3, .L22+88
 357 014e 07CA     		ldmia	r2, {r0, r1, r2}
 358 0150 03C3     		stmia	r3!, {r0, r1}
 359 0152 1A80     		strh	r2, [r3]	@ movhi
 360              	.LVL27:
 361              	.LBE72:
 362              	.LBE71:
 363              	.LBB73:
 364              	.LBB74:
 365 0154 394A     		ldr	r2, .L22+92
 366 0156 3A4B     		ldr	r3, .L22+96
 367 0158 03CB     		ldmia	r3!, {r0, r1}
 368 015a 1060     		str	r0, [r2]	@ unaligned
 369 015c 5160     		str	r1, [r2, #4]	@ unaligned
 370              	.LVL28:
 371              	.LBE74:
 372              	.LBE73:
 373              	.LBB75:
 374              	.LBB69:
 375 015e 93E80700 		ldmia	r3, {r0, r1, r2}
 376 0162 03C4     		stmia	r4!, {r0, r1}
 377 0164 2280     		strh	r2, [r4]	@ movhi
 378              	.LVL29:
 379              	.LBE69:
 380              	.LBE75:
 381              	.LBB76:
 382              	.LBB77:
 383 0166 374A     		ldr	r2, .L22+100
 384 0168 0C33     		adds	r3, r3, #12
 385 016a 03CB     		ldmia	r3!, {r0, r1}
 386              	.LBE77:
 387              	.LBE76:
 388              	.LBB79:
 389              	.LBB80:
 390 016c C83C     		subs	r4, r4, #200
 391              	.LBE80:
 392              	.LBE79:
 393              	.LBB83:
ARM GAS  D:\TEMP\ccfbKCRE.s 			page 16


 394              	.LBB78:
 395 016e 1060     		str	r0, [r2]	@ unaligned
 396 0170 5160     		str	r1, [r2, #4]	@ unaligned
 397              	.LVL30:
 398              	.LBE78:
 399              	.LBE83:
 400              	.LBB84:
 401              	.LBB81:
 402 0172 93E80700 		ldmia	r3, {r0, r1, r2}
 403 0176 03C4     		stmia	r4!, {r0, r1}
 404              	.LBE81:
 405              	.LBE84:
 404:.\Generated_Source\PSoC5/cyfitter_cfg.c **** 	}
 405:.\Generated_Source\PSoC5/cyfitter_cfg.c **** 
 406:.\Generated_Source\PSoC5/cyfitter_cfg.c **** 
 407:.\Generated_Source\PSoC5/cyfitter_cfg.c **** 	/* Perform second pass device configuration. These items must be configured in specific order afte
 408:.\Generated_Source\PSoC5/cyfitter_cfg.c **** 	CYCONFIGCPY((void CYFAR *)(CYREG_PRT0_DR), (const void CYFAR *)(BS_IOPINS0_0_VAL), 10u);
 409:.\Generated_Source\PSoC5/cyfitter_cfg.c **** 	CYCONFIGCPY((void CYFAR *)(CYREG_PRT12_DM0), (const void CYFAR *)(BS_IOPINS0_7_VAL), 8u);
 410:.\Generated_Source\PSoC5/cyfitter_cfg.c **** 	CYCONFIGCPY((void CYFAR *)(CYREG_PRT15_DR), (const void CYFAR *)(BS_IOPINS0_8_VAL), 10u);
 411:.\Generated_Source\PSoC5/cyfitter_cfg.c **** 	CYCONFIGCPY((void CYFAR *)(CYREG_PRT2_DM0), (const void CYFAR *)(BS_IOPINS0_2_VAL), 8u);
 412:.\Generated_Source\PSoC5/cyfitter_cfg.c **** 	CYCONFIGCPY((void CYFAR *)(CYREG_PRT3_DR), (const void CYFAR *)(BS_IOPINS0_3_VAL), 10u);
 413:.\Generated_Source\PSoC5/cyfitter_cfg.c **** 	CY_SET_XTND_REG8((void CYFAR *)(CYREG_B0_P2_U0_CFG27), 0x44u);
 406              		.loc 1 413 0
 407 0178 334B     		ldr	r3, .L22+104
 408              	.LBB85:
 409              	.LBB82:
  71:.\Generated_Source\PSoC5/cyfitter_cfg.c **** }
 410              		.loc 1 71 0
 411 017a 2280     		strh	r2, [r4]	@ movhi
 412              	.LBE82:
 413              	.LBE85:
 414              		.loc 1 413 0
 415 017c 4422     		movs	r2, #68
 416 017e 1A70     		strb	r2, [r3]
 414:.\Generated_Source\PSoC5/cyfitter_cfg.c **** 	CY_SET_XTND_REG8((void CYFAR *)(CYREG_B1_P2_U0_CFG27), 0xC4u);
 417              		.loc 1 414 0
 418 0180 C421     		movs	r1, #196
 419 0182 03F58053 		add	r3, r3, #4096
 420 0186 1970     		strb	r1, [r3]
 415:.\Generated_Source\PSoC5/cyfitter_cfg.c **** 	/* Switch Boost to the precision bandgap reference from its internal reference */
 416:.\Generated_Source\PSoC5/cyfitter_cfg.c **** 	CY_SET_REG8((void CYXDATA *)CYREG_BOOST_CR2, (CY_GET_REG8((void CYXDATA *)CYREG_BOOST_CR2) | 0x08u
 421              		.loc 1 416 0
 422 0188 3049     		ldr	r1, .L22+108
 423              	.LBB86:
 424              	.LBB87:
  71:.\Generated_Source\PSoC5/cyfitter_cfg.c **** }
 425              		.loc 1 71 0
 426 018a A4F68854 		subw	r4, r4, #3464
 427              	.LBE87:
 428              	.LBE86:
 429              		.loc 1 416 0
 430 018e 0B78     		ldrb	r3, [r1]	@ zero_extendqisi2
 431 0190 43F00803 		orr	r3, r3, #8
 432 0194 0B70     		strb	r3, [r1]
 433              	.LBB89:
 434              	.LBB90:
 283:.\Generated_Source\PSoC5/cyfitter_cfg.c **** 	CY_SET_XTND_REG8((void CYFAR *)(CYREG_BG_DFT0), (bg_xover_inl_trim & 0x07u));
ARM GAS  D:\TEMP\ccfbKCRE.s 			page 17


 435              		.loc 1 283 0
 436 0196 2E4B     		ldr	r3, .L22+112
 284:.\Generated_Source\PSoC5/cyfitter_cfg.c **** 	CY_SET_XTND_REG8((void CYFAR *)(CYREG_BG_DFT1), ((bg_xover_inl_trim >> 4) & 0x0Fu));
 437              		.loc 1 284 0
 438 0198 01F5AA51 		add	r1, r1, #5440
 283:.\Generated_Source\PSoC5/cyfitter_cfg.c **** 	CY_SET_XTND_REG8((void CYFAR *)(CYREG_BG_DFT0), (bg_xover_inl_trim & 0x07u));
 439              		.loc 1 283 0
 440 019c 1B78     		ldrb	r3, [r3]	@ zero_extendqisi2
 284:.\Generated_Source\PSoC5/cyfitter_cfg.c **** 	CY_SET_XTND_REG8((void CYFAR *)(CYREG_BG_DFT1), ((bg_xover_inl_trim >> 4) & 0x0Fu));
 441              		.loc 1 284 0
 442 019e 0C31     		adds	r1, r1, #12
 283:.\Generated_Source\PSoC5/cyfitter_cfg.c **** 	CY_SET_XTND_REG8((void CYFAR *)(CYREG_BG_DFT0), (bg_xover_inl_trim & 0x07u));
 443              		.loc 1 283 0
 444 01a0 DBB2     		uxtb	r3, r3
 445              	.LVL31:
 284:.\Generated_Source\PSoC5/cyfitter_cfg.c **** 	CY_SET_XTND_REG8((void CYFAR *)(CYREG_BG_DFT1), ((bg_xover_inl_trim >> 4) & 0x0Fu));
 446              		.loc 1 284 0
 447 01a2 03F00700 		and	r0, r3, #7
 285:.\Generated_Source\PSoC5/cyfitter_cfg.c **** 	CY_SET_XTND_REG8((void CYFAR *)CYREG_PRT0_AG, 0x1Cu);
 448              		.loc 1 285 0
 449 01a6 1B09     		lsrs	r3, r3, #4
 450              	.LVL32:
 284:.\Generated_Source\PSoC5/cyfitter_cfg.c **** 	CY_SET_XTND_REG8((void CYFAR *)(CYREG_BG_DFT1), ((bg_xover_inl_trim >> 4) & 0x0Fu));
 451              		.loc 1 284 0
 452 01a8 0870     		strb	r0, [r1]
 285:.\Generated_Source\PSoC5/cyfitter_cfg.c **** 	CY_SET_XTND_REG8((void CYFAR *)CYREG_PRT0_AG, 0x1Cu);
 453              		.loc 1 285 0
 454 01aa 4B70     		strb	r3, [r1, #1]
 286:.\Generated_Source\PSoC5/cyfitter_cfg.c **** 	CY_SET_XTND_REG8((void CYFAR *)CYREG_BG_CR0, 0x02u);
 455              		.loc 1 286 0
 456 01ac 294B     		ldr	r3, .L22+116
 457 01ae 1C21     		movs	r1, #28
 458 01b0 1970     		strb	r1, [r3]
 287:.\Generated_Source\PSoC5/cyfitter_cfg.c **** 	CY_SET_XTND_REG8((void CYFAR *)CYREG_DAC2_SW0, 0x10u);
 459              		.loc 1 287 0
 460 01b2 0221     		movs	r1, #2
 461 01b4 83F85F17 		strb	r1, [r3, #1887]
 288:.\Generated_Source\PSoC5/cyfitter_cfg.c **** 	CY_SET_XTND_REG8((void CYFAR *)CYREG_CMP3_SW0, 0x10u);
 462              		.loc 1 288 0
 463 01b8 2749     		ldr	r1, .L22+120
 464 01ba 1023     		movs	r3, #16
 290:.\Generated_Source\PSoC5/cyfitter_cfg.c **** 	CY_SET_XTND_REG8((void CYFAR *)CYREG_DSM0_SW0, 0xD0u);
 465              		.loc 1 290 0
 466 01bc 4020     		movs	r0, #64
 288:.\Generated_Source\PSoC5/cyfitter_cfg.c **** 	CY_SET_XTND_REG8((void CYFAR *)CYREG_CMP3_SW0, 0x10u);
 467              		.loc 1 288 0
 468 01be 0B70     		strb	r3, [r1]
 289:.\Generated_Source\PSoC5/cyfitter_cfg.c **** 	CY_SET_XTND_REG8((void CYFAR *)CYREG_CMP3_SW3, 0x40u);
 469              		.loc 1 289 0
 470 01c0 81F84830 		strb	r3, [r1, #72]
 290:.\Generated_Source\PSoC5/cyfitter_cfg.c **** 	CY_SET_XTND_REG8((void CYFAR *)CYREG_DSM0_SW0, 0xD0u);
 471              		.loc 1 290 0
 472 01c4 81F84B00 		strb	r0, [r1, #75]
 291:.\Generated_Source\PSoC5/cyfitter_cfg.c **** 	CY_SET_XTND_REG8((void CYFAR *)CYREG_BUS_SW0, 0x10u);
 473              		.loc 1 291 0
 474 01c8 D020     		movs	r0, #208
 475 01ca 81F87000 		strb	r0, [r1, #112]
ARM GAS  D:\TEMP\ccfbKCRE.s 			page 18


 292:.\Generated_Source\PSoC5/cyfitter_cfg.c **** 	CY_SET_XTND_REG8((void CYFAR *)CYREG_PUMP_CR0, 0x44u);
 476              		.loc 1 292 0
 477 01ce 81F8C830 		strb	r3, [r1, #200]
 293:.\Generated_Source\PSoC5/cyfitter_cfg.c **** }
 478              		.loc 1 293 0
 479 01d2 224B     		ldr	r3, .L22+124
 480 01d4 1A70     		strb	r2, [r3]
 481              	.LVL33:
 482              	.LBE90:
 483              	.LBE89:
 484              	.LBB91:
 485              	.LBB88:
  71:.\Generated_Source\PSoC5/cyfitter_cfg.c **** }
 486              		.loc 1 71 0
 487 01d6 95E80F00 		ldmia	r5, {r0, r1, r2, r3}
 488 01da 07C4     		stmia	r4!, {r0, r1, r2}
 489 01dc 2380     		strh	r3, [r4]	@ movhi
 490 01de F8BD     		pop	{r3, r4, r5, r6, r7, pc}
 491              	.L23:
 492              		.align	2
 493              	.L22:
 494 01e0 00480040 		.word	1073760256
 495 01e4 82400040 		.word	1073758338
 496 01e8 8C400040 		.word	1073758348
 497 01ec 92400040 		.word	1073758354
 498 01f0 08010049 		.word	1224737032
 499 01f4 A1460040 		.word	1073759905
 500 01f8 22420040 		.word	1073758754
 501 01fc 20420040 		.word	1073758752
 502 0200 25420040 		.word	1073758757
 503 0204 04400040 		.word	1073758212
 504 0208 06400040 		.word	1073758214
 505 020c A2430040 		.word	1073759138
 506 0210 00000000 		.word	.LANCHOR0
 507 0214 FCFFFF47 		.word	1207959548
 508 0218 A4000048 		.word	1207959716
 509 021c 4E580040 		.word	1073764430
 510 0220 A0430040 		.word	1073759136
 511 0224 00760040 		.word	1073772032
 512 0228 64110048 		.word	1207964004
 513 022c F0510040 		.word	1073762800
 514 0230 08760040 		.word	1073772040
 515 0234 30110048 		.word	1207963952
 516 0238 00510040 		.word	1073762560
 517 023c C2510040 		.word	1073762754
 518 0240 3C110048 		.word	1207963964
 519 0244 22510040 		.word	1073762594
 520 0248 5B040140 		.word	1073808475
 521 024c 22430040 		.word	1073759010
 522 0250 CF010049 		.word	1224737231
 523 0254 0D510040 		.word	1073762573
 524 0258 905A0040 		.word	1073765008
 525 025c 76580040 		.word	1073764470
 526              	.LBE88:
 527              	.LBE91:
 528              		.cfi_endproc
 529              	.LFE8:
ARM GAS  D:\TEMP\ccfbKCRE.s 			page 19


 530              		.size	cyfitter_cfg, .-cyfitter_cfg
 531              		.section	.rodata
 532              		.set	.LANCHOR0,. + 0
 533              		.type	cfg_memset_list.4880, %object
 534              		.size	cfg_memset_list.4880, 54
 535              	cfg_memset_list.4880:
 536 0000 C8490040 		.4byte	1073760712
 537 0004 1900     		.2byte	25
 538 0006 004F0040 		.4byte	1073762048
 539 000a 0C00     		.2byte	12
 540 000c 10510040 		.4byte	1073762576
 541 0010 1000     		.2byte	16
 542 0012 40510040 		.4byte	1073762624
 543 0016 3000     		.2byte	48
 544 0018 00000140 		.4byte	1073807360
 545 001c 0010     		.2byte	4096
 546 001e 00140140 		.4byte	1073812480
 547 0022 0008     		.2byte	2048
 548 0024 00400140 		.4byte	1073823744
 549 0028 000A     		.2byte	2560
 550 002a 004C0140 		.4byte	1073826816
 551 002e 0002     		.2byte	512
 552 0030 00500140 		.4byte	1073827840
 553 0034 2000     		.2byte	32
 554              		.text
 555              	.Letext0:
 556              		.file 2 "d:\\program files (x86)\\cypress\\psoc creator\\3.3\\psoc creator\\import\\gnu\\arm\\4.9.
 557              		.file 3 ".\\Generated_Source\\PSoC5\\cytypes.h"
 558              		.file 4 ".\\Generated_Source\\PSoC5\\CyLib.h"