ARM GAS  D:\TEMP\ccVzUQRX.s 			page 1


   1              		.syntax unified
   2              		.cpu cortex-m3
   3              		.fpu softvfp
   4              		.eabi_attribute 20, 1
   5              		.eabi_attribute 21, 1
   6              		.eabi_attribute 23, 3
   7              		.eabi_attribute 24, 1
   8              		.eabi_attribute 25, 1
   9              		.eabi_attribute 26, 1
  10              		.eabi_attribute 30, 4
  11              		.eabi_attribute 34, 1
  12              		.eabi_attribute 18, 4
  13              		.thumb
  14              		.file	"LCD.c"
  15              		.text
  16              	.Ltext0:
  17              		.cfi_sections	.debug_frame
  18              		.section	.text.LCD_WriteReg,"ax",%progbits
  19              		.align	1
  20              		.global	LCD_WriteReg
  21              		.thumb
  22              		.thumb_func
  23              		.type	LCD_WriteReg, %function
  24              	LCD_WriteReg:
  25              	.LFB64:
  26              		.file 1 ".\\Generated_Source\\PSoC5\\LCD.c"
   1:.\Generated_Source\PSoC5/LCD.c **** #include<project.h>
   2:.\Generated_Source\PSoC5/LCD.c **** 
   3:.\Generated_Source\PSoC5/LCD.c **** #define LCD_CS_Write     CS ## _Write
   4:.\Generated_Source\PSoC5/LCD.c **** #define LCD_CS_Read      CS ## _Read
   5:.\Generated_Source\PSoC5/LCD.c **** #define LCD_OE      OE ## _Control
   6:.\Generated_Source\PSoC5/LCD.c **** #define LCD_D_PS       D ## _PS
   7:.\Generated_Source\PSoC5/LCD.c **** #define LCD_LCD_RD_Write LCD_RD ## _Write
   8:.\Generated_Source\PSoC5/LCD.c **** 
   9:.\Generated_Source\PSoC5/LCD.c **** void LCD_Start()
  10:.\Generated_Source\PSoC5/LCD.c **** {
  11:.\Generated_Source\PSoC5/LCD.c ****     uint8 cs=LCD_CS_Read(); //read intial state to restore afterwards
  12:.\Generated_Source\PSoC5/LCD.c ****     uint8 oe=LCD_OE;
  13:.\Generated_Source\PSoC5/LCD.c ****     LCD_CS_Write(3); //select LCD
  14:.\Generated_Source\PSoC5/LCD.c ****     LCD_OE=1; //enable data bus output
  15:.\Generated_Source\PSoC5/LCD.c ****     
  16:.\Generated_Source\PSoC5/LCD.c ****     LCD_Command(0x01); //software reset
  17:.\Generated_Source\PSoC5/LCD.c ****     CyDelay(5);
  18:.\Generated_Source\PSoC5/LCD.c ****     LCD_Command(0x11); //take out of sleep
  19:.\Generated_Source\PSoC5/LCD.c ****     CyDelay(100);
  20:.\Generated_Source\PSoC5/LCD.c ****     LCD_Command(0x29); //turn display on
  21:.\Generated_Source\PSoC5/LCD.c ****     LCD_WriteReg(0x36,0xe8); //flip image horizontally and vertically; swap rows/columns; set to BG
  22:.\Generated_Source\PSoC5/LCD.c ****     
  23:.\Generated_Source\PSoC5/LCD.c ****     //gamma correction settings
  24:.\Generated_Source\PSoC5/LCD.c ****     uint8 gamma_p[]={0x0F,0x31,0x2B,0x0C,0x0E,0x08,0x4E,0xF1,0x37,0x07,0x10,0x03,0x0E,0x09,0x00};
  25:.\Generated_Source\PSoC5/LCD.c ****     uint8 gamma_n[]={0x00,0x0E,0x14,0x03,0x11,0x07,0x31,0xC1,0x48,0x08,0x0F,0x0C,0x31,0x36,0x0F};
  26:.\Generated_Source\PSoC5/LCD.c ****     LCD_WriteArray(0xe0,gamma_p,sizeof gamma_p);
  27:.\Generated_Source\PSoC5/LCD.c ****     LCD_WriteArray(0xe1,gamma_n,sizeof gamma_n);
  28:.\Generated_Source\PSoC5/LCD.c ****     
  29:.\Generated_Source\PSoC5/LCD.c ****     LCD_OE=oe; //restore output enable
  30:.\Generated_Source\PSoC5/LCD.c ****     LCD_CS_Write(cs); //restore initial chip select
  31:.\Generated_Source\PSoC5/LCD.c **** }
ARM GAS  D:\TEMP\ccVzUQRX.s 			page 2


  32:.\Generated_Source\PSoC5/LCD.c **** 
  33:.\Generated_Source\PSoC5/LCD.c **** void LCD_WriteReg(uint8 reg,uint8 value)
  34:.\Generated_Source\PSoC5/LCD.c **** {
  27              		.loc 1 34 0
  28              		.cfi_startproc
  29              		@ args = 0, pretend = 0, frame = 0
  30              		@ frame_needed = 0, uses_anonymous_args = 0
  31              	.LVL0:
  32 0000 2DE9F041 		push	{r4, r5, r6, r7, r8, lr}
  33              		.cfi_def_cfa_offset 24
  34              		.cfi_offset 4, -24
  35              		.cfi_offset 5, -20
  36              		.cfi_offset 6, -16
  37              		.cfi_offset 7, -12
  38              		.cfi_offset 8, -8
  39              		.cfi_offset 14, -4
  40              		.loc 1 34 0
  41 0004 0E46     		mov	r6, r1
  42 0006 0746     		mov	r7, r0
  35:.\Generated_Source\PSoC5/LCD.c ****     uint8 cs=LCD_CS_Read(); //read intial state to restore afterwards
  43              		.loc 1 35 0
  44 0008 FFF7FEFF 		bl	CS_Read
  45              	.LVL1:
  36:.\Generated_Source\PSoC5/LCD.c ****     uint8 oe=LCD_OE;
  46              		.loc 1 36 0
  47 000c 0F4C     		ldr	r4, .L12
  35:.\Generated_Source\PSoC5/LCD.c ****     uint8 cs=LCD_CS_Read(); //read intial state to restore afterwards
  48              		.loc 1 35 0
  49 000e 8046     		mov	r8, r0
  50              	.LVL2:
  51              		.loc 1 36 0
  52 0010 2578     		ldrb	r5, [r4]	@ zero_extendqisi2
  37:.\Generated_Source\PSoC5/LCD.c ****     LCD_CS_Write(3); //select LCD
  53              		.loc 1 37 0
  54 0012 0320     		movs	r0, #3
  55 0014 FFF7FEFF 		bl	CS_Write
  56              	.LVL3:
  38:.\Generated_Source\PSoC5/LCD.c ****     LCD_OE=1; //enable data bus output
  57              		.loc 1 38 0
  58 0018 0123     		movs	r3, #1
  36:.\Generated_Source\PSoC5/LCD.c ****     uint8 oe=LCD_OE;
  59              		.loc 1 36 0
  60 001a EDB2     		uxtb	r5, r5
  61              	.LVL4:
  62              		.loc 1 38 0
  63 001c 2370     		strb	r3, [r4]
  64              	.L2:
  39:.\Generated_Source\PSoC5/LCD.c ****     
  40:.\Generated_Source\PSoC5/LCD.c ****     while(!LCD_Ready);
  65              		.loc 1 40 0 discriminator 1
  66 001e 0C4B     		ldr	r3, .L12+4
  67 0020 1A78     		ldrb	r2, [r3]	@ zero_extendqisi2
  68 0022 D007     		lsls	r0, r2, #31
  69 0024 FBD5     		bpl	.L2
  41:.\Generated_Source\PSoC5/LCD.c ****     LCD_Command(reg);
  70              		.loc 1 41 0
  71 0026 0B4A     		ldr	r2, .L12+8
ARM GAS  D:\TEMP\ccVzUQRX.s 			page 3


  72 0028 47F48077 		orr	r7, r7, #256
  73 002c 1780     		strh	r7, [r2]	@ movhi
  74              	.L3:
  42:.\Generated_Source\PSoC5/LCD.c ****     while(!LCD_Ready);
  75              		.loc 1 42 0 discriminator 1
  76 002e 1978     		ldrb	r1, [r3]	@ zero_extendqisi2
  77 0030 C907     		lsls	r1, r1, #31
  78 0032 FCD5     		bpl	.L3
  43:.\Generated_Source\PSoC5/LCD.c ****     LCD_Data(value);
  79              		.loc 1 43 0
  80 0034 B6B2     		uxth	r6, r6
  81 0036 1680     		strh	r6, [r2]	@ movhi
  82              	.L4:
  44:.\Generated_Source\PSoC5/LCD.c ****     while(!LCD_Empty);
  83              		.loc 1 44 0 discriminator 1
  84 0038 1A78     		ldrb	r2, [r3]	@ zero_extendqisi2
  85 003a 9207     		lsls	r2, r2, #30
  86 003c FCD5     		bpl	.L4
  45:.\Generated_Source\PSoC5/LCD.c ****     
  46:.\Generated_Source\PSoC5/LCD.c ****     LCD_OE=oe; //restore output enable
  87              		.loc 1 46 0
  88 003e 2570     		strb	r5, [r4]
  47:.\Generated_Source\PSoC5/LCD.c ****     LCD_CS_Write(cs); //restore initial chip select
  89              		.loc 1 47 0
  90 0040 4046     		mov	r0, r8
  48:.\Generated_Source\PSoC5/LCD.c **** }
  91              		.loc 1 48 0
  92 0042 BDE8F041 		pop	{r4, r5, r6, r7, r8, lr}
  93              		.cfi_restore 14
  94              		.cfi_restore 8
  95              		.cfi_restore 7
  96              		.cfi_restore 6
  97              		.cfi_restore 5
  98              		.cfi_restore 4
  99              		.cfi_def_cfa_offset 0
 100              	.LVL5:
  47:.\Generated_Source\PSoC5/LCD.c ****     LCD_CS_Write(cs); //restore initial chip select
 101              		.loc 1 47 0
 102 0046 FFF7FEBF 		b	CS_Write
 103              	.LVL6:
 104              	.L13:
 105 004a 00BF     		.align	2
 106              	.L12:
 107 004c 7D640040 		.word	1073767549
 108 0050 6C640040 		.word	1073767532
 109 0054 98680040 		.word	1073768600
 110              		.cfi_endproc
 111              	.LFE64:
 112              		.size	LCD_WriteReg, .-LCD_WriteReg
 113              		.section	.text.LCD_WriteArray,"ax",%progbits
 114              		.align	1
 115              		.global	LCD_WriteArray
 116              		.thumb
 117              		.thumb_func
 118              		.type	LCD_WriteArray, %function
 119              	LCD_WriteArray:
 120              	.LFB65:
ARM GAS  D:\TEMP\ccVzUQRX.s 			page 4


  49:.\Generated_Source\PSoC5/LCD.c **** 
  50:.\Generated_Source\PSoC5/LCD.c **** void LCD_WriteArray(uint8 reg,uint8 *values,uint8 n)
  51:.\Generated_Source\PSoC5/LCD.c **** {
 121              		.loc 1 51 0
 122              		.cfi_startproc
 123              		@ args = 0, pretend = 0, frame = 0
 124              		@ frame_needed = 0, uses_anonymous_args = 0
 125              	.LVL7:
 126 0000 2DE9F843 		push	{r3, r4, r5, r6, r7, r8, r9, lr}
 127              		.cfi_def_cfa_offset 32
 128              		.cfi_offset 3, -32
 129              		.cfi_offset 4, -28
 130              		.cfi_offset 5, -24
 131              		.cfi_offset 6, -20
 132              		.cfi_offset 7, -16
 133              		.cfi_offset 8, -12
 134              		.cfi_offset 9, -8
 135              		.cfi_offset 14, -4
 136              		.loc 1 51 0
 137 0004 0F46     		mov	r7, r1
 138 0006 9146     		mov	r9, r2
 139 0008 0446     		mov	r4, r0
  52:.\Generated_Source\PSoC5/LCD.c ****     uint8 cs=LCD_CS_Read(); //read intial state to restore afterwards
 140              		.loc 1 52 0
 141 000a FFF7FEFF 		bl	CS_Read
 142              	.LVL8:
  53:.\Generated_Source\PSoC5/LCD.c ****     uint8 oe=LCD_OE;
 143              		.loc 1 53 0
 144 000e 124D     		ldr	r5, .L27
  52:.\Generated_Source\PSoC5/LCD.c ****     uint8 cs=LCD_CS_Read(); //read intial state to restore afterwards
 145              		.loc 1 52 0
 146 0010 8046     		mov	r8, r0
 147              	.LVL9:
 148              		.loc 1 53 0
 149 0012 2E78     		ldrb	r6, [r5]	@ zero_extendqisi2
  54:.\Generated_Source\PSoC5/LCD.c ****     LCD_CS_Write(3); //select LCD
 150              		.loc 1 54 0
 151 0014 0320     		movs	r0, #3
 152 0016 FFF7FEFF 		bl	CS_Write
 153              	.LVL10:
  55:.\Generated_Source\PSoC5/LCD.c ****     LCD_OE=1; //enable data bus output
 154              		.loc 1 55 0
 155 001a 0123     		movs	r3, #1
  53:.\Generated_Source\PSoC5/LCD.c ****     uint8 oe=LCD_OE;
 156              		.loc 1 53 0
 157 001c F6B2     		uxtb	r6, r6
 158              	.LVL11:
 159              		.loc 1 55 0
 160 001e 2B70     		strb	r3, [r5]
 161              	.L15:
  56:.\Generated_Source\PSoC5/LCD.c ****     
  57:.\Generated_Source\PSoC5/LCD.c ****     while(!LCD_Ready);
 162              		.loc 1 57 0 discriminator 1
 163 0020 0E4B     		ldr	r3, .L27+4
 164 0022 1A78     		ldrb	r2, [r3]	@ zero_extendqisi2
 165 0024 D007     		lsls	r0, r2, #31
 166 0026 FBD5     		bpl	.L15
ARM GAS  D:\TEMP\ccVzUQRX.s 			page 5


  58:.\Generated_Source\PSoC5/LCD.c ****     LCD_Command(reg);
 167              		.loc 1 58 0
 168 0028 44F48070 		orr	r0, r4, #256
 169 002c 0C4C     		ldr	r4, .L27+8
 170 002e 2080     		strh	r0, [r4]	@ movhi
 171              	.LVL12:
  59:.\Generated_Source\PSoC5/LCD.c ****     int i;
  60:.\Generated_Source\PSoC5/LCD.c ****     for(i=0;i<n;i++)
 172              		.loc 1 60 0
 173 0030 3846     		mov	r0, r7
 174              	.LVL13:
 175              	.L16:
 176 0032 C21B     		subs	r2, r0, r7
 177              		.loc 1 60 0 is_stmt 0 discriminator 1
 178 0034 4A45     		cmp	r2, r9
 179 0036 06DA     		bge	.L23
 180              	.L22:
  61:.\Generated_Source\PSoC5/LCD.c ****     {
  62:.\Generated_Source\PSoC5/LCD.c ****         while(!LCD_Ready);
 181              		.loc 1 62 0 is_stmt 1 discriminator 1
 182 0038 1A78     		ldrb	r2, [r3]	@ zero_extendqisi2
 183 003a D107     		lsls	r1, r2, #31
 184 003c FCD5     		bpl	.L22
  63:.\Generated_Source\PSoC5/LCD.c ****         LCD_Data(values[i]);
 185              		.loc 1 63 0 discriminator 2
 186 003e 10F8012B 		ldrb	r2, [r0], #1	@ zero_extendqisi2
 187              	.LVL14:
 188 0042 2280     		strh	r2, [r4]	@ movhi
 189              	.LVL15:
 190 0044 F5E7     		b	.L16
 191              	.L23:
  64:.\Generated_Source\PSoC5/LCD.c ****     }
  65:.\Generated_Source\PSoC5/LCD.c ****     while(!LCD_Empty);
 192              		.loc 1 65 0 discriminator 1
 193 0046 1A78     		ldrb	r2, [r3]	@ zero_extendqisi2
 194 0048 9207     		lsls	r2, r2, #30
 195 004a FCD5     		bpl	.L23
  66:.\Generated_Source\PSoC5/LCD.c ****     
  67:.\Generated_Source\PSoC5/LCD.c ****     LCD_OE=oe; //restore output enable
 196              		.loc 1 67 0
 197 004c 2E70     		strb	r6, [r5]
  68:.\Generated_Source\PSoC5/LCD.c ****     LCD_CS_Write(cs); //restore initial chip select
 198              		.loc 1 68 0
 199 004e 4046     		mov	r0, r8
 200              	.LVL16:
  69:.\Generated_Source\PSoC5/LCD.c **** }
 201              		.loc 1 69 0
 202 0050 BDE8F843 		pop	{r3, r4, r5, r6, r7, r8, r9, lr}
 203              		.cfi_restore 14
 204              		.cfi_restore 9
 205              		.cfi_restore 8
 206              		.cfi_restore 7
 207              		.cfi_restore 6
 208              		.cfi_restore 5
 209              		.cfi_restore 4
 210              		.cfi_restore 3
 211              		.cfi_def_cfa_offset 0
ARM GAS  D:\TEMP\ccVzUQRX.s 			page 6


 212              	.LVL17:
  68:.\Generated_Source\PSoC5/LCD.c ****     LCD_CS_Write(cs); //restore initial chip select
 213              		.loc 1 68 0
 214 0054 FFF7FEBF 		b	CS_Write
 215              	.LVL18:
 216              	.L28:
 217              		.align	2
 218              	.L27:
 219 0058 7D640040 		.word	1073767549
 220 005c 6C640040 		.word	1073767532
 221 0060 98680040 		.word	1073768600
 222              		.cfi_endproc
 223              	.LFE65:
 224              		.size	LCD_WriteArray, .-LCD_WriteArray
 225              		.section	.text.LCD_Start,"ax",%progbits
 226              		.align	1
 227              		.global	LCD_Start
 228              		.thumb
 229              		.thumb_func
 230              		.type	LCD_Start, %function
 231              	LCD_Start:
 232              	.LFB63:
  10:.\Generated_Source\PSoC5/LCD.c ****     uint8 cs=LCD_CS_Read(); //read intial state to restore afterwards
 233              		.loc 1 10 0
 234              		.cfi_startproc
 235              		@ args = 0, pretend = 0, frame = 32
 236              		@ frame_needed = 0, uses_anonymous_args = 0
 237 0000 2DE9F041 		push	{r4, r5, r6, r7, r8, lr}
 238              		.cfi_def_cfa_offset 24
 239              		.cfi_offset 4, -24
 240              		.cfi_offset 5, -20
 241              		.cfi_offset 6, -16
 242              		.cfi_offset 7, -12
 243              		.cfi_offset 8, -8
 244              		.cfi_offset 14, -4
 245 0004 88B0     		sub	sp, sp, #32
 246              		.cfi_def_cfa_offset 56
  11:.\Generated_Source\PSoC5/LCD.c ****     uint8 oe=LCD_OE;
 247              		.loc 1 11 0
 248 0006 FFF7FEFF 		bl	CS_Read
 249              	.LVL19:
  12:.\Generated_Source\PSoC5/LCD.c ****     LCD_CS_Write(3); //select LCD
 250              		.loc 1 12 0
 251 000a 2A4C     		ldr	r4, .L34
  11:.\Generated_Source\PSoC5/LCD.c ****     uint8 oe=LCD_OE;
 252              		.loc 1 11 0
 253 000c 0646     		mov	r6, r0
 254              	.LVL20:
  13:.\Generated_Source\PSoC5/LCD.c ****     LCD_OE=1; //enable data bus output
 255              		.loc 1 13 0
 256 000e 0320     		movs	r0, #3
  12:.\Generated_Source\PSoC5/LCD.c ****     LCD_CS_Write(3); //select LCD
 257              		.loc 1 12 0
 258 0010 2578     		ldrb	r5, [r4]	@ zero_extendqisi2
  13:.\Generated_Source\PSoC5/LCD.c ****     LCD_OE=1; //enable data bus output
 259              		.loc 1 13 0
 260 0012 FFF7FEFF 		bl	CS_Write
ARM GAS  D:\TEMP\ccVzUQRX.s 			page 7


 261              	.LVL21:
  14:.\Generated_Source\PSoC5/LCD.c ****     
 262              		.loc 1 14 0
 263 0016 0123     		movs	r3, #1
 264 0018 2370     		strb	r3, [r4]
  16:.\Generated_Source\PSoC5/LCD.c ****     CyDelay(5);
 265              		.loc 1 16 0
 266 001a 40F20113 		movw	r3, #257
 267 001e 264F     		ldr	r7, .L34+4
  17:.\Generated_Source\PSoC5/LCD.c ****     LCD_Command(0x11); //take out of sleep
 268              		.loc 1 17 0
 269 0020 0520     		movs	r0, #5
  16:.\Generated_Source\PSoC5/LCD.c ****     CyDelay(5);
 270              		.loc 1 16 0
 271 0022 3B80     		strh	r3, [r7]	@ movhi
  17:.\Generated_Source\PSoC5/LCD.c ****     LCD_Command(0x11); //take out of sleep
 272              		.loc 1 17 0
 273 0024 FFF7FEFF 		bl	CyDelay
 274              	.LVL22:
  18:.\Generated_Source\PSoC5/LCD.c ****     CyDelay(100);
 275              		.loc 1 18 0
 276 0028 40F21113 		movw	r3, #273
  19:.\Generated_Source\PSoC5/LCD.c ****     LCD_Command(0x29); //turn display on
 277              		.loc 1 19 0
 278 002c 6420     		movs	r0, #100
  18:.\Generated_Source\PSoC5/LCD.c ****     CyDelay(100);
 279              		.loc 1 18 0
 280 002e 3B80     		strh	r3, [r7]	@ movhi
  19:.\Generated_Source\PSoC5/LCD.c ****     LCD_Command(0x29); //turn display on
 281              		.loc 1 19 0
 282 0030 FFF7FEFF 		bl	CyDelay
 283              	.LVL23:
  20:.\Generated_Source\PSoC5/LCD.c ****     LCD_WriteReg(0x36,0xe8); //flip image horizontally and vertically; swap rows/columns; set to BG
 284              		.loc 1 20 0
 285 0034 40F22913 		movw	r3, #297
  21:.\Generated_Source\PSoC5/LCD.c ****     
 286              		.loc 1 21 0
 287 0038 3620     		movs	r0, #54
  20:.\Generated_Source\PSoC5/LCD.c ****     LCD_WriteReg(0x36,0xe8); //flip image horizontally and vertically; swap rows/columns; set to BG
 288              		.loc 1 20 0
 289 003a 3B80     		strh	r3, [r7]	@ movhi
  21:.\Generated_Source\PSoC5/LCD.c ****     
 290              		.loc 1 21 0
 291 003c E821     		movs	r1, #232
 292 003e FFF7FEFF 		bl	LCD_WriteReg
 293              	.LVL24:
 294 0042 2746     		mov	r7, r4
  24:.\Generated_Source\PSoC5/LCD.c ****     uint8 gamma_n[]={0x00,0x0E,0x14,0x03,0x11,0x07,0x31,0xC1,0x48,0x08,0x0F,0x0C,0x31,0x36,0x0F};
 295              		.loc 1 24 0
 296 0044 6A46     		mov	r2, sp
 297 0046 EE46     		mov	lr, sp
 298 0048 1C4B     		ldr	r3, .L34+8
  12:.\Generated_Source\PSoC5/LCD.c ****     LCD_CS_Write(3); //select LCD
 299              		.loc 1 12 0
 300 004a EDB2     		uxtb	r5, r5
 301              	.LVL25:
  24:.\Generated_Source\PSoC5/LCD.c ****     uint8 gamma_n[]={0x00,0x0E,0x14,0x03,0x11,0x07,0x31,0xC1,0x48,0x08,0x0F,0x0C,0x31,0x36,0x0F};
ARM GAS  D:\TEMP\ccVzUQRX.s 			page 8


 302              		.loc 1 24 0
 303 004c 03F1080C 		add	ip, r3, #8
 304              	.L30:
 305 0050 1446     		mov	r4, r2
 306 0052 1868     		ldr	r0, [r3]	@ unaligned
 307 0054 5968     		ldr	r1, [r3, #4]	@ unaligned
 308 0056 0833     		adds	r3, r3, #8
 309 0058 03C4     		stmia	r4!, {r0, r1}
 310 005a 6345     		cmp	r3, ip
 311 005c 2246     		mov	r2, r4
 312 005e F7D1     		bne	.L30
  25:.\Generated_Source\PSoC5/LCD.c ****     LCD_WriteArray(0xe0,gamma_p,sizeof gamma_p);
 313              		.loc 1 25 0
 314 0060 04AA     		add	r2, sp, #16
 315 0062 9046     		mov	r8, r2
  24:.\Generated_Source\PSoC5/LCD.c ****     uint8 gamma_n[]={0x00,0x0E,0x14,0x03,0x11,0x07,0x31,0xC1,0x48,0x08,0x0F,0x0C,0x31,0x36,0x0F};
 316              		.loc 1 24 0
 317 0064 1868     		ldr	r0, [r3]	@ unaligned
 318 0066 9988     		ldrh	r1, [r3, #4]	@ unaligned
 319 0068 9B79     		ldrb	r3, [r3, #6]	@ zero_extendqisi2
 320 006a 2060     		str	r0, [r4]	@ unaligned
 321 006c A371     		strb	r3, [r4, #6]
  25:.\Generated_Source\PSoC5/LCD.c ****     LCD_WriteArray(0xe0,gamma_p,sizeof gamma_p);
 322              		.loc 1 25 0
 323 006e 144B     		ldr	r3, .L34+12
  24:.\Generated_Source\PSoC5/LCD.c ****     uint8 gamma_n[]={0x00,0x0E,0x14,0x03,0x11,0x07,0x31,0xC1,0x48,0x08,0x0F,0x0C,0x31,0x36,0x0F};
 324              		.loc 1 24 0
 325 0070 A180     		strh	r1, [r4, #4]	@ unaligned
  25:.\Generated_Source\PSoC5/LCD.c ****     LCD_WriteArray(0xe0,gamma_p,sizeof gamma_p);
 326              		.loc 1 25 0
 327 0072 03F1080C 		add	ip, r3, #8
 328              	.L31:
 329 0076 1446     		mov	r4, r2
 330 0078 1868     		ldr	r0, [r3]	@ unaligned
 331 007a 5968     		ldr	r1, [r3, #4]	@ unaligned
 332 007c 0833     		adds	r3, r3, #8
 333 007e 03C4     		stmia	r4!, {r0, r1}
 334 0080 6345     		cmp	r3, ip
 335 0082 2246     		mov	r2, r4
 336 0084 F7D1     		bne	.L31
 337 0086 1868     		ldr	r0, [r3]	@ unaligned
 338 0088 9988     		ldrh	r1, [r3, #4]	@ unaligned
 339 008a 9B79     		ldrb	r3, [r3, #6]	@ zero_extendqisi2
 340 008c 2060     		str	r0, [r4]	@ unaligned
 341 008e A371     		strb	r3, [r4, #6]
 342 0090 A180     		strh	r1, [r4, #4]	@ unaligned
  26:.\Generated_Source\PSoC5/LCD.c ****     LCD_WriteArray(0xe1,gamma_n,sizeof gamma_n);
 343              		.loc 1 26 0
 344 0092 E020     		movs	r0, #224
 345 0094 7146     		mov	r1, lr
 346 0096 0F22     		movs	r2, #15
 347 0098 FFF7FEFF 		bl	LCD_WriteArray
 348              	.LVL26:
  27:.\Generated_Source\PSoC5/LCD.c ****     
 349              		.loc 1 27 0
 350 009c 4146     		mov	r1, r8
 351 009e 0F22     		movs	r2, #15
ARM GAS  D:\TEMP\ccVzUQRX.s 			page 9


 352 00a0 E120     		movs	r0, #225
 353 00a2 FFF7FEFF 		bl	LCD_WriteArray
 354              	.LVL27:
  29:.\Generated_Source\PSoC5/LCD.c ****     LCD_CS_Write(cs); //restore initial chip select
 355              		.loc 1 29 0
 356 00a6 3D70     		strb	r5, [r7]
  30:.\Generated_Source\PSoC5/LCD.c **** }
 357              		.loc 1 30 0
 358 00a8 3046     		mov	r0, r6
 359 00aa FFF7FEFF 		bl	CS_Write
 360              	.LVL28:
  31:.\Generated_Source\PSoC5/LCD.c **** 
 361              		.loc 1 31 0
 362 00ae 08B0     		add	sp, sp, #32
 363              		.cfi_def_cfa_offset 24
 364              		@ sp needed
 365 00b0 BDE8F081 		pop	{r4, r5, r6, r7, r8, pc}
 366              	.LVL29:
 367              	.L35:
 368              		.align	2
 369              	.L34:
 370 00b4 7D640040 		.word	1073767549
 371 00b8 98680040 		.word	1073768600
 372 00bc 00000000 		.word	.LANCHOR0
 373 00c0 0F000000 		.word	.LANCHOR0+15
 374              		.cfi_endproc
 375              	.LFE63:
 376              		.size	LCD_Start, .-LCD_Start
 377              		.section	.text.LCD_SetWindow,"ax",%progbits
 378              		.align	1
 379              		.global	LCD_SetWindow
 380              		.thumb
 381              		.thumb_func
 382              		.type	LCD_SetWindow, %function
 383              	LCD_SetWindow:
 384              	.LFB66:
  70:.\Generated_Source\PSoC5/LCD.c **** 
  71:.\Generated_Source\PSoC5/LCD.c **** void LCD_SetWindow(uint16 col_start,uint16 row_start,uint16 col_end,uint16 row_end)
  72:.\Generated_Source\PSoC5/LCD.c **** {
 385              		.loc 1 72 0
 386              		.cfi_startproc
 387              		@ args = 0, pretend = 0, frame = 8
 388              		@ frame_needed = 0, uses_anonymous_args = 0
 389              	.LVL30:
 390 0000 13B5     		push	{r0, r1, r4, lr}
 391              		.cfi_def_cfa_offset 16
 392              		.cfi_offset 4, -8
 393              		.cfi_offset 14, -4
  73:.\Generated_Source\PSoC5/LCD.c ****     uint8 cols[]={col_start>>8,col_start,col_end>>8,col_end}; //LCD uses big endian words
 394              		.loc 1 73 0
 395 0002 040A     		lsrs	r4, r0, #8
 396 0004 8DF80100 		strb	r0, [sp, #1]
 397 0008 8DF80320 		strb	r2, [sp, #3]
 398 000c 100A     		lsrs	r0, r2, #8
 399              	.LVL31:
  74:.\Generated_Source\PSoC5/LCD.c ****     uint8 rows[]={row_start>>8,row_start,row_end>>8,row_end};
 400              		.loc 1 74 0
ARM GAS  D:\TEMP\ccVzUQRX.s 			page 10


 401 000e 0A0A     		lsrs	r2, r1, #8
 402              	.LVL32:
 403 0010 8DF80420 		strb	r2, [sp, #4]
 404 0014 1A0A     		lsrs	r2, r3, #8
  73:.\Generated_Source\PSoC5/LCD.c ****     uint8 cols[]={col_start>>8,col_start,col_end>>8,col_end}; //LCD uses big endian words
 405              		.loc 1 73 0
 406 0016 8DF80200 		strb	r0, [sp, #2]
 407              		.loc 1 74 0
 408 001a 8DF80510 		strb	r1, [sp, #5]
 409 001e 8DF80620 		strb	r2, [sp, #6]
  75:.\Generated_Source\PSoC5/LCD.c ****     LCD_WriteArray(0x2a,cols,4);
 410              		.loc 1 75 0
 411 0022 6946     		mov	r1, sp
 412              	.LVL33:
 413 0024 2A20     		movs	r0, #42
 414 0026 0422     		movs	r2, #4
  74:.\Generated_Source\PSoC5/LCD.c ****     uint8 rows[]={row_start>>8,row_start,row_end>>8,row_end};
 415              		.loc 1 74 0
 416 0028 8DF80730 		strb	r3, [sp, #7]
  73:.\Generated_Source\PSoC5/LCD.c ****     uint8 cols[]={col_start>>8,col_start,col_end>>8,col_end}; //LCD uses big endian words
 417              		.loc 1 73 0
 418 002c 8DF80040 		strb	r4, [sp]
 419              		.loc 1 75 0
 420 0030 FFF7FEFF 		bl	LCD_WriteArray
 421              	.LVL34:
  76:.\Generated_Source\PSoC5/LCD.c ****     LCD_WriteArray(0x2b,rows,4);
 422              		.loc 1 76 0
 423 0034 2B20     		movs	r0, #43
 424 0036 01A9     		add	r1, sp, #4
 425 0038 0422     		movs	r2, #4
 426 003a FFF7FEFF 		bl	LCD_WriteArray
 427              	.LVL35:
  77:.\Generated_Source\PSoC5/LCD.c **** }
 428              		.loc 1 77 0
 429 003e 02B0     		add	sp, sp, #8
 430              		.cfi_def_cfa_offset 8
 431              		@ sp needed
 432 0040 10BD     		pop	{r4, pc}
 433              		.cfi_endproc
 434              	.LFE66:
 435              		.size	LCD_SetWindow, .-LCD_SetWindow
 436              		.section	.text.LCD_SetWindowRead,"ax",%progbits
 437              		.align	1
 438              		.global	LCD_SetWindowRead
 439              		.thumb
 440              		.thumb_func
 441              		.type	LCD_SetWindowRead, %function
 442              	LCD_SetWindowRead:
 443              	.LFB67:
  78:.\Generated_Source\PSoC5/LCD.c **** 
  79:.\Generated_Source\PSoC5/LCD.c **** void LCD_SetWindowRead(uint16 col_start,uint16 row_start,uint16 col_end,uint16 row_end)
  80:.\Generated_Source\PSoC5/LCD.c **** {
 444              		.loc 1 80 0
 445              		.cfi_startproc
 446              		@ args = 0, pretend = 0, frame = 0
 447              		@ frame_needed = 0, uses_anonymous_args = 0
 448              	.LVL36:
ARM GAS  D:\TEMP\ccVzUQRX.s 			page 11


 449 0000 2DE9F041 		push	{r4, r5, r6, r7, r8, lr}
 450              		.cfi_def_cfa_offset 24
 451              		.cfi_offset 4, -24
 452              		.cfi_offset 5, -20
 453              		.cfi_offset 6, -16
 454              		.cfi_offset 7, -12
 455              		.cfi_offset 8, -8
 456              		.cfi_offset 14, -4
 457              		.loc 1 80 0
 458 0004 1D46     		mov	r5, r3
 459 0006 8046     		mov	r8, r0
 460 0008 0F46     		mov	r7, r1
 461 000a 1646     		mov	r6, r2
  81:.\Generated_Source\PSoC5/LCD.c ****     LCD_CS_Write(3); //select LCD
 462              		.loc 1 81 0
 463 000c 0320     		movs	r0, #3
 464              	.LVL37:
  82:.\Generated_Source\PSoC5/LCD.c ****     LCD_OE=1; //enable data bus output
 465              		.loc 1 82 0
 466 000e 114C     		ldr	r4, .L41
  81:.\Generated_Source\PSoC5/LCD.c ****     LCD_CS_Write(3); //select LCD
 467              		.loc 1 81 0
 468 0010 FFF7FEFF 		bl	CS_Write
 469              	.LVL38:
 470              		.loc 1 82 0
 471 0014 0123     		movs	r3, #1
 472 0016 2370     		strb	r3, [r4]
  83:.\Generated_Source\PSoC5/LCD.c ****     
  84:.\Generated_Source\PSoC5/LCD.c ****     LCD_SetWindow(col_start,row_start,col_end,row_end);
 473              		.loc 1 84 0
 474 0018 3246     		mov	r2, r6
 475 001a 2B46     		mov	r3, r5
 476 001c 4046     		mov	r0, r8
 477 001e 3946     		mov	r1, r7
 478 0020 FFF7FEFF 		bl	LCD_SetWindow
 479              	.LVL39:
  85:.\Generated_Source\PSoC5/LCD.c ****     LCD_Command(0x2e);
 480              		.loc 1 85 0
 481 0024 0C4B     		ldr	r3, .L41+4
 482 0026 4FF49772 		mov	r2, #302
 483 002a 1A80     		strh	r2, [r3]	@ movhi
 484              	.L38:
  86:.\Generated_Source\PSoC5/LCD.c ****     while(!LCD_Empty); //wait for buffer to empty before turning off output
 485              		.loc 1 86 0 discriminator 1
 486 002c 0B4B     		ldr	r3, .L41+8
 487 002e 1B78     		ldrb	r3, [r3]	@ zero_extendqisi2
 488 0030 9B07     		lsls	r3, r3, #30
 489 0032 FBD5     		bpl	.L38
  87:.\Generated_Source\PSoC5/LCD.c ****     LCD_OE=0; //disable drivers on output bus
 490              		.loc 1 87 0
 491 0034 0020     		movs	r0, #0
 492 0036 2070     		strb	r0, [r4]
  88:.\Generated_Source\PSoC5/LCD.c ****     
  89:.\Generated_Source\PSoC5/LCD.c ****     //dummy read
  90:.\Generated_Source\PSoC5/LCD.c ****     LCD_LCD_RD_Write(0);
 493              		.loc 1 90 0
 494 0038 FFF7FEFF 		bl	LCD_RD_Write
ARM GAS  D:\TEMP\ccVzUQRX.s 			page 12


 495              	.LVL40:
  91:.\Generated_Source\PSoC5/LCD.c ****     CyDelayCycles(BCLK__BUS_CLK__MHZ/3); //delay for about 333ns (actually 355ns is required, but o
 496              		.loc 1 91 0
 497 003c 1820     		movs	r0, #24
 498 003e FFF7FEFF 		bl	CyDelayCycles
 499              	.LVL41:
  92:.\Generated_Source\PSoC5/LCD.c ****     LCD_LCD_RD_Write(1);
 500              		.loc 1 92 0
 501 0042 0120     		movs	r0, #1
 502 0044 FFF7FEFF 		bl	LCD_RD_Write
 503              	.LVL42:
  93:.\Generated_Source\PSoC5/LCD.c ****     CyDelayCycles(BCLK__BUS_CLK__MHZ/11); //delay for about 90ns
  94:.\Generated_Source\PSoC5/LCD.c **** }
 504              		.loc 1 94 0
 505 0048 BDE8F041 		pop	{r4, r5, r6, r7, r8, lr}
 506              		.cfi_restore 14
 507              		.cfi_restore 8
 508              		.cfi_restore 7
 509              		.cfi_restore 6
 510              		.cfi_restore 5
 511              		.cfi_restore 4
 512              		.cfi_def_cfa_offset 0
  93:.\Generated_Source\PSoC5/LCD.c ****     CyDelayCycles(BCLK__BUS_CLK__MHZ/11); //delay for about 90ns
 513              		.loc 1 93 0
 514 004c 0620     		movs	r0, #6
 515 004e FFF7FEBF 		b	CyDelayCycles
 516              	.LVL43:
 517              	.L42:
 518 0052 00BF     		.align	2
 519              	.L41:
 520 0054 7D640040 		.word	1073767549
 521 0058 98680040 		.word	1073768600
 522 005c 6C640040 		.word	1073767532
 523              		.cfi_endproc
 524              	.LFE67:
 525              		.size	LCD_SetWindowRead, .-LCD_SetWindowRead
 526              		.section	.text.LCD_SetWindowWrite,"ax",%progbits
 527              		.align	1
 528              		.global	LCD_SetWindowWrite
 529              		.thumb
 530              		.thumb_func
 531              		.type	LCD_SetWindowWrite, %function
 532              	LCD_SetWindowWrite:
 533              	.LFB68:
  95:.\Generated_Source\PSoC5/LCD.c **** 
  96:.\Generated_Source\PSoC5/LCD.c **** void LCD_SetWindowWrite(uint16 col_start,uint16 row_start,uint16 col_end,uint16 row_end)
  97:.\Generated_Source\PSoC5/LCD.c **** {
 534              		.loc 1 97 0
 535              		.cfi_startproc
 536              		@ args = 0, pretend = 0, frame = 0
 537              		@ frame_needed = 0, uses_anonymous_args = 0
 538              	.LVL44:
 539 0000 F8B5     		push	{r3, r4, r5, r6, r7, lr}
 540              		.cfi_def_cfa_offset 24
 541              		.cfi_offset 3, -24
 542              		.cfi_offset 4, -20
 543              		.cfi_offset 5, -16
ARM GAS  D:\TEMP\ccVzUQRX.s 			page 13


 544              		.cfi_offset 6, -12
 545              		.cfi_offset 7, -8
 546              		.cfi_offset 14, -4
 547              		.loc 1 97 0
 548 0002 1546     		mov	r5, r2
 549 0004 1C46     		mov	r4, r3
 550 0006 0746     		mov	r7, r0
 551 0008 0E46     		mov	r6, r1
  98:.\Generated_Source\PSoC5/LCD.c ****     LCD_CS_Write(3); //select LCD
 552              		.loc 1 98 0
 553 000a 0320     		movs	r0, #3
 554              	.LVL45:
 555 000c FFF7FEFF 		bl	CS_Write
 556              	.LVL46:
  99:.\Generated_Source\PSoC5/LCD.c ****     LCD_OE=1; //enable data bus output
 557              		.loc 1 99 0
 558 0010 064B     		ldr	r3, .L44
 559 0012 0122     		movs	r2, #1
 560 0014 1A70     		strb	r2, [r3]
 100:.\Generated_Source\PSoC5/LCD.c **** 
 101:.\Generated_Source\PSoC5/LCD.c ****     LCD_SetWindow(col_start,row_start,col_end,row_end);
 561              		.loc 1 101 0
 562 0016 3846     		mov	r0, r7
 563 0018 2A46     		mov	r2, r5
 564 001a 2346     		mov	r3, r4
 565 001c 3146     		mov	r1, r6
 566 001e FFF7FEFF 		bl	LCD_SetWindow
 567              	.LVL47:
 102:.\Generated_Source\PSoC5/LCD.c ****     LCD_Command(0x2c);
 568              		.loc 1 102 0
 569 0022 034B     		ldr	r3, .L44+4
 570 0024 4FF49672 		mov	r2, #300
 571 0028 1A80     		strh	r2, [r3]	@ movhi
 572 002a F8BD     		pop	{r3, r4, r5, r6, r7, pc}
 573              	.L45:
 574              		.align	2
 575              	.L44:
 576 002c 7D640040 		.word	1073767549
 577 0030 98680040 		.word	1073768600
 578              		.cfi_endproc
 579              	.LFE68:
 580              		.size	LCD_SetWindowWrite, .-LCD_SetWindowWrite
 581              		.section	.text.LCD_ReadPixel,"ax",%progbits
 582              		.align	1
 583              		.global	LCD_ReadPixel
 584              		.thumb
 585              		.thumb_func
 586              		.type	LCD_ReadPixel, %function
 587              	LCD_ReadPixel:
 588              	.LFB69:
 103:.\Generated_Source\PSoC5/LCD.c **** }
 104:.\Generated_Source\PSoC5/LCD.c **** 
 105:.\Generated_Source\PSoC5/LCD.c **** pixel LCD_ReadPixel()
 106:.\Generated_Source\PSoC5/LCD.c **** {
 589              		.loc 1 106 0
 590              		.cfi_startproc
 591              		@ args = 0, pretend = 0, frame = 8
ARM GAS  D:\TEMP\ccVzUQRX.s 			page 14


 592              		@ frame_needed = 0, uses_anonymous_args = 0
 593 0000 73B5     		push	{r0, r1, r4, r5, r6, lr}
 594              		.cfi_def_cfa_offset 24
 595              		.cfi_offset 4, -16
 596              		.cfi_offset 5, -12
 597              		.cfi_offset 6, -8
 598              		.cfi_offset 14, -4
 107:.\Generated_Source\PSoC5/LCD.c ****     pixel p;
 108:.\Generated_Source\PSoC5/LCD.c ****     LCD_LCD_RD_Write(0);
 599              		.loc 1 108 0
 600 0002 0020     		movs	r0, #0
 601 0004 FFF7FEFF 		bl	LCD_RD_Write
 602              	.LVL48:
 109:.\Generated_Source\PSoC5/LCD.c ****     CyDelayCycles(BCLK__BUS_CLK__MHZ/3); //delay for about 333ns (actually 355ns is required, but o
 110:.\Generated_Source\PSoC5/LCD.c ****     p.R=LCD_D_PS;
 603              		.loc 1 110 0
 604 0008 184C     		ldr	r4, .L47
 109:.\Generated_Source\PSoC5/LCD.c ****     CyDelayCycles(BCLK__BUS_CLK__MHZ/3); //delay for about 333ns (actually 355ns is required, but o
 605              		.loc 1 109 0
 606 000a 1820     		movs	r0, #24
 607 000c FFF7FEFF 		bl	CyDelayCycles
 608              	.LVL49:
 111:.\Generated_Source\PSoC5/LCD.c ****     LCD_LCD_RD_Write(1);
 609              		.loc 1 111 0
 610 0010 0120     		movs	r0, #1
 110:.\Generated_Source\PSoC5/LCD.c ****     LCD_LCD_RD_Write(1);
 611              		.loc 1 110 0
 612 0012 2678     		ldrb	r6, [r4]	@ zero_extendqisi2
 613              		.loc 1 111 0
 614 0014 FFF7FEFF 		bl	LCD_RD_Write
 615              	.LVL50:
 112:.\Generated_Source\PSoC5/LCD.c ****     CyDelayCycles(BCLK__BUS_CLK__MHZ/11); //delay for about 90ns
 616              		.loc 1 112 0
 617 0018 0620     		movs	r0, #6
 618 001a FFF7FEFF 		bl	CyDelayCycles
 619              	.LVL51:
 113:.\Generated_Source\PSoC5/LCD.c ****     LCD_LCD_RD_Write(0);
 620              		.loc 1 113 0
 621 001e 0020     		movs	r0, #0
 622 0020 FFF7FEFF 		bl	LCD_RD_Write
 623              	.LVL52:
 114:.\Generated_Source\PSoC5/LCD.c ****     CyDelayCycles(BCLK__BUS_CLK__MHZ/3); //delay for about 333ns (actually 355ns is required, but o
 624              		.loc 1 114 0
 625 0024 1820     		movs	r0, #24
 626 0026 FFF7FEFF 		bl	CyDelayCycles
 627              	.LVL53:
 115:.\Generated_Source\PSoC5/LCD.c ****     p.G=LCD_D_PS;
 116:.\Generated_Source\PSoC5/LCD.c ****     LCD_LCD_RD_Write(1);
 628              		.loc 1 116 0
 629 002a 0120     		movs	r0, #1
 115:.\Generated_Source\PSoC5/LCD.c ****     p.G=LCD_D_PS;
 630              		.loc 1 115 0
 631 002c 2578     		ldrb	r5, [r4]	@ zero_extendqisi2
 632              		.loc 1 116 0
 633 002e FFF7FEFF 		bl	LCD_RD_Write
 634              	.LVL54:
 117:.\Generated_Source\PSoC5/LCD.c ****     CyDelayCycles(BCLK__BUS_CLK__MHZ/11); //delay for about 90ns
ARM GAS  D:\TEMP\ccVzUQRX.s 			page 15


 635              		.loc 1 117 0
 636 0032 0620     		movs	r0, #6
 637 0034 FFF7FEFF 		bl	CyDelayCycles
 638              	.LVL55:
 118:.\Generated_Source\PSoC5/LCD.c ****     LCD_LCD_RD_Write(0);
 639              		.loc 1 118 0
 640 0038 0020     		movs	r0, #0
 641 003a FFF7FEFF 		bl	LCD_RD_Write
 642              	.LVL56:
 119:.\Generated_Source\PSoC5/LCD.c ****     CyDelayCycles(BCLK__BUS_CLK__MHZ/3); //delay for about 333ns (actually 355ns is required, but o
 643              		.loc 1 119 0
 644 003e 1820     		movs	r0, #24
 645 0040 FFF7FEFF 		bl	CyDelayCycles
 646              	.LVL57:
 120:.\Generated_Source\PSoC5/LCD.c ****     p.B=LCD_D_PS;
 121:.\Generated_Source\PSoC5/LCD.c ****     LCD_LCD_RD_Write(1);
 647              		.loc 1 121 0
 648 0044 0120     		movs	r0, #1
 120:.\Generated_Source\PSoC5/LCD.c ****     p.B=LCD_D_PS;
 649              		.loc 1 120 0
 650 0046 2478     		ldrb	r4, [r4]	@ zero_extendqisi2
 651              		.loc 1 121 0
 652 0048 FFF7FEFF 		bl	LCD_RD_Write
 653              	.LVL58:
 122:.\Generated_Source\PSoC5/LCD.c ****     CyDelayCycles(BCLK__BUS_CLK__MHZ/11); //delay for about 90ns
 654              		.loc 1 122 0
 655 004c 0620     		movs	r0, #6
 656 004e FFF7FEFF 		bl	CyDelayCycles
 657              	.LVL59:
 110:.\Generated_Source\PSoC5/LCD.c ****     LCD_LCD_RD_Write(1);
 658              		.loc 1 110 0
 659 0052 F6B2     		uxtb	r6, r6
 660              	.LVL60:
 123:.\Generated_Source\PSoC5/LCD.c ****     return p;
 661              		.loc 1 123 0
 662 0054 0020     		movs	r0, #0
 115:.\Generated_Source\PSoC5/LCD.c ****     LCD_LCD_RD_Write(1);
 663              		.loc 1 115 0
 664 0056 EDB2     		uxtb	r5, r5
 665              	.LVL61:
 666              		.loc 1 123 0
 667 0058 66F30700 		bfi	r0, r6, #0, #8
 120:.\Generated_Source\PSoC5/LCD.c ****     LCD_LCD_RD_Write(1);
 668              		.loc 1 120 0
 669 005c E4B2     		uxtb	r4, r4
 670              	.LVL62:
 671              		.loc 1 123 0
 672 005e 65F30F20 		bfi	r0, r5, #8, #8
 673 0062 64F31740 		bfi	r0, r4, #16, #8
 124:.\Generated_Source\PSoC5/LCD.c **** }
 674              		.loc 1 124 0
 675 0066 02B0     		add	sp, sp, #8
 676              		.cfi_def_cfa_offset 16
 677              		@ sp needed
 678 0068 70BD     		pop	{r4, r5, r6, pc}
 679              	.LVL63:
 680              	.L48:
ARM GAS  D:\TEMP\ccVzUQRX.s 			page 16


 681 006a 00BF     		.align	2
 682              	.L47:
 683 006c 21510040 		.word	1073762593
 684              		.cfi_endproc
 685              	.LFE69:
 686              		.size	LCD_ReadPixel, .-LCD_ReadPixel
 687              		.section	.text.LCD_WritePixel,"ax",%progbits
 688              		.align	1
 689              		.global	LCD_WritePixel
 690              		.thumb
 691              		.thumb_func
 692              		.type	LCD_WritePixel, %function
 693              	LCD_WritePixel:
 694              	.LFB70:
 125:.\Generated_Source\PSoC5/LCD.c **** 
 126:.\Generated_Source\PSoC5/LCD.c **** void LCD_WritePixel(pixel p)
 127:.\Generated_Source\PSoC5/LCD.c **** {
 695              		.loc 1 127 0
 696              		.cfi_startproc
 697              		@ args = 0, pretend = 0, frame = 8
 698              		@ frame_needed = 0, uses_anonymous_args = 0
 699              		@ link register save eliminated.
 700 0000 82B0     		sub	sp, sp, #8
 701              		.cfi_def_cfa_offset 8
 702 0002 0190     		str	r0, [sp, #4]
 703              	.L50:
 128:.\Generated_Source\PSoC5/LCD.c ****     while(!LCD_Empty);
 704              		.loc 1 128 0 discriminator 1
 705 0004 074B     		ldr	r3, .L53
 706 0006 1B78     		ldrb	r3, [r3]	@ zero_extendqisi2
 707 0008 9B07     		lsls	r3, r3, #30
 708 000a FBD5     		bpl	.L50
 129:.\Generated_Source\PSoC5/LCD.c ****     LCD_Data(p.R);
 709              		.loc 1 129 0
 710 000c 9DF80420 		ldrb	r2, [sp, #4]	@ zero_extendqisi2
 711 0010 054B     		ldr	r3, .L53+4
 712 0012 1A80     		strh	r2, [r3]	@ movhi
 130:.\Generated_Source\PSoC5/LCD.c ****     LCD_Data(p.G);
 713              		.loc 1 130 0
 714 0014 9DF80520 		ldrb	r2, [sp, #5]	@ zero_extendqisi2
 715 0018 1A80     		strh	r2, [r3]	@ movhi
 131:.\Generated_Source\PSoC5/LCD.c ****     LCD_Data(p.B);
 716              		.loc 1 131 0
 717 001a 9DF80620 		ldrb	r2, [sp, #6]	@ zero_extendqisi2
 718 001e 1A80     		strh	r2, [r3]	@ movhi
 132:.\Generated_Source\PSoC5/LCD.c **** }
 719              		.loc 1 132 0
 720 0020 02B0     		add	sp, sp, #8
 721              		.cfi_def_cfa_offset 0
 722              		@ sp needed
 723 0022 7047     		bx	lr
 724              	.L54:
 725              		.align	2
 726              	.L53:
 727 0024 6C640040 		.word	1073767532
 728 0028 98680040 		.word	1073768600
 729              		.cfi_endproc
ARM GAS  D:\TEMP\ccVzUQRX.s 			page 17


 730              	.LFE70:
 731              		.size	LCD_WritePixel, .-LCD_WritePixel
 732              		.section	.text.LCD_StopReadWrite,"ax",%progbits
 733              		.align	1
 734              		.global	LCD_StopReadWrite
 735              		.thumb
 736              		.thumb_func
 737              		.type	LCD_StopReadWrite, %function
 738              	LCD_StopReadWrite:
 739              	.LFB71:
 133:.\Generated_Source\PSoC5/LCD.c **** 
 134:.\Generated_Source\PSoC5/LCD.c **** void LCD_StopReadWrite()
 135:.\Generated_Source\PSoC5/LCD.c **** {
 740              		.loc 1 135 0
 741              		.cfi_startproc
 742              		@ args = 0, pretend = 0, frame = 0
 743              		@ frame_needed = 0, uses_anonymous_args = 0
 744              		@ link register save eliminated.
 136:.\Generated_Source\PSoC5/LCD.c ****     uint8 oe=LCD_OE;
 745              		.loc 1 136 0
 746 0000 074B     		ldr	r3, .L59
 137:.\Generated_Source\PSoC5/LCD.c ****     
 138:.\Generated_Source\PSoC5/LCD.c ****     LCD_OE=1;
 747              		.loc 1 138 0
 748 0002 0121     		movs	r1, #1
 136:.\Generated_Source\PSoC5/LCD.c ****     uint8 oe=LCD_OE;
 749              		.loc 1 136 0
 750 0004 1A78     		ldrb	r2, [r3]	@ zero_extendqisi2
 751              		.loc 1 138 0
 752 0006 1970     		strb	r1, [r3]
 139:.\Generated_Source\PSoC5/LCD.c ****     LCD_Command(0);
 753              		.loc 1 139 0
 754 0008 0649     		ldr	r1, .L59+4
 755 000a 4FF48070 		mov	r0, #256
 136:.\Generated_Source\PSoC5/LCD.c ****     uint8 oe=LCD_OE;
 756              		.loc 1 136 0
 757 000e D2B2     		uxtb	r2, r2
 758              	.LVL64:
 759              		.loc 1 139 0
 760 0010 0880     		strh	r0, [r1]	@ movhi
 761              	.L56:
 140:.\Generated_Source\PSoC5/LCD.c ****     while(!LCD_Ready);
 762              		.loc 1 140 0 discriminator 1
 763 0012 0549     		ldr	r1, .L59+8
 764 0014 0978     		ldrb	r1, [r1]	@ zero_extendqisi2
 765 0016 C907     		lsls	r1, r1, #31
 766 0018 FBD5     		bpl	.L56
 141:.\Generated_Source\PSoC5/LCD.c ****     
 142:.\Generated_Source\PSoC5/LCD.c ****     LCD_OE=oe;
 767              		.loc 1 142 0
 768 001a 1A70     		strb	r2, [r3]
 769 001c 7047     		bx	lr
 770              	.L60:
 771 001e 00BF     		.align	2
 772              	.L59:
 773 0020 7D640040 		.word	1073767549
 774 0024 98680040 		.word	1073768600
ARM GAS  D:\TEMP\ccVzUQRX.s 			page 18


 775 0028 6C640040 		.word	1073767532
 776              		.cfi_endproc
 777              	.LFE71:
 778              		.size	LCD_StopReadWrite, .-LCD_StopReadWrite
 779              		.comm	Camera_linebuffer,640,4
 780              		.section	.rodata
 781              		.set	.LANCHOR0,. + 0
 782              	.LC0:
 783 0000 0F       		.byte	15
 784 0001 31       		.byte	49
 785 0002 2B       		.byte	43
 786 0003 0C       		.byte	12
 787 0004 0E       		.byte	14
 788 0005 08       		.byte	8
 789 0006 4E       		.byte	78
 790 0007 F1       		.byte	-15
 791 0008 37       		.byte	55
 792 0009 07       		.byte	7
 793 000a 10       		.byte	16
 794 000b 03       		.byte	3
 795 000c 0E       		.byte	14
 796 000d 09       		.byte	9
 797 000e 00       		.byte	0
 798              	.LC1:
 799 000f 00       		.byte	0
 800 0010 0E       		.byte	14
 801 0011 14       		.byte	20
 802 0012 03       		.byte	3
 803 0013 11       		.byte	17
 804 0014 07       		.byte	7
 805 0015 31       		.byte	49
 806 0016 C1       		.byte	-63
 807 0017 48       		.byte	72
 808 0018 08       		.byte	8
 809 0019 0F       		.byte	15
 810 001a 0C       		.byte	12
 811 001b 31       		.byte	49
 812 001c 36       		.byte	54
 813 001d 0F       		.byte	15
 814              		.text
 815              	.Letext0:
 816              		.file 2 "d:\\program files (x86)\\cypress\\psoc creator\\3.3\\psoc creator\\import\\gnu\\arm\\4.9.
 817              		.file 3 "d:\\program files (x86)\\cypress\\psoc creator\\3.3\\psoc creator\\import\\gnu\\arm\\4.9.
 818              		.file 4 "Generated_Source\\PSoC5/cytypes.h"
 819              		.file 5 "Generated_Source\\PSoC5/LCD.h"
 820              		.file 6 "Generated_Source\\PSoC5/core_cm3.h"
 821              		.file 7 "Generated_Source\\PSoC5/Camera.h"
 822              		.file 8 "Generated_Source\\PSoC5/CS.h"
 823              		.file 9 "Generated_Source\\PSoC5/CyLib.h"
 824              		.file 10 "Generated_Source\\PSoC5/LCD_RD.h"