ARM GAS  D:\TEMP\cccaYjXI.s 			page 1


   1              		.syntax unified
   2              		.cpu cortex-m3
   3              		.fpu softvfp
   4              		.eabi_attribute 20, 1
   5              		.eabi_attribute 21, 1
   6              		.eabi_attribute 23, 3
   7              		.eabi_attribute 24, 1
   8              		.eabi_attribute 25, 1
   9              		.eabi_attribute 26, 1
  10              		.eabi_attribute 30, 4
  11              		.eabi_attribute 34, 1
  12              		.eabi_attribute 18, 4
  13              		.thumb
  14              		.file	"main.c"
  15              		.text
  16              	.Ltext0:
  17              		.cfi_sections	.debug_frame
  18              		.section	.text.Initialise,"ax",%progbits
  19              		.align	1
  20              		.global	Initialise
  21              		.thumb
  22              		.thumb_func
  23              		.type	Initialise, %function
  24              	Initialise:
  25              	.LFB64:
  26              		.file 1 ".\\main.c"
   1:.\main.c      **** #include <project.h>
   2:.\main.c      **** #include <stdbool.h>
   3:.\main.c      **** #include <stdlib.h>
   4:.\main.c      **** #include <math.h>
   5:.\main.c      **** //#include <tgmath.h>
   6:.\main.c      **** #include "camera_display.h"
   7:.\main.c      **** #include "camera_functions.h"
   8:.\main.c      **** #include "movement_functions.h"
   9:.\main.c      **** #include "pwm_functions.h"
  10:.\main.c      **** 
  11:.\main.c      **** 
  12:.\main.c      **** void LastResort();   
  13:.\main.c      **** void Initialise();
  14:.\main.c      **** void Headlights();
  15:.\main.c      **** void HeadlightsOff();
  16:.\main.c      **** void Beep(int x);
  17:.\main.c      **** void BiDirPortOutPut();
  18:.\main.c      **** int UltraDistance();
  19:.\main.c      **** 
  20:.\main.c      **** 
  21:.\main.c      **** /*Variables from Camera Functions:
  22:.\main.c      **** ---------------------------------*/
  23:.\main.c      **** /*
  24:.\main.c      **** extern uint16 closestX;
  25:.\main.c      **** extern uint16 closestY;
  26:.\main.c      **** extern const uint8 numRows;
  27:.\main.c      **** extern const uint16 numCols; 
  28:.\main.c      **** extern const uint8 RED;
  29:.\main.c      **** extern const uint8 GREEN;
  30:.\main.c      **** extern const uint8 BLUE;
  31:.\main.c      **** */
ARM GAS  D:\TEMP\cccaYjXI.s 			page 2


  32:.\main.c      **** /*-------------------------------*/
  33:.\main.c      **** 
  34:.\main.c      **** const double PI = 3.1415926535;
  35:.\main.c      **** 
  36:.\main.c      **** 
  37:.\main.c      **** int main()
  38:.\main.c      **** {
  39:.\main.c      ****     CS_Write(2); //select output latch
  40:.\main.c      ****     OE_Control=3; //enable output driver and switch to user output
  41:.\main.c      ****     Data_Out_Control=0; //write to user output data bus
  42:.\main.c      ****     CS_Write(8); //deselect output latch to clock in data
  43:.\main.c      ****     OE_Control=0; //disable output driver
  44:.\main.c      ****     
  45:.\main.c      ****     SW_Start();
  46:.\main.c      ****     
  47:.\main.c      ****     LCD_Start();
  48:.\main.c      ****     LCD_DMA_Start();
  49:.\main.c      **** 
  50:.\main.c      ****     //Camera_Start();
  51:.\main.c      ****     Camera_WriteReg(0x41,0x02); //double colour matrix (more saturation)
  52:.\main.c      ****     Camera_SetBlankTime(1000); //increase blanking time if image is corrupted; range is 0-2047
  53:.\main.c      ****     
  54:.\main.c      ****     CyGlobalIntEnable; //interrupts must be enabled for camera to work
  55:.\main.c      ****     
  56:.\main.c      ****     uint8 n=0;
  57:.\main.c      ****     display_mode=THRESHOLDED; //start displaying image
  58:.\main.c      ****     //uint8 buttons_old=0xff; //assume buttons have not been pressed
  59:.\main.c      ****     
  60:.\main.c      ****     //Camera_SetEGWB(80,0,128,128); //set exposure, gain and white balance //ORIGNIAL VALUES...
  61:.\main.c      ****     Camera_SetEGWB(160,0,128,128); //set exposure, gain and white balance
  62:.\main.c      ****     Camera_SetThresholds(-32,64,0,-64,48,-32,-16,32); //set thresholds for the 4 colours
  63:.\main.c      ****     
  64:.\main.c      ****     //Setup PWM Channels
  65:.\main.c      ****     Initialise();
  66:.\main.c      ****     
  67:.\main.c      ****     Beep(2);
  68:.\main.c      ****     CyDelay(1000); //Wait for PWM's to initialize position correctly.
  69:.\main.c      ****     //Rotate Camera Forward:
  70:.\main.c      ****     TiltUp();
  71:.\main.c      ****     CyDelay(100);
  72:.\main.c      ****     PanMid();
  73:.\main.c      ****     CyDelay(100);
  74:.\main.c      ****     TiltDown45(); //Seems to work better for arena.
  75:.\main.c      ****     
  76:.\main.c      ****     //Move backward for view of pucks.
  77:.\main.c      ****     //MovementBackward(8000);
  78:.\main.c      ****     Beep(2);
  79:.\main.c      ****     
  80:.\main.c      ****     //New Frame for Analysis.
  81:.\main.c      ****     //CaptureFrame();
  82:.\main.c      ****     //CamAnalyseFrame();
  83:.\main.c      ****     //CamMarkBlobs();
  84:.\main.c      ****     //CamScanClosest(0);  
  85:.\main.c      ****     
  86:.\main.c      ****     Beep(2);
  87:.\main.c      ****     CyDelay(5000);
  88:.\main.c      ****     
ARM GAS  D:\TEMP\cccaYjXI.s 			page 3


  89:.\main.c      ****     CaptureFrame();
  90:.\main.c      ****     
  91:.\main.c      ****     /* ------------Find a puck and pick it up.---------------- */
  92:.\main.c      ****     /*
  93:.\main.c      ****     bool found = false;
  94:.\main.c      ****     uint8 rotation; //degrees
  95:.\main.c      ****     while(!found) {
  96:.\main.c      ****         CaptureFrame();
  97:.\main.c      ****         bool RedOnScreen = CamScanClosest(RED);
  98:.\main.c      ****         rotation=0;
  99:.\main.c      ****         while (!RedOnScreen && rotation<36){
 100:.\main.c      ****             //Keep rotating to scan while finding nothing.
 101:.\main.c      ****             MovementPivotRight(10);
 102:.\main.c      ****             CaptureFrame();
 103:.\main.c      ****             RedOnScreen = CamScanClosest(RED);
 104:.\main.c      ****             rotation=rotation+1;
 105:.\main.c      ****         }
 106:.\main.c      ****         if (RedOnScreen) {
 107:.\main.c      ****             //Found a puck..
 108:.\main.c      ****             //..Turn to puck!
 109:.\main.c      ****             double angle;
 110:.\main.c      ****             double XYRatio;
 111:.\main.c      ****             if (closestX > numCols/2) {
 112:.\main.c      ****                 XYRatio = ((double)(closestX-numCols/2))/(240-closestY);
 113:.\main.c      ****                 angle = atan(XYRatio)*180/PI;
 114:.\main.c      ****                 MovementPivotRight(angle);
 115:.\main.c      ****             } else {
 116:.\main.c      ****                 XYRatio=((double)(numCols/2-closestX))/(240-closestY);
 117:.\main.c      ****                 angle = atan(XYRatio)*180/PI;
 118:.\main.c      ****                 MovementPivotLeft(angle);
 119:.\main.c      ****             }
 120:.\main.c      ****             
 121:.\main.c      ****             //Close enough to pick up?
 122:.\main.c      ****             if (closestY > 240-40){
 123:.\main.c      ****                 //Pickup.
 124:.\main.c      ****                 found=true;
 125:.\main.c      ****             } else {
 126:.\main.c      ****                 //Drive closer.
 127:.\main.c      ****                 MovementForward(240-closestY);
 128:.\main.c      ****             }
 129:.\main.c      ****         } else {
 130:.\main.c      ****             MovementPivotLeft(10);
 131:.\main.c      ****         }
 132:.\main.c      ****     }
 133:.\main.c      ****     
 134:.\main.c      ****     */
 135:.\main.c      ****     
 136:.\main.c      ****     for(;;n++)
 137:.\main.c      ****     {
 138:.\main.c      ****         
 139:.\main.c      ****     }
 140:.\main.c      **** }
 141:.\main.c      **** 
 142:.\main.c      **** void Initialise(){
  27              		.loc 1 142 0
  28              		.cfi_startproc
  29              		@ args = 0, pretend = 0, frame = 0
ARM GAS  D:\TEMP\cccaYjXI.s 			page 4


  30              		@ frame_needed = 0, uses_anonymous_args = 0
  31 0000 08B5     		push	{r3, lr}
  32              		.cfi_def_cfa_offset 8
  33              		.cfi_offset 3, -8
  34              		.cfi_offset 14, -4
 143:.\main.c      ****     Quad_1_Start();
  35              		.loc 1 143 0
  36 0002 FFF7FEFF 		bl	Quad_1_Start
  37              	.LVL0:
 144:.\main.c      ****     Quad_2_Start();
  38              		.loc 1 144 0
  39 0006 FFF7FEFF 		bl	Quad_2_Start
  40              	.LVL1:
 145:.\main.c      ****     PWM_Pan_Start();
  41              		.loc 1 145 0
  42 000a FFF7FEFF 		bl	PWM_Pan_Start
  43              	.LVL2:
 146:.\main.c      ****     PWM_Tilt_Start();
  44              		.loc 1 146 0
  45 000e FFF7FEFF 		bl	PWM_Tilt_Start
  46              	.LVL3:
 147:.\main.c      ****     PWM_Claw_Start();
  47              		.loc 1 147 0
  48 0012 FFF7FEFF 		bl	PWM_Claw_Start
  49              	.LVL4:
 148:.\main.c      ****     PWM_Lift_Start();
 149:.\main.c      **** }
  50              		.loc 1 149 0
  51 0016 BDE80840 		pop	{r3, lr}
  52              		.cfi_restore 14
  53              		.cfi_restore 3
  54              		.cfi_def_cfa_offset 0
 148:.\main.c      ****     PWM_Lift_Start();
  55              		.loc 1 148 0
  56 001a FFF7FEBF 		b	PWM_Lift_Start
  57              	.LVL5:
  58              		.cfi_endproc
  59              	.LFE64:
  60              		.size	Initialise, .-Initialise
  61              		.section	.text.Headlights,"ax",%progbits
  62              		.align	1
  63              		.global	Headlights
  64              		.thumb
  65              		.thumb_func
  66              		.type	Headlights, %function
  67              	Headlights:
  68              	.LFB65:
 150:.\main.c      **** 
 151:.\main.c      **** void Headlights(){
  69              		.loc 1 151 0
  70              		.cfi_startproc
  71              		@ args = 0, pretend = 0, frame = 0
  72              		@ frame_needed = 0, uses_anonymous_args = 0
  73 0000 10B5     		push	{r4, lr}
  74              		.cfi_def_cfa_offset 8
  75              		.cfi_offset 4, -8
  76              		.cfi_offset 14, -4
ARM GAS  D:\TEMP\cccaYjXI.s 			page 5


 152:.\main.c      ****     CS_Write(2);                    //Bus address set to LatchDevices {Hbridge, LEDG, Buzzer etc.}
  77              		.loc 1 152 0
  78 0002 0220     		movs	r0, #2
 153:.\main.c      ****     OE_Control=3;
  79              		.loc 1 153 0
  80 0004 064C     		ldr	r4, .L3
 152:.\main.c      ****     CS_Write(2);                    //Bus address set to LatchDevices {Hbridge, LEDG, Buzzer etc.}
  81              		.loc 1 152 0
  82 0006 FFF7FEFF 		bl	CS_Write
  83              	.LVL6:
  84              		.loc 1 153 0
  85 000a 0323     		movs	r3, #3
  86 000c 2370     		strb	r3, [r4]
 154:.\main.c      ****     Data_Out_Control=0x9;          //Writes 1001 to activate the LEDs
  87              		.loc 1 154 0
  88 000e 054B     		ldr	r3, .L3+4
  89 0010 0922     		movs	r2, #9
  90 0012 1A70     		strb	r2, [r3]
 155:.\main.c      ****     CS_Write(8);                    //Bus address deactivated.
  91              		.loc 1 155 0
  92 0014 0820     		movs	r0, #8
  93 0016 FFF7FEFF 		bl	CS_Write
  94              	.LVL7:
 156:.\main.c      ****     OE_Control=0;
  95              		.loc 1 156 0
  96 001a 0023     		movs	r3, #0
  97 001c 2370     		strb	r3, [r4]
  98 001e 10BD     		pop	{r4, pc}
  99              	.L4:
 100              		.align	2
 101              	.L3:
 102 0020 7D640040 		.word	1073767549
 103 0024 77640040 		.word	1073767543
 104              		.cfi_endproc
 105              	.LFE65:
 106              		.size	Headlights, .-Headlights
 107              		.section	.text.HeadlightsOff,"ax",%progbits
 108              		.align	1
 109              		.global	HeadlightsOff
 110              		.thumb
 111              		.thumb_func
 112              		.type	HeadlightsOff, %function
 113              	HeadlightsOff:
 114              	.LFB66:
 157:.\main.c      **** }
 158:.\main.c      **** void HeadlightsOff(){
 115              		.loc 1 158 0
 116              		.cfi_startproc
 117              		@ args = 0, pretend = 0, frame = 0
 118              		@ frame_needed = 0, uses_anonymous_args = 0
 119 0000 38B5     		push	{r3, r4, r5, lr}
 120              		.cfi_def_cfa_offset 16
 121              		.cfi_offset 3, -16
 122              		.cfi_offset 4, -12
 123              		.cfi_offset 5, -8
 124              		.cfi_offset 14, -4
 159:.\main.c      ****     CS_Write(2);                    //Bus address set to LatchDevices {Hbridge, LEDG, Buzzer etc.}
ARM GAS  D:\TEMP\cccaYjXI.s 			page 6


 125              		.loc 1 159 0
 126 0002 0220     		movs	r0, #2
 160:.\main.c      ****     OE_Control=3;
 127              		.loc 1 160 0
 128 0004 064C     		ldr	r4, .L6
 159:.\main.c      ****     CS_Write(2);                    //Bus address set to LatchDevices {Hbridge, LEDG, Buzzer etc.}
 129              		.loc 1 159 0
 130 0006 FFF7FEFF 		bl	CS_Write
 131              	.LVL8:
 132              		.loc 1 160 0
 133 000a 0323     		movs	r3, #3
 134 000c 2370     		strb	r3, [r4]
 161:.\main.c      ****     Data_Out_Control=0x0;          //Writes 1001 to activate the LEDs
 135              		.loc 1 161 0
 136 000e 054B     		ldr	r3, .L6+4
 137 0010 0025     		movs	r5, #0
 138 0012 1D70     		strb	r5, [r3]
 162:.\main.c      ****     CS_Write(8);                    //Bus address deactivated.
 139              		.loc 1 162 0
 140 0014 0820     		movs	r0, #8
 141 0016 FFF7FEFF 		bl	CS_Write
 142              	.LVL9:
 163:.\main.c      ****     OE_Control=0;
 143              		.loc 1 163 0
 144 001a 2570     		strb	r5, [r4]
 145 001c 38BD     		pop	{r3, r4, r5, pc}
 146              	.L7:
 147 001e 00BF     		.align	2
 148              	.L6:
 149 0020 7D640040 		.word	1073767549
 150 0024 77640040 		.word	1073767543
 151              		.cfi_endproc
 152              	.LFE66:
 153              		.size	HeadlightsOff, .-HeadlightsOff
 154              		.section	.text.BiDirPortOutPut,"ax",%progbits
 155              		.align	1
 156              		.global	BiDirPortOutPut
 157              		.thumb
 158              		.thumb_func
 159              		.type	BiDirPortOutPut, %function
 160              	BiDirPortOutPut:
 161              	.LFB67:
 164:.\main.c      **** }
 165:.\main.c      **** 
 166:.\main.c      **** void BiDirPortOutPut()
 167:.\main.c      **** {
 162              		.loc 1 167 0
 163              		.cfi_startproc
 164              		@ args = 0, pretend = 0, frame = 0
 165              		@ frame_needed = 0, uses_anonymous_args = 0
 166              		@ link register save eliminated.
 168:.\main.c      ****     OE_Control=3;                           //enable output driver and switch to user output
 167              		.loc 1 168 0
 168 0000 014B     		ldr	r3, .L9
 169 0002 0322     		movs	r2, #3
 170 0004 1A70     		strb	r2, [r3]
 171 0006 7047     		bx	lr
ARM GAS  D:\TEMP\cccaYjXI.s 			page 7


 172              	.L10:
 173              		.align	2
 174              	.L9:
 175 0008 7D640040 		.word	1073767549
 176              		.cfi_endproc
 177              	.LFE67:
 178              		.size	BiDirPortOutPut, .-BiDirPortOutPut
 179              		.section	.text.Beep,"ax",%progbits
 180              		.align	1
 181              		.global	Beep
 182              		.thumb
 183              		.thumb_func
 184              		.type	Beep, %function
 185              	Beep:
 186              	.LFB68:
 169:.\main.c      **** }
 170:.\main.c      **** 
 171:.\main.c      **** void Beep(int x) 
 172:.\main.c      **** {
 187              		.loc 1 172 0
 188              		.cfi_startproc
 189              		@ args = 0, pretend = 0, frame = 0
 190              		@ frame_needed = 0, uses_anonymous_args = 0
 191              	.LVL10:
 192 0000 10B5     		push	{r4, lr}
 193              		.cfi_def_cfa_offset 8
 194              		.cfi_offset 4, -8
 195              		.cfi_offset 14, -4
 196              		.loc 1 172 0
 197 0002 0446     		mov	r4, r0
 198              	.LBB4:
 199              	.LBB5:
 168:.\main.c      ****     OE_Control=3;                           //enable output driver and switch to user output
 200              		.loc 1 168 0
 201 0004 0E4B     		ldr	r3, .L16
 202 0006 0322     		movs	r2, #3
 203 0008 1A70     		strb	r2, [r3]
 204              	.LVL11:
 205              	.L12:
 206              	.LBE5:
 207              	.LBE4:
 173:.\main.c      ****     BiDirPortOutPut();
 174:.\main.c      ****     for(;x>0;x--)
 208              		.loc 1 174 0 discriminator 1
 209 000a 002C     		cmp	r4, #0
 210 000c 0DDD     		ble	.L15
 175:.\main.c      ****     {
 176:.\main.c      ****         Data_Out_Write(0x03);      //Turn beeper on
 211              		.loc 1 176 0 discriminator 2
 212 000e 0320     		movs	r0, #3
 213 0010 FFF7FEFF 		bl	Data_Out_Write
 214              	.LVL12:
 177:.\main.c      ****         CS_Write(0x02);  
 215              		.loc 1 177 0 discriminator 2
 216 0014 0220     		movs	r0, #2
 217 0016 FFF7FEFF 		bl	CS_Write
 218              	.LVL13:
ARM GAS  D:\TEMP\cccaYjXI.s 			page 8


 178:.\main.c      ****         CS_Write(0x08);
 219              		.loc 1 178 0 discriminator 2
 220 001a 0820     		movs	r0, #8
 221 001c FFF7FEFF 		bl	CS_Write
 222              	.LVL14:
 179:.\main.c      ****         CyDelay(10);
 223              		.loc 1 179 0 discriminator 2
 224 0020 0A20     		movs	r0, #10
 225 0022 FFF7FEFF 		bl	CyDelay
 226              	.LVL15:
 174:.\main.c      ****     {
 227              		.loc 1 174 0 discriminator 2
 228 0026 013C     		subs	r4, r4, #1
 229              	.LVL16:
 230 0028 EFE7     		b	.L12
 231              	.L15:
 180:.\main.c      ****     }
 181:.\main.c      ****      Data_Out_Write(0x01);      //Turn beeper off
 232              		.loc 1 181 0
 233 002a 0120     		movs	r0, #1
 234 002c FFF7FEFF 		bl	Data_Out_Write
 235              	.LVL17:
 182:.\main.c      ****      CS_Write(0x02);  
 236              		.loc 1 182 0
 237 0030 0220     		movs	r0, #2
 238 0032 FFF7FEFF 		bl	CS_Write
 239              	.LVL18:
 183:.\main.c      ****      CS_Write(0x08);   
 184:.\main.c      **** }
 240              		.loc 1 184 0
 241 0036 BDE81040 		pop	{r4, lr}
 242              		.cfi_restore 14
 243              		.cfi_restore 4
 244              		.cfi_def_cfa_offset 0
 245              	.LVL19:
 183:.\main.c      ****      CS_Write(0x08);   
 246              		.loc 1 183 0
 247 003a 0820     		movs	r0, #8
 248 003c FFF7FEBF 		b	CS_Write
 249              	.LVL20:
 250              	.L17:
 251              		.align	2
 252              	.L16:
 253 0040 7D640040 		.word	1073767549
 254              		.cfi_endproc
 255              	.LFE68:
 256              		.size	Beep, .-Beep
 257              		.section	.text.startup.main,"ax",%progbits
 258              		.align	1
 259              		.global	main
 260              		.thumb
 261              		.thumb_func
 262              		.type	main, %function
 263              	main:
 264              	.LFB63:
  38:.\main.c      ****     CS_Write(2); //select output latch
 265              		.loc 1 38 0
ARM GAS  D:\TEMP\cccaYjXI.s 			page 9


 266              		.cfi_startproc
 267              		@ args = 0, pretend = 0, frame = 0
 268              		@ frame_needed = 0, uses_anonymous_args = 0
 269 0000 30B5     		push	{r4, r5, lr}
 270              		.cfi_def_cfa_offset 12
 271              		.cfi_offset 4, -12
 272              		.cfi_offset 5, -8
 273              		.cfi_offset 14, -4
  39:.\main.c      ****     OE_Control=3; //enable output driver and switch to user output
 274              		.loc 1 39 0
 275 0002 0220     		movs	r0, #2
  38:.\main.c      ****     CS_Write(2); //select output latch
 276              		.loc 1 38 0
 277 0004 85B0     		sub	sp, sp, #20
 278              		.cfi_def_cfa_offset 32
  40:.\main.c      ****     Data_Out_Control=0; //write to user output data bus
 279              		.loc 1 40 0
 280 0006 2C4C     		ldr	r4, .L20
  39:.\main.c      ****     OE_Control=3; //enable output driver and switch to user output
 281              		.loc 1 39 0
 282 0008 FFF7FEFF 		bl	CS_Write
 283              	.LVL21:
  40:.\main.c      ****     Data_Out_Control=0; //write to user output data bus
 284              		.loc 1 40 0
 285 000c 0323     		movs	r3, #3
 286 000e 2370     		strb	r3, [r4]
  41:.\main.c      ****     CS_Write(8); //deselect output latch to clock in data
 287              		.loc 1 41 0
 288 0010 2A4B     		ldr	r3, .L20+4
 289 0012 0025     		movs	r5, #0
 290 0014 1D70     		strb	r5, [r3]
  42:.\main.c      ****     OE_Control=0; //disable output driver
 291              		.loc 1 42 0
 292 0016 0820     		movs	r0, #8
 293 0018 FFF7FEFF 		bl	CS_Write
 294              	.LVL22:
  43:.\main.c      ****     
 295              		.loc 1 43 0
 296 001c 2570     		strb	r5, [r4]
  45:.\main.c      ****     
 297              		.loc 1 45 0
 298 001e FFF7FEFF 		bl	SW_DAC_Start
 299              	.LVL23:
 300 0022 FFF7FEFF 		bl	SW_Comparator_Start
 301              	.LVL24:
  47:.\main.c      ****     LCD_DMA_Start();
 302              		.loc 1 47 0
 303 0026 FFF7FEFF 		bl	LCD_Start
 304              	.LVL25:
  48:.\main.c      **** 
 305              		.loc 1 48 0
 306 002a FFF7FEFF 		bl	LCD_DMA_Start
 307              	.LVL26:
  51:.\main.c      ****     Camera_SetBlankTime(1000); //increase blanking time if image is corrupted; range is 0-2047
 308              		.loc 1 51 0
 309 002e 0221     		movs	r1, #2
 310 0030 4120     		movs	r0, #65
ARM GAS  D:\TEMP\cccaYjXI.s 			page 10


 311 0032 FFF7FEFF 		bl	Camera_WriteReg
 312              	.LVL27:
  52:.\main.c      ****     
 313              		.loc 1 52 0
 314 0036 4FF47A70 		mov	r0, #1000
 315 003a FFF7FEFF 		bl	Camera_SetBlankTime
 316              	.LVL28:
  54:.\main.c      ****     
 317              		.loc 1 54 0
 318              	@ 54 ".\main.c" 1
 319 003e 62B6     		CPSIE   i
 320              	@ 0 "" 2
 321              	.LVL29:
  57:.\main.c      ****     //uint8 buttons_old=0xff; //assume buttons have not been pressed
 322              		.loc 1 57 0
 323              		.thumb
 324 0040 1F4B     		ldr	r3, .L20+8
 325 0042 0224     		movs	r4, #2
  61:.\main.c      ****     Camera_SetThresholds(-32,64,0,-64,48,-32,-16,32); //set thresholds for the 4 colours
 326              		.loc 1 61 0
 327 0044 8022     		movs	r2, #128
  57:.\main.c      ****     //uint8 buttons_old=0xff; //assume buttons have not been pressed
 328              		.loc 1 57 0
 329 0046 1C70     		strb	r4, [r3]
  61:.\main.c      ****     Camera_SetThresholds(-32,64,0,-64,48,-32,-16,32); //set thresholds for the 4 colours
 330              		.loc 1 61 0
 331 0048 A020     		movs	r0, #160
 332 004a 1346     		mov	r3, r2
 333 004c 2946     		mov	r1, r5
 334 004e FFF7FEFF 		bl	Camera_SetEGWB
 335              	.LVL30:
  62:.\main.c      ****     
 336              		.loc 1 62 0
 337 0052 3023     		movs	r3, #48
 338 0054 0093     		str	r3, [sp]
 339 0056 6FF00F03 		mvn	r3, #15
 340 005a 6FF01F00 		mvn	r0, #31
 341 005e 0293     		str	r3, [sp, #8]
 342 0060 2023     		movs	r3, #32
 343 0062 4021     		movs	r1, #64
 344 0064 2A46     		mov	r2, r5
 345 0066 0190     		str	r0, [sp, #4]
 346 0068 0393     		str	r3, [sp, #12]
 347 006a 6FF03F03 		mvn	r3, #63
 348 006e FFF7FEFF 		bl	Camera_SetThresholds
 349              	.LVL31:
  65:.\main.c      ****     
 350              		.loc 1 65 0
 351 0072 FFF7FEFF 		bl	Initialise
 352              	.LVL32:
  67:.\main.c      ****     CyDelay(1000); //Wait for PWM's to initialize position correctly.
 353              		.loc 1 67 0
 354 0076 2046     		mov	r0, r4
 355 0078 FFF7FEFF 		bl	Beep
 356              	.LVL33:
  68:.\main.c      ****     //Rotate Camera Forward:
 357              		.loc 1 68 0
ARM GAS  D:\TEMP\cccaYjXI.s 			page 11


 358 007c 4FF47A70 		mov	r0, #1000
 359 0080 FFF7FEFF 		bl	CyDelay
 360              	.LVL34:
  70:.\main.c      ****     CyDelay(100);
 361              		.loc 1 70 0
 362 0084 FFF7FEFF 		bl	TiltUp
 363              	.LVL35:
  71:.\main.c      ****     PanMid();
 364              		.loc 1 71 0
 365 0088 6420     		movs	r0, #100
 366 008a FFF7FEFF 		bl	CyDelay
 367              	.LVL36:
  72:.\main.c      ****     CyDelay(100);
 368              		.loc 1 72 0
 369 008e FFF7FEFF 		bl	PanMid
 370              	.LVL37:
  73:.\main.c      ****     TiltDown45(); //Seems to work better for arena.
 371              		.loc 1 73 0
 372 0092 6420     		movs	r0, #100
 373 0094 FFF7FEFF 		bl	CyDelay
 374              	.LVL38:
  74:.\main.c      ****     
 375              		.loc 1 74 0
 376 0098 FFF7FEFF 		bl	TiltDown45
 377              	.LVL39:
  78:.\main.c      ****     
 378              		.loc 1 78 0
 379 009c 2046     		mov	r0, r4
 380 009e FFF7FEFF 		bl	Beep
 381              	.LVL40:
  86:.\main.c      ****     CyDelay(5000);
 382              		.loc 1 86 0
 383 00a2 2046     		mov	r0, r4
 384 00a4 FFF7FEFF 		bl	Beep
 385              	.LVL41:
  87:.\main.c      ****     
 386              		.loc 1 87 0
 387 00a8 41F28830 		movw	r0, #5000
 388 00ac FFF7FEFF 		bl	CyDelay
 389              	.LVL42:
  89:.\main.c      ****     
 390              		.loc 1 89 0
 391 00b0 FFF7FEFF 		bl	CaptureFrame
 392              	.LVL43:
 393              	.L19:
 139:.\main.c      **** }
 394              		.loc 1 139 0 discriminator 1
 395 00b4 FEE7     		b	.L19
 396              	.L21:
 397 00b6 00BF     		.align	2
 398              	.L20:
 399 00b8 7D640040 		.word	1073767549
 400 00bc 77640040 		.word	1073767543
 401 00c0 00000000 		.word	display_mode
 402              		.cfi_endproc
 403              	.LFE63:
 404              		.size	main, .-main
ARM GAS  D:\TEMP\cccaYjXI.s 			page 12


 405              		.global	__aeabi_i2d
 406              		.global	__aeabi_dmul
 407              		.global	__aeabi_d2iz
 408              		.section	.text.UltraDistance,"ax",%progbits
 409              		.align	1
 410              		.global	UltraDistance
 411              		.thumb
 412              		.thumb_func
 413              		.type	UltraDistance, %function
 414              	UltraDistance:
 415              	.LFB69:
 185:.\main.c      **** 
 186:.\main.c      **** int UltraDistance(){
 416              		.loc 1 186 0
 417              		.cfi_startproc
 418              		@ args = 0, pretend = 0, frame = 0
 419              		@ frame_needed = 0, uses_anonymous_args = 0
 420 0000 F8B5     		push	{r3, r4, r5, r6, r7, lr}
 421              		.cfi_def_cfa_offset 24
 422              		.cfi_offset 3, -24
 423              		.cfi_offset 4, -20
 424              		.cfi_offset 5, -16
 425              		.cfi_offset 6, -12
 426              		.cfi_offset 7, -8
 427              		.cfi_offset 14, -4
 187:.\main.c      ****     //will return a mistance in mm.
 188:.\main.c      ****     uint16 countstart,countend, diff;
 189:.\main.c      ****     int time, dist;
 190:.\main.c      ****     
 191:.\main.c      ****     CS_Write(1);                    
 428              		.loc 1 191 0
 429 0002 0120     		movs	r0, #1
 192:.\main.c      ****     OE_Control=3;
 430              		.loc 1 192 0
 431 0004 244C     		ldr	r4, .L28+8
 191:.\main.c      ****     OE_Control=3;
 432              		.loc 1 191 0
 433 0006 FFF7FEFF 		bl	CS_Write
 434              	.LVL44:
 435              		.loc 1 192 0
 436 000a 0323     		movs	r3, #3
 437 000c 2370     		strb	r3, [r4]
 193:.\main.c      ****     //Write to send pusle
 194:.\main.c      ****     USTX_Write(1);
 438              		.loc 1 194 0
 439 000e 0120     		movs	r0, #1
 440 0010 FFF7FEFF 		bl	USTX_Write
 441              	.LVL45:
 195:.\main.c      ****     CyDelayUs(10);
 442              		.loc 1 195 0
 443 0014 0A20     		movs	r0, #10
 444 0016 FFF7FEFF 		bl	CyDelayUs
 445              	.LVL46:
 196:.\main.c      ****     USTX_Write(0);
 446              		.loc 1 196 0
 447 001a 0020     		movs	r0, #0
 448 001c FFF7FEFF 		bl	USTX_Write
ARM GAS  D:\TEMP\cccaYjXI.s 			page 13


 449              	.LVL47:
 450              	.L23:
 197:.\main.c      ****     
 198:.\main.c      ****     while (!(D_Read()&0x1)){//wait while echo pin is 0
 451              		.loc 1 198 0 discriminator 1
 452 0020 FFF7FEFF 		bl	D_Read
 453              	.LVL48:
 454 0024 C307     		lsls	r3, r0, #31
 455 0026 FBD5     		bpl	.L23
 199:.\main.c      ****         }
 200:.\main.c      ****     CS_Write(8);
 456              		.loc 1 200 0
 457 0028 0820     		movs	r0, #8
 458 002a FFF7FEFF 		bl	CS_Write
 459              	.LVL49:
 201:.\main.c      ****     OE_Control=0;
 460              		.loc 1 201 0
 461 002e 0023     		movs	r3, #0
 462 0030 2370     		strb	r3, [r4]
 202:.\main.c      ****     Headlights();
 463              		.loc 1 202 0
 464 0032 FFF7FEFF 		bl	Headlights
 465              	.LVL50:
 203:.\main.c      ****     countstart=Timer_1_ReadCounter();//read a beginning counter value
 466              		.loc 1 203 0
 467 0036 FFF7FEFF 		bl	Timer_1_ReadCounter
 468              	.LVL51:
 469 003a 0546     		mov	r5, r0
 470              	.LVL52:
 204:.\main.c      ****     CS_Write(1);                    
 471              		.loc 1 204 0
 472 003c 0120     		movs	r0, #1
 473 003e FFF7FEFF 		bl	CS_Write
 474              	.LVL53:
 205:.\main.c      ****     OE_Control=3;
 475              		.loc 1 205 0
 476 0042 0323     		movs	r3, #3
 477 0044 2370     		strb	r3, [r4]
 478              	.L24:
 206:.\main.c      ****      while (D_Read()&0x1){//loop until echo pin goes low
 479              		.loc 1 206 0 discriminator 1
 480 0046 FFF7FEFF 		bl	D_Read
 481              	.LVL54:
 482 004a 10F00107 		ands	r7, r0, #1
 483 004e FAD1     		bne	.L24
 207:.\main.c      ****     }
 208:.\main.c      ****     countend=Timer_1_ReadCounter();
 484              		.loc 1 208 0
 485 0050 FFF7FEFF 		bl	Timer_1_ReadCounter
 486              	.LVL55:
 487 0054 0646     		mov	r6, r0
 488              	.LVL56:
 209:.\main.c      ****     CS_Write(8);
 489              		.loc 1 209 0
 490 0056 0820     		movs	r0, #8
 491 0058 FFF7FEFF 		bl	CS_Write
 492              	.LVL57:
ARM GAS  D:\TEMP\cccaYjXI.s 			page 14


 210:.\main.c      ****     OE_Control=0;
 493              		.loc 1 210 0
 494 005c 2770     		strb	r7, [r4]
 211:.\main.c      ****     HeadlightsOff();
 495              		.loc 1 211 0
 496 005e FFF7FEFF 		bl	HeadlightsOff
 497              	.LVL58:
 212:.\main.c      ****     diff=countstart-countend;
 213:.\main.c      ****     /*if(countend<countstart) diff=countstart-countend; //counter goes downwards
 214:.\main.c      ****     else diff=65536+countstart-countend; // incase counter has reset should look at overflow might 
 215:.\main.c      ****     
 216:.\main.c      ****     time=2731*diff/65536; //this is in microseconds to keep from needing float (period *% of period
 498              		.loc 1 216 0
 499 0062 40F6AB20 		movw	r0, #2731
 212:.\main.c      ****     diff=countstart-countend;
 500              		.loc 1 212 0
 501 0066 AD1B     		subs	r5, r5, r6
 502              	.LVL59:
 503              		.loc 1 216 0
 504 0068 ADB2     		uxth	r5, r5
 505 006a 6843     		muls	r0, r5, r0
 217:.\main.c      ****     dist=time*343.2*1000;    //in mills  time*speed sound (m/s or um/us) *1000  
 506              		.loc 1 217 0
 507 006c 0014     		asrs	r0, r0, #16
 508 006e FFF7FEFF 		bl	__aeabi_i2d
 509              	.LVL60:
 510 0072 07A3     		adr	r3, .L28
 511 0074 D3E90023 		ldrd	r2, [r3]
 512 0078 FFF7FEFF 		bl	__aeabi_dmul
 513              	.LVL61:
 514 007c 0022     		movs	r2, #0
 515 007e 074B     		ldr	r3, .L28+12
 516 0080 FFF7FEFF 		bl	__aeabi_dmul
 517              	.LVL62:
 518 0084 FFF7FEFF 		bl	__aeabi_d2iz
 519              	.LVL63:
 218:.\main.c      ****     
 219:.\main.c      ****     return dist;
 220:.\main.c      **** }...
 520              		.loc 1 220 0
 521 0088 F8BD     		pop	{r3, r4, r5, r6, r7, pc}
 522              	.LVL64:
 523              	.L29:
 524 008a 00BFAFF3 		.align	3
 524      0080
 525              	.L28:
 526 0090 33333333 		.word	858993459
 527 0094 33737540 		.word	1081439027
 528 0098 7D640040 		.word	1073767549
 529 009c 00408F40 		.word	1083129856
 530              		.cfi_endproc
 531              	.LFE69:
 532              		.size	UltraDistance, .-UltraDistance
 533              		.global	PI
 534              		.global	blobThresholdSize
 535              		.global	offset
 536              		.global	numCols
ARM GAS  D:\TEMP\cccaYjXI.s 			page 15


 537              		.global	numRows
 538              		.global	BLUE
 539              		.global	GREEN
 540              		.global	RED
 541              		.comm	display_mode,1,1
 542              		.comm	Camera_linebuffer,640,4
 543              		.section	.rodata
 544              		.align	3
 545              		.type	PI, %object
 546              		.size	PI, 8
 547              	PI:
 548 0000 44174154 		.word	1413551940
 549 0004 FB210940 		.word	1074340347
 550              		.type	blobThresholdSize, %object
 551              		.size	blobThresholdSize, 1
 552              	blobThresholdSize:
 553 0008 50       		.byte	80
 554              		.type	offset, %object
 555              		.size	offset, 1
 556              	offset:
 557 0009 1E       		.byte	30
 558              		.type	numCols, %object
 559              		.size	numCols, 2
 560              	numCols:
 561 000a 4001     		.short	320
 562              		.type	numRows, %object
 563              		.size	numRows, 1
 564              	numRows:
 565 000c F0       		.byte	-16
 566              		.type	BLUE, %object
 567              		.size	BLUE, 1
 568              	BLUE:
 569 000d 02       		.byte	2
 570              		.type	GREEN, %object
 571              		.size	GREEN, 1
 572              	GREEN:
 573 000e 01       		.byte	1
 574              		.type	RED, %object
 575              		.size	RED, 1
 576              	RED:
 577 000f 00       		.space	1
 578              		.text
 579              	.Letext0:
 580              		.file 2 "d:\\program files (x86)\\cypress\\psoc creator\\3.3\\psoc creator\\import\\gnu\\arm\\4.9.
 581              		.file 3 "d:\\program files (x86)\\cypress\\psoc creator\\3.3\\psoc creator\\import\\gnu\\arm\\4.9.
 582              		.file 4 "Generated_Source\\PSoC5/cytypes.h"
 583              		.file 5 "Generated_Source\\PSoC5/core_cm3.h"
 584              		.file 6 "Generated_Source\\PSoC5/Camera.h"
 585              		.file 7 ".\\camera_display.h"
 586              		.file 8 ".\\camera_functions.h"
 587              		.file 9 "Generated_Source\\PSoC5/Quad_1.h"
 588              		.file 10 "Generated_Source\\PSoC5/Quad_2.h"
 589              		.file 11 "Generated_Source\\PSoC5/PWM_Pan.h"
 590              		.file 12 "Generated_Source\\PSoC5/PWM_Tilt.h"
 591              		.file 13 "Generated_Source\\PSoC5/PWM_Claw.h"
 592              		.file 14 "Generated_Source\\PSoC5/PWM_Lift.h"
 593              		.file 15 "Generated_Source\\PSoC5/CS.h"
ARM GAS  D:\TEMP\cccaYjXI.s 			page 16


 594              		.file 16 "Generated_Source\\PSoC5/Data_Out.h"
 595              		.file 17 "Generated_Source\\PSoC5/CyLib.h"
 596              		.file 18 "Generated_Source\\PSoC5/SW_DAC.h"
 597              		.file 19 "Generated_Source\\PSoC5/SW_Comparator.h"
 598              		.file 20 "Generated_Source\\PSoC5/LCD.h"
 599              		.file 21 ".\\pwm_functions.h"
 600              		.file 22 "Generated_Source\\PSoC5/USTX.h"
 601              		.file 23 "Generated_Source\\PSoC5/D.h"
 602              		.file 24 "Generated_Source\\PSoC5/Timer_1.h"