ARM GAS  D:\TEMP\ccPNd7Sn.s 			page 1


   1              		.syntax unified
   2              		.cpu cortex-m3
   3              		.fpu softvfp
   4              		.eabi_attribute 20, 1
   5              		.eabi_attribute 21, 1
   6              		.eabi_attribute 23, 3
   7              		.eabi_attribute 24, 1
   8              		.eabi_attribute 25, 1
   9              		.eabi_attribute 26, 1
  10              		.eabi_attribute 30, 4
  11              		.eabi_attribute 34, 1
  12              		.eabi_attribute 18, 4
  13              		.thumb
  14              		.file	"pwm_functions.c"
  15              		.text
  16              	.Ltext0:
  17              		.cfi_sections	.debug_frame
  18              		.section	.text.ClawOpen,"ax",%progbits
  19              		.align	1
  20              		.global	ClawOpen
  21              		.thumb
  22              		.thumb_func
  23              		.type	ClawOpen, %function
  24              	ClawOpen:
  25              	.LFB63:
  26              		.file 1 ".\\pwm_functions.c"
   1:.\pwm_functions.c **** /* ========================================
   2:.\pwm_functions.c ****  *
   3:.\pwm_functions.c ****  * Copyright YOUR COMPANY, THE YEAR
   4:.\pwm_functions.c ****  * All Rights Reserved
   5:.\pwm_functions.c ****  * UNPUBLISHED, LICENSED SOFTWARE.
   6:.\pwm_functions.c ****  *
   7:.\pwm_functions.c ****  * CONFIDENTIAL AND PROPRIETARY INFORMATION
   8:.\pwm_functions.c ****  * WHICH IS THE PROPERTY OF your company.
   9:.\pwm_functions.c ****  *
  10:.\pwm_functions.c ****  * ========================================
  11:.\pwm_functions.c **** */
  12:.\pwm_functions.c **** #include <project.h>
  13:.\pwm_functions.c **** /*
  14:.\pwm_functions.c **** Important information
  15:.\pwm_functions.c ****     The PWM Channels to the Microservers run on a 20ms period.
  16:.\pwm_functions.c ****     To Achieve accuracy in the pwm duty width, we use a freq much higher than this.
  17:.\pwm_functions.c ****     Thereby we have 2000 counts at 100kHz.
  18:.\pwm_functions.c ****     Cycles:
  19:.\pwm_functions.c ****         max = 200;  eg cam left (bot perspective) or tilt face down
  20:.\pwm_functions.c ****         halfway = 125;
  21:.\pwm_functions.c ****         zerodegrees = 50;  eg cam right (bot perspective) or tilt face up
  22:.\pwm_functions.c **** */
  23:.\pwm_functions.c ****         
  24:.\pwm_functions.c **** uint8 max = 200;
  25:.\pwm_functions.c **** uint8 halfway = 125;
  26:.\pwm_functions.c **** uint8 zerodegrees = 50;
  27:.\pwm_functions.c **** 
  28:.\pwm_functions.c **** void ClawOpen() {
  27              		.loc 1 28 0
  28              		.cfi_startproc
  29              		@ args = 0, pretend = 0, frame = 0
ARM GAS  D:\TEMP\ccPNd7Sn.s 			page 2


  30              		@ frame_needed = 0, uses_anonymous_args = 0
  31              		@ link register save eliminated.
  29:.\pwm_functions.c ****    PWM_Claw_WriteCompare(80);
  32              		.loc 1 29 0
  33 0000 5020     		movs	r0, #80
  34 0002 FFF7FEBF 		b	PWM_Claw_WriteCompare
  35              	.LVL0:
  36              		.cfi_endproc
  37              	.LFE63:
  38              		.size	ClawOpen, .-ClawOpen
  39              		.section	.text.ClawClose,"ax",%progbits
  40              		.align	1
  41              		.global	ClawClose
  42              		.thumb
  43              		.thumb_func
  44              		.type	ClawClose, %function
  45              	ClawClose:
  46              	.LFB64:
  30:.\pwm_functions.c **** }
  31:.\pwm_functions.c **** 
  32:.\pwm_functions.c **** void ClawClose() {
  47              		.loc 1 32 0
  48              		.cfi_startproc
  49              		@ args = 0, pretend = 0, frame = 0
  50              		@ frame_needed = 0, uses_anonymous_args = 0
  51              		@ link register save eliminated.
  33:.\pwm_functions.c ****    PWM_Claw_WriteCompare(50);
  52              		.loc 1 33 0
  53 0000 3220     		movs	r0, #50
  54 0002 FFF7FEBF 		b	PWM_Claw_WriteCompare
  55              	.LVL1:
  56              		.cfi_endproc
  57              	.LFE64:
  58              		.size	ClawClose, .-ClawClose
  59              		.section	.text.TiltUp,"ax",%progbits
  60              		.align	1
  61              		.global	TiltUp
  62              		.thumb
  63              		.thumb_func
  64              		.type	TiltUp, %function
  65              	TiltUp:
  66              	.LFB65:
  34:.\pwm_functions.c **** }
  35:.\pwm_functions.c **** 
  36:.\pwm_functions.c **** void TiltUp(){
  67              		.loc 1 36 0
  68              		.cfi_startproc
  69              		@ args = 0, pretend = 0, frame = 0
  70              		@ frame_needed = 0, uses_anonymous_args = 0
  71              		@ link register save eliminated.
  37:.\pwm_functions.c ****     PWM_Tilt_WriteCompare(zerodegrees);
  72              		.loc 1 37 0
  73 0000 014B     		ldr	r3, .L4
  74 0002 1878     		ldrb	r0, [r3]	@ zero_extendqisi2
  75 0004 FFF7FEBF 		b	PWM_Tilt_WriteCompare
  76              	.LVL2:
  77              	.L5:
ARM GAS  D:\TEMP\ccPNd7Sn.s 			page 3


  78              		.align	2
  79              	.L4:
  80 0008 00000000 		.word	.LANCHOR0
  81              		.cfi_endproc
  82              	.LFE65:
  83              		.size	TiltUp, .-TiltUp
  84              		.section	.text.TiltStraight,"ax",%progbits
  85              		.align	1
  86              		.global	TiltStraight
  87              		.thumb
  88              		.thumb_func
  89              		.type	TiltStraight, %function
  90              	TiltStraight:
  91              	.LFB66:
  38:.\pwm_functions.c **** }
  39:.\pwm_functions.c **** void TiltStraight(){
  92              		.loc 1 39 0
  93              		.cfi_startproc
  94              		@ args = 0, pretend = 0, frame = 0
  95              		@ frame_needed = 0, uses_anonymous_args = 0
  96              		@ link register save eliminated.
  40:.\pwm_functions.c ****     PWM_Tilt_WriteCompare(halfway);
  97              		.loc 1 40 0
  98 0000 014B     		ldr	r3, .L7
  99 0002 5878     		ldrb	r0, [r3, #1]	@ zero_extendqisi2
 100 0004 FFF7FEBF 		b	PWM_Tilt_WriteCompare
 101              	.LVL3:
 102              	.L8:
 103              		.align	2
 104              	.L7:
 105 0008 00000000 		.word	.LANCHOR0
 106              		.cfi_endproc
 107              	.LFE66:
 108              		.size	TiltStraight, .-TiltStraight
 109              		.section	.text.TiltDown,"ax",%progbits
 110              		.align	1
 111              		.global	TiltDown
 112              		.thumb
 113              		.thumb_func
 114              		.type	TiltDown, %function
 115              	TiltDown:
 116              	.LFB67:
  41:.\pwm_functions.c **** }
  42:.\pwm_functions.c **** void TiltDown(){
 117              		.loc 1 42 0
 118              		.cfi_startproc
 119              		@ args = 0, pretend = 0, frame = 0
 120              		@ frame_needed = 0, uses_anonymous_args = 0
 121              		@ link register save eliminated.
  43:.\pwm_functions.c ****     PWM_Tilt_WriteCompare(max);
 122              		.loc 1 43 0
 123 0000 014B     		ldr	r3, .L10
 124 0002 9878     		ldrb	r0, [r3, #2]	@ zero_extendqisi2
 125 0004 FFF7FEBF 		b	PWM_Tilt_WriteCompare
 126              	.LVL4:
 127              	.L11:
 128              		.align	2
ARM GAS  D:\TEMP\ccPNd7Sn.s 			page 4


 129              	.L10:
 130 0008 00000000 		.word	.LANCHOR0
 131              		.cfi_endproc
 132              	.LFE67:
 133              		.size	TiltDown, .-TiltDown
 134              		.section	.text.TiltDown45,"ax",%progbits
 135              		.align	1
 136              		.global	TiltDown45
 137              		.thumb
 138              		.thumb_func
 139              		.type	TiltDown45, %function
 140              	TiltDown45:
 141              	.LFB68:
  44:.\pwm_functions.c **** }
  45:.\pwm_functions.c **** void TiltDown45(){
 142              		.loc 1 45 0
 143              		.cfi_startproc
 144              		@ args = 0, pretend = 0, frame = 0
 145              		@ frame_needed = 0, uses_anonymous_args = 0
 146              		@ link register save eliminated.
  46:.\pwm_functions.c ****     PWM_Tilt_WriteCompare(162);
 147              		.loc 1 46 0
 148 0000 A220     		movs	r0, #162
 149 0002 FFF7FEBF 		b	PWM_Tilt_WriteCompare
 150              	.LVL5:
 151              		.cfi_endproc
 152              	.LFE68:
 153              		.size	TiltDown45, .-TiltDown45
 154              		.section	.text.PanRight,"ax",%progbits
 155              		.align	1
 156              		.global	PanRight
 157              		.thumb
 158              		.thumb_func
 159              		.type	PanRight, %function
 160              	PanRight:
 161              	.LFB69:
  47:.\pwm_functions.c **** }
  48:.\pwm_functions.c **** 
  49:.\pwm_functions.c **** void PanRight(){
 162              		.loc 1 49 0
 163              		.cfi_startproc
 164              		@ args = 0, pretend = 0, frame = 0
 165              		@ frame_needed = 0, uses_anonymous_args = 0
 166 0000 08B5     		push	{r3, lr}
 167              		.cfi_def_cfa_offset 8
 168              		.cfi_offset 3, -8
 169              		.cfi_offset 14, -4
  50:.\pwm_functions.c ****     TiltUp();   // good logic Dan
 170              		.loc 1 50 0
 171 0002 FFF7FEFF 		bl	TiltUp
 172              	.LVL6:
  51:.\pwm_functions.c ****     CyDelay(100);
 173              		.loc 1 51 0
 174 0006 6420     		movs	r0, #100
 175 0008 FFF7FEFF 		bl	CyDelay
 176              	.LVL7:
  52:.\pwm_functions.c ****     PWM_Pan_WriteCompare(zerodegrees);
ARM GAS  D:\TEMP\ccPNd7Sn.s 			page 5


 177              		.loc 1 52 0
 178 000c 024B     		ldr	r3, .L14
 179 000e 1878     		ldrb	r0, [r3]	@ zero_extendqisi2
  53:.\pwm_functions.c **** }
 180              		.loc 1 53 0
 181 0010 BDE80840 		pop	{r3, lr}
 182              		.cfi_restore 14
 183              		.cfi_restore 3
 184              		.cfi_def_cfa_offset 0
  52:.\pwm_functions.c ****     PWM_Pan_WriteCompare(zerodegrees);
 185              		.loc 1 52 0
 186 0014 FFF7FEBF 		b	PWM_Pan_WriteCompare
 187              	.LVL8:
 188              	.L15:
 189              		.align	2
 190              	.L14:
 191 0018 00000000 		.word	.LANCHOR0
 192              		.cfi_endproc
 193              	.LFE69:
 194              		.size	PanRight, .-PanRight
 195              		.section	.text.PanMid,"ax",%progbits
 196              		.align	1
 197              		.global	PanMid
 198              		.thumb
 199              		.thumb_func
 200              		.type	PanMid, %function
 201              	PanMid:
 202              	.LFB70:
  54:.\pwm_functions.c **** void PanMid(){
 203              		.loc 1 54 0
 204              		.cfi_startproc
 205              		@ args = 0, pretend = 0, frame = 0
 206              		@ frame_needed = 0, uses_anonymous_args = 0
 207              		@ link register save eliminated.
  55:.\pwm_functions.c ****     PWM_Pan_WriteCompare(100); //Halfway 125 was too much.
 208              		.loc 1 55 0
 209 0000 6420     		movs	r0, #100
 210 0002 FFF7FEBF 		b	PWM_Pan_WriteCompare
 211              	.LVL9:
 212              		.cfi_endproc
 213              	.LFE70:
 214              		.size	PanMid, .-PanMid
 215              		.section	.text.LiftGround,"ax",%progbits
 216              		.align	1
 217              		.global	LiftGround
 218              		.thumb
 219              		.thumb_func
 220              		.type	LiftGround, %function
 221              	LiftGround:
 222              	.LFB71:
  56:.\pwm_functions.c **** }
  57:.\pwm_functions.c **** 
  58:.\pwm_functions.c **** void LiftGround(){
 223              		.loc 1 58 0
 224              		.cfi_startproc
 225              		@ args = 0, pretend = 0, frame = 0
 226              		@ frame_needed = 0, uses_anonymous_args = 0
ARM GAS  D:\TEMP\ccPNd7Sn.s 			page 6


 227              		@ link register save eliminated.
  59:.\pwm_functions.c ****      PWM_Lift_WriteCompare(65);
 228              		.loc 1 59 0
 229 0000 4120     		movs	r0, #65
 230 0002 FFF7FEBF 		b	PWM_Lift_WriteCompare
 231              	.LVL10:
 232              		.cfi_endproc
 233              	.LFE71:
 234              		.size	LiftGround, .-LiftGround
 235              		.section	.text.LiftHalf,"ax",%progbits
 236              		.align	1
 237              		.global	LiftHalf
 238              		.thumb
 239              		.thumb_func
 240              		.type	LiftHalf, %function
 241              	LiftHalf:
 242              	.LFB72:
  60:.\pwm_functions.c **** }
  61:.\pwm_functions.c **** 
  62:.\pwm_functions.c **** void LiftHalf(){
 243              		.loc 1 62 0
 244              		.cfi_startproc
 245              		@ args = 0, pretend = 0, frame = 0
 246              		@ frame_needed = 0, uses_anonymous_args = 0
 247              		@ link register save eliminated.
  63:.\pwm_functions.c ****     PWM_Lift_WriteCompare((max+65)/2);
 248              		.loc 1 63 0
 249 0000 034B     		ldr	r3, .L19
 250 0002 9878     		ldrb	r0, [r3, #2]	@ zero_extendqisi2
 251 0004 4130     		adds	r0, r0, #65
 252 0006 C0F34F00 		ubfx	r0, r0, #1, #16
 253 000a FFF7FEBF 		b	PWM_Lift_WriteCompare
 254              	.LVL11:
 255              	.L20:
 256 000e 00BF     		.align	2
 257              	.L19:
 258 0010 00000000 		.word	.LANCHOR0
 259              		.cfi_endproc
 260              	.LFE72:
 261              		.size	LiftHalf, .-LiftHalf
 262              		.section	.text.LiftTop,"ax",%progbits
 263              		.align	1
 264              		.global	LiftTop
 265              		.thumb
 266              		.thumb_func
 267              		.type	LiftTop, %function
 268              	LiftTop:
 269              	.LFB73:
  64:.\pwm_functions.c **** }
  65:.\pwm_functions.c **** 
  66:.\pwm_functions.c **** void LiftTop(){
 270              		.loc 1 66 0
 271              		.cfi_startproc
 272              		@ args = 0, pretend = 0, frame = 0
 273              		@ frame_needed = 0, uses_anonymous_args = 0
 274              		@ link register save eliminated.
  67:.\pwm_functions.c ****      PWM_Lift_WriteCompare(max);
ARM GAS  D:\TEMP\ccPNd7Sn.s 			page 7


 275              		.loc 1 67 0
 276 0000 014B     		ldr	r3, .L22
 277 0002 9878     		ldrb	r0, [r3, #2]	@ zero_extendqisi2
 278 0004 FFF7FEBF 		b	PWM_Lift_WriteCompare
 279              	.LVL12:
 280              	.L23:
 281              		.align	2
 282              	.L22:
 283 0008 00000000 		.word	.LANCHOR0
 284              		.cfi_endproc
 285              	.LFE73:
 286              		.size	LiftTop, .-LiftTop
 287              		.global	zerodegrees
 288              		.global	halfway
 289              		.global	max
 290              		.comm	Camera_linebuffer,640,4
 291              		.data
 292              		.set	.LANCHOR0,. + 0
 293              		.type	zerodegrees, %object
 294              		.size	zerodegrees, 1
 295              	zerodegrees:
 296 0000 32       		.byte	50
 297              		.type	halfway, %object
 298              		.size	halfway, 1
 299              	halfway:
 300 0001 7D       		.byte	125
 301              		.type	max, %object
 302              		.size	max, 1
 303              	max:
 304 0002 C8       		.byte	-56
 305              		.text
 306              	.Letext0:
 307              		.file 2 "d:\\program files (x86)\\cypress\\psoc creator\\3.3\\psoc creator\\import\\gnu\\arm\\4.9.
 308              		.file 3 "d:\\program files (x86)\\cypress\\psoc creator\\3.3\\psoc creator\\import\\gnu\\arm\\4.9.
 309              		.file 4 "Generated_Source\\PSoC5/cytypes.h"
 310              		.file 5 "Generated_Source\\PSoC5/core_cm3.h"
 311              		.file 6 "Generated_Source\\PSoC5/Camera.h"
 312              		.file 7 "Generated_Source\\PSoC5/PWM_Claw.h"
 313              		.file 8 "Generated_Source\\PSoC5/PWM_Tilt.h"
 314              		.file 9 "Generated_Source\\PSoC5/CyLib.h"
 315              		.file 10 "Generated_Source\\PSoC5/PWM_Pan.h"
 316              		.file 11 "Generated_Source\\PSoC5/PWM_Lift.h"