ARM GAS  D:\TEMP\ccncbz78.s 			page 1


   1              		.syntax unified
   2              		.cpu cortex-m3
   3              		.fpu softvfp
   4              		.eabi_attribute 20, 1
   5              		.eabi_attribute 21, 1
   6              		.eabi_attribute 23, 3
   7              		.eabi_attribute 24, 1
   8              		.eabi_attribute 25, 1
   9              		.eabi_attribute 26, 1
  10              		.eabi_attribute 30, 4
  11              		.eabi_attribute 34, 1
  12              		.eabi_attribute 18, 4
  13              		.thumb
  14              		.file	"PWM_Claw.c"
  15              		.text
  16              	.Ltext0:
  17              		.cfi_sections	.debug_frame
  18              		.section	.text.PWM_Claw_Enable,"ax",%progbits
  19              		.align	1
  20              		.global	PWM_Claw_Enable
  21              		.thumb
  22              		.thumb_func
  23              		.type	PWM_Claw_Enable, %function
  24              	PWM_Claw_Enable:
  25              	.LFB2:
  26              		.file 1 ".\\Generated_Source\\PSoC5\\PWM_Claw.c"
   1:.\Generated_Source\PSoC5/PWM_Claw.c **** /*******************************************************************************
   2:.\Generated_Source\PSoC5/PWM_Claw.c **** * File Name: PWM_Claw.c
   3:.\Generated_Source\PSoC5/PWM_Claw.c **** * Version 3.30
   4:.\Generated_Source\PSoC5/PWM_Claw.c **** *
   5:.\Generated_Source\PSoC5/PWM_Claw.c **** * Description:
   6:.\Generated_Source\PSoC5/PWM_Claw.c **** *  The PWM User Module consist of an 8 or 16-bit counter with two 8 or 16-bit
   7:.\Generated_Source\PSoC5/PWM_Claw.c **** *  comparitors. Each instance of this user module is capable of generating
   8:.\Generated_Source\PSoC5/PWM_Claw.c **** *  two PWM outputs with the same period. The pulse width is selectable between
   9:.\Generated_Source\PSoC5/PWM_Claw.c **** *  1 and 255/65535. The period is selectable between 2 and 255/65536 clocks.
  10:.\Generated_Source\PSoC5/PWM_Claw.c **** *  The compare value output may be configured to be active when the present
  11:.\Generated_Source\PSoC5/PWM_Claw.c **** *  counter is less than or less than/equal to the compare value.
  12:.\Generated_Source\PSoC5/PWM_Claw.c **** *  A terminal count output is also provided. It generates a pulse one clock
  13:.\Generated_Source\PSoC5/PWM_Claw.c **** *  width wide when the counter is equal to zero.
  14:.\Generated_Source\PSoC5/PWM_Claw.c **** *
  15:.\Generated_Source\PSoC5/PWM_Claw.c **** * Note:
  16:.\Generated_Source\PSoC5/PWM_Claw.c **** *
  17:.\Generated_Source\PSoC5/PWM_Claw.c **** *******************************************************************************
  18:.\Generated_Source\PSoC5/PWM_Claw.c **** * Copyright 2008-2014, Cypress Semiconductor Corporation.  All rights reserved.
  19:.\Generated_Source\PSoC5/PWM_Claw.c **** * You may use this file only in accordance with the license, terms, conditions,
  20:.\Generated_Source\PSoC5/PWM_Claw.c **** * disclaimers, and limitations in the end user license agreement accompanying
  21:.\Generated_Source\PSoC5/PWM_Claw.c **** * the software package with which this file was provided.
  22:.\Generated_Source\PSoC5/PWM_Claw.c **** ********************************************************************************/
  23:.\Generated_Source\PSoC5/PWM_Claw.c **** 
  24:.\Generated_Source\PSoC5/PWM_Claw.c **** #include "PWM_Claw.h"
  25:.\Generated_Source\PSoC5/PWM_Claw.c **** 
  26:.\Generated_Source\PSoC5/PWM_Claw.c **** /* Error message for removed <resource> through optimization */
  27:.\Generated_Source\PSoC5/PWM_Claw.c **** #ifdef PWM_Claw_PWMUDB_genblk1_ctrlreg__REMOVED
  28:.\Generated_Source\PSoC5/PWM_Claw.c ****     #error PWM_v3_30 detected with a constant 0 for the enable or \
  29:.\Generated_Source\PSoC5/PWM_Claw.c ****          constant 1 for reset. This will prevent the component from operating.
  30:.\Generated_Source\PSoC5/PWM_Claw.c **** #endif /* PWM_Claw_PWMUDB_genblk1_ctrlreg__REMOVED */
  31:.\Generated_Source\PSoC5/PWM_Claw.c **** 
ARM GAS  D:\TEMP\ccncbz78.s 			page 2


  32:.\Generated_Source\PSoC5/PWM_Claw.c **** uint8 PWM_Claw_initVar = 0u;
  33:.\Generated_Source\PSoC5/PWM_Claw.c **** 
  34:.\Generated_Source\PSoC5/PWM_Claw.c **** 
  35:.\Generated_Source\PSoC5/PWM_Claw.c **** /*******************************************************************************
  36:.\Generated_Source\PSoC5/PWM_Claw.c **** * Function Name: PWM_Claw_Start
  37:.\Generated_Source\PSoC5/PWM_Claw.c **** ********************************************************************************
  38:.\Generated_Source\PSoC5/PWM_Claw.c **** *
  39:.\Generated_Source\PSoC5/PWM_Claw.c **** * Summary:
  40:.\Generated_Source\PSoC5/PWM_Claw.c **** *  The start function initializes the pwm with the default values, the
  41:.\Generated_Source\PSoC5/PWM_Claw.c **** *  enables the counter to begin counting.  It does not enable interrupts,
  42:.\Generated_Source\PSoC5/PWM_Claw.c **** *  the EnableInt command should be called if interrupt generation is required.
  43:.\Generated_Source\PSoC5/PWM_Claw.c **** *
  44:.\Generated_Source\PSoC5/PWM_Claw.c **** * Parameters:
  45:.\Generated_Source\PSoC5/PWM_Claw.c **** *  None
  46:.\Generated_Source\PSoC5/PWM_Claw.c **** *
  47:.\Generated_Source\PSoC5/PWM_Claw.c **** * Return:
  48:.\Generated_Source\PSoC5/PWM_Claw.c **** *  None
  49:.\Generated_Source\PSoC5/PWM_Claw.c **** *
  50:.\Generated_Source\PSoC5/PWM_Claw.c **** * Global variables:
  51:.\Generated_Source\PSoC5/PWM_Claw.c **** *  PWM_Claw_initVar: Is modified when this function is called for the
  52:.\Generated_Source\PSoC5/PWM_Claw.c **** *   first time. Is used to ensure that initialization happens only once.
  53:.\Generated_Source\PSoC5/PWM_Claw.c **** *
  54:.\Generated_Source\PSoC5/PWM_Claw.c **** *******************************************************************************/
  55:.\Generated_Source\PSoC5/PWM_Claw.c **** void PWM_Claw_Start(void) 
  56:.\Generated_Source\PSoC5/PWM_Claw.c **** {
  57:.\Generated_Source\PSoC5/PWM_Claw.c ****     /* If not Initialized then initialize all required hardware and software */
  58:.\Generated_Source\PSoC5/PWM_Claw.c ****     if(PWM_Claw_initVar == 0u)
  59:.\Generated_Source\PSoC5/PWM_Claw.c ****     {
  60:.\Generated_Source\PSoC5/PWM_Claw.c ****         PWM_Claw_Init();
  61:.\Generated_Source\PSoC5/PWM_Claw.c ****         PWM_Claw_initVar = 1u;
  62:.\Generated_Source\PSoC5/PWM_Claw.c ****     }
  63:.\Generated_Source\PSoC5/PWM_Claw.c ****     PWM_Claw_Enable();
  64:.\Generated_Source\PSoC5/PWM_Claw.c **** 
  65:.\Generated_Source\PSoC5/PWM_Claw.c **** }
  66:.\Generated_Source\PSoC5/PWM_Claw.c **** 
  67:.\Generated_Source\PSoC5/PWM_Claw.c **** 
  68:.\Generated_Source\PSoC5/PWM_Claw.c **** /*******************************************************************************
  69:.\Generated_Source\PSoC5/PWM_Claw.c **** * Function Name: PWM_Claw_Init
  70:.\Generated_Source\PSoC5/PWM_Claw.c **** ********************************************************************************
  71:.\Generated_Source\PSoC5/PWM_Claw.c **** *
  72:.\Generated_Source\PSoC5/PWM_Claw.c **** * Summary:
  73:.\Generated_Source\PSoC5/PWM_Claw.c **** *  Initialize component's parameters to the parameters set by user in the
  74:.\Generated_Source\PSoC5/PWM_Claw.c **** *  customizer of the component placed onto schematic. Usually called in
  75:.\Generated_Source\PSoC5/PWM_Claw.c **** *  PWM_Claw_Start().
  76:.\Generated_Source\PSoC5/PWM_Claw.c **** *
  77:.\Generated_Source\PSoC5/PWM_Claw.c **** * Parameters:
  78:.\Generated_Source\PSoC5/PWM_Claw.c **** *  None
  79:.\Generated_Source\PSoC5/PWM_Claw.c **** *
  80:.\Generated_Source\PSoC5/PWM_Claw.c **** * Return:
  81:.\Generated_Source\PSoC5/PWM_Claw.c **** *  None
  82:.\Generated_Source\PSoC5/PWM_Claw.c **** *
  83:.\Generated_Source\PSoC5/PWM_Claw.c **** *******************************************************************************/
  84:.\Generated_Source\PSoC5/PWM_Claw.c **** void PWM_Claw_Init(void) 
  85:.\Generated_Source\PSoC5/PWM_Claw.c **** {
  86:.\Generated_Source\PSoC5/PWM_Claw.c ****     #if (PWM_Claw_UsingFixedFunction || PWM_Claw_UseControl)
  87:.\Generated_Source\PSoC5/PWM_Claw.c ****         uint8 ctrl;
  88:.\Generated_Source\PSoC5/PWM_Claw.c ****     #endif /* (PWM_Claw_UsingFixedFunction || PWM_Claw_UseControl) */
ARM GAS  D:\TEMP\ccncbz78.s 			page 3


  89:.\Generated_Source\PSoC5/PWM_Claw.c **** 
  90:.\Generated_Source\PSoC5/PWM_Claw.c ****     #if(!PWM_Claw_UsingFixedFunction)
  91:.\Generated_Source\PSoC5/PWM_Claw.c ****         #if(PWM_Claw_UseStatus)
  92:.\Generated_Source\PSoC5/PWM_Claw.c ****             /* Interrupt State Backup for Critical Region*/
  93:.\Generated_Source\PSoC5/PWM_Claw.c ****             uint8 PWM_Claw_interruptState;
  94:.\Generated_Source\PSoC5/PWM_Claw.c ****         #endif /* (PWM_Claw_UseStatus) */
  95:.\Generated_Source\PSoC5/PWM_Claw.c ****     #endif /* (!PWM_Claw_UsingFixedFunction) */
  96:.\Generated_Source\PSoC5/PWM_Claw.c **** 
  97:.\Generated_Source\PSoC5/PWM_Claw.c ****     #if (PWM_Claw_UsingFixedFunction)
  98:.\Generated_Source\PSoC5/PWM_Claw.c ****         /* You are allowed to write the compare value (FF only) */
  99:.\Generated_Source\PSoC5/PWM_Claw.c ****         PWM_Claw_CONTROL |= PWM_Claw_CFG0_MODE;
 100:.\Generated_Source\PSoC5/PWM_Claw.c ****         #if (PWM_Claw_DeadBand2_4)
 101:.\Generated_Source\PSoC5/PWM_Claw.c ****             PWM_Claw_CONTROL |= PWM_Claw_CFG0_DB;
 102:.\Generated_Source\PSoC5/PWM_Claw.c ****         #endif /* (PWM_Claw_DeadBand2_4) */
 103:.\Generated_Source\PSoC5/PWM_Claw.c **** 
 104:.\Generated_Source\PSoC5/PWM_Claw.c ****         ctrl = PWM_Claw_CONTROL3 & ((uint8 )(~PWM_Claw_CTRL_CMPMODE1_MASK));
 105:.\Generated_Source\PSoC5/PWM_Claw.c ****         PWM_Claw_CONTROL3 = ctrl | PWM_Claw_DEFAULT_COMPARE1_MODE;
 106:.\Generated_Source\PSoC5/PWM_Claw.c **** 
 107:.\Generated_Source\PSoC5/PWM_Claw.c ****          /* Clear and Set SYNCTC and SYNCCMP bits of RT1 register */
 108:.\Generated_Source\PSoC5/PWM_Claw.c ****         PWM_Claw_RT1 &= ((uint8)(~PWM_Claw_RT1_MASK));
 109:.\Generated_Source\PSoC5/PWM_Claw.c ****         PWM_Claw_RT1 |= PWM_Claw_SYNC;
 110:.\Generated_Source\PSoC5/PWM_Claw.c **** 
 111:.\Generated_Source\PSoC5/PWM_Claw.c ****         /*Enable DSI Sync all all inputs of the PWM*/
 112:.\Generated_Source\PSoC5/PWM_Claw.c ****         PWM_Claw_RT1 &= ((uint8)(~PWM_Claw_SYNCDSI_MASK));
 113:.\Generated_Source\PSoC5/PWM_Claw.c ****         PWM_Claw_RT1 |= PWM_Claw_SYNCDSI_EN;
 114:.\Generated_Source\PSoC5/PWM_Claw.c **** 
 115:.\Generated_Source\PSoC5/PWM_Claw.c ****     #elif (PWM_Claw_UseControl)
 116:.\Generated_Source\PSoC5/PWM_Claw.c ****         /* Set the default compare mode defined in the parameter */
 117:.\Generated_Source\PSoC5/PWM_Claw.c ****         ctrl = PWM_Claw_CONTROL & ((uint8)(~PWM_Claw_CTRL_CMPMODE2_MASK)) &
 118:.\Generated_Source\PSoC5/PWM_Claw.c ****                 ((uint8)(~PWM_Claw_CTRL_CMPMODE1_MASK));
 119:.\Generated_Source\PSoC5/PWM_Claw.c ****         PWM_Claw_CONTROL = ctrl | PWM_Claw_DEFAULT_COMPARE2_MODE |
 120:.\Generated_Source\PSoC5/PWM_Claw.c ****                                    PWM_Claw_DEFAULT_COMPARE1_MODE;
 121:.\Generated_Source\PSoC5/PWM_Claw.c ****     #endif /* (PWM_Claw_UsingFixedFunction) */
 122:.\Generated_Source\PSoC5/PWM_Claw.c **** 
 123:.\Generated_Source\PSoC5/PWM_Claw.c ****     #if (!PWM_Claw_UsingFixedFunction)
 124:.\Generated_Source\PSoC5/PWM_Claw.c ****         #if (PWM_Claw_Resolution == 8)
 125:.\Generated_Source\PSoC5/PWM_Claw.c ****             /* Set FIFO 0 to 1 byte register for period*/
 126:.\Generated_Source\PSoC5/PWM_Claw.c ****             PWM_Claw_AUX_CONTROLDP0 |= (PWM_Claw_AUX_CTRL_FIFO0_CLR);
 127:.\Generated_Source\PSoC5/PWM_Claw.c ****         #else /* (PWM_Claw_Resolution == 16)*/
 128:.\Generated_Source\PSoC5/PWM_Claw.c ****             /* Set FIFO 0 to 1 byte register for period */
 129:.\Generated_Source\PSoC5/PWM_Claw.c ****             PWM_Claw_AUX_CONTROLDP0 |= (PWM_Claw_AUX_CTRL_FIFO0_CLR);
 130:.\Generated_Source\PSoC5/PWM_Claw.c ****             PWM_Claw_AUX_CONTROLDP1 |= (PWM_Claw_AUX_CTRL_FIFO0_CLR);
 131:.\Generated_Source\PSoC5/PWM_Claw.c ****         #endif /* (PWM_Claw_Resolution == 8) */
 132:.\Generated_Source\PSoC5/PWM_Claw.c **** 
 133:.\Generated_Source\PSoC5/PWM_Claw.c ****         PWM_Claw_WriteCounter(PWM_Claw_INIT_PERIOD_VALUE);
 134:.\Generated_Source\PSoC5/PWM_Claw.c ****     #endif /* (!PWM_Claw_UsingFixedFunction) */
 135:.\Generated_Source\PSoC5/PWM_Claw.c **** 
 136:.\Generated_Source\PSoC5/PWM_Claw.c ****     PWM_Claw_WritePeriod(PWM_Claw_INIT_PERIOD_VALUE);
 137:.\Generated_Source\PSoC5/PWM_Claw.c **** 
 138:.\Generated_Source\PSoC5/PWM_Claw.c ****         #if (PWM_Claw_UseOneCompareMode)
 139:.\Generated_Source\PSoC5/PWM_Claw.c ****             PWM_Claw_WriteCompare(PWM_Claw_INIT_COMPARE_VALUE1);
 140:.\Generated_Source\PSoC5/PWM_Claw.c ****         #else
 141:.\Generated_Source\PSoC5/PWM_Claw.c ****             PWM_Claw_WriteCompare1(PWM_Claw_INIT_COMPARE_VALUE1);
 142:.\Generated_Source\PSoC5/PWM_Claw.c ****             PWM_Claw_WriteCompare2(PWM_Claw_INIT_COMPARE_VALUE2);
 143:.\Generated_Source\PSoC5/PWM_Claw.c ****         #endif /* (PWM_Claw_UseOneCompareMode) */
 144:.\Generated_Source\PSoC5/PWM_Claw.c **** 
 145:.\Generated_Source\PSoC5/PWM_Claw.c ****         #if (PWM_Claw_KillModeMinTime)
ARM GAS  D:\TEMP\ccncbz78.s 			page 4


 146:.\Generated_Source\PSoC5/PWM_Claw.c ****             PWM_Claw_WriteKillTime(PWM_Claw_MinimumKillTime);
 147:.\Generated_Source\PSoC5/PWM_Claw.c ****         #endif /* (PWM_Claw_KillModeMinTime) */
 148:.\Generated_Source\PSoC5/PWM_Claw.c **** 
 149:.\Generated_Source\PSoC5/PWM_Claw.c ****         #if (PWM_Claw_DeadBandUsed)
 150:.\Generated_Source\PSoC5/PWM_Claw.c ****             PWM_Claw_WriteDeadTime(PWM_Claw_INIT_DEAD_TIME);
 151:.\Generated_Source\PSoC5/PWM_Claw.c ****         #endif /* (PWM_Claw_DeadBandUsed) */
 152:.\Generated_Source\PSoC5/PWM_Claw.c **** 
 153:.\Generated_Source\PSoC5/PWM_Claw.c ****     #if (PWM_Claw_UseStatus || PWM_Claw_UsingFixedFunction)
 154:.\Generated_Source\PSoC5/PWM_Claw.c ****         PWM_Claw_SetInterruptMode(PWM_Claw_INIT_INTERRUPTS_MODE);
 155:.\Generated_Source\PSoC5/PWM_Claw.c ****     #endif /* (PWM_Claw_UseStatus || PWM_Claw_UsingFixedFunction) */
 156:.\Generated_Source\PSoC5/PWM_Claw.c **** 
 157:.\Generated_Source\PSoC5/PWM_Claw.c ****     #if (PWM_Claw_UsingFixedFunction)
 158:.\Generated_Source\PSoC5/PWM_Claw.c ****         /* Globally Enable the Fixed Function Block chosen */
 159:.\Generated_Source\PSoC5/PWM_Claw.c ****         PWM_Claw_GLOBAL_ENABLE |= PWM_Claw_BLOCK_EN_MASK;
 160:.\Generated_Source\PSoC5/PWM_Claw.c ****         /* Set the Interrupt source to come from the status register */
 161:.\Generated_Source\PSoC5/PWM_Claw.c ****         PWM_Claw_CONTROL2 |= PWM_Claw_CTRL2_IRQ_SEL;
 162:.\Generated_Source\PSoC5/PWM_Claw.c ****     #else
 163:.\Generated_Source\PSoC5/PWM_Claw.c ****         #if(PWM_Claw_UseStatus)
 164:.\Generated_Source\PSoC5/PWM_Claw.c **** 
 165:.\Generated_Source\PSoC5/PWM_Claw.c ****             /* CyEnterCriticalRegion and CyExitCriticalRegion are used to mark following region cri
 166:.\Generated_Source\PSoC5/PWM_Claw.c ****             /* Enter Critical Region*/
 167:.\Generated_Source\PSoC5/PWM_Claw.c ****             PWM_Claw_interruptState = CyEnterCriticalSection();
 168:.\Generated_Source\PSoC5/PWM_Claw.c ****             /* Use the interrupt output of the status register for IRQ output */
 169:.\Generated_Source\PSoC5/PWM_Claw.c ****             PWM_Claw_STATUS_AUX_CTRL |= PWM_Claw_STATUS_ACTL_INT_EN_MASK;
 170:.\Generated_Source\PSoC5/PWM_Claw.c **** 
 171:.\Generated_Source\PSoC5/PWM_Claw.c ****              /* Exit Critical Region*/
 172:.\Generated_Source\PSoC5/PWM_Claw.c ****             CyExitCriticalSection(PWM_Claw_interruptState);
 173:.\Generated_Source\PSoC5/PWM_Claw.c **** 
 174:.\Generated_Source\PSoC5/PWM_Claw.c ****             /* Clear the FIFO to enable the PWM_Claw_STATUS_FIFOFULL
 175:.\Generated_Source\PSoC5/PWM_Claw.c ****                    bit to be set on FIFO full. */
 176:.\Generated_Source\PSoC5/PWM_Claw.c ****             PWM_Claw_ClearFIFO();
 177:.\Generated_Source\PSoC5/PWM_Claw.c ****         #endif /* (PWM_Claw_UseStatus) */
 178:.\Generated_Source\PSoC5/PWM_Claw.c ****     #endif /* (PWM_Claw_UsingFixedFunction) */
 179:.\Generated_Source\PSoC5/PWM_Claw.c **** }
 180:.\Generated_Source\PSoC5/PWM_Claw.c **** 
 181:.\Generated_Source\PSoC5/PWM_Claw.c **** 
 182:.\Generated_Source\PSoC5/PWM_Claw.c **** /*******************************************************************************
 183:.\Generated_Source\PSoC5/PWM_Claw.c **** * Function Name: PWM_Claw_Enable
 184:.\Generated_Source\PSoC5/PWM_Claw.c **** ********************************************************************************
 185:.\Generated_Source\PSoC5/PWM_Claw.c **** *
 186:.\Generated_Source\PSoC5/PWM_Claw.c **** * Summary:
 187:.\Generated_Source\PSoC5/PWM_Claw.c **** *  Enables the PWM block operation
 188:.\Generated_Source\PSoC5/PWM_Claw.c **** *
 189:.\Generated_Source\PSoC5/PWM_Claw.c **** * Parameters:
 190:.\Generated_Source\PSoC5/PWM_Claw.c **** *  None
 191:.\Generated_Source\PSoC5/PWM_Claw.c **** *
 192:.\Generated_Source\PSoC5/PWM_Claw.c **** * Return:
 193:.\Generated_Source\PSoC5/PWM_Claw.c **** *  None
 194:.\Generated_Source\PSoC5/PWM_Claw.c **** *
 195:.\Generated_Source\PSoC5/PWM_Claw.c **** * Side Effects:
 196:.\Generated_Source\PSoC5/PWM_Claw.c **** *  This works only if software enable mode is chosen
 197:.\Generated_Source\PSoC5/PWM_Claw.c **** *
 198:.\Generated_Source\PSoC5/PWM_Claw.c **** *******************************************************************************/
 199:.\Generated_Source\PSoC5/PWM_Claw.c **** void PWM_Claw_Enable(void) 
 200:.\Generated_Source\PSoC5/PWM_Claw.c **** {
  27              		.loc 1 200 0
  28              		.cfi_startproc
ARM GAS  D:\TEMP\ccncbz78.s 			page 5


  29              		@ args = 0, pretend = 0, frame = 0
  30              		@ frame_needed = 0, uses_anonymous_args = 0
  31              		@ link register save eliminated.
 201:.\Generated_Source\PSoC5/PWM_Claw.c ****     /* Globally Enable the Fixed Function Block chosen */
 202:.\Generated_Source\PSoC5/PWM_Claw.c ****     #if (PWM_Claw_UsingFixedFunction)
 203:.\Generated_Source\PSoC5/PWM_Claw.c ****         PWM_Claw_GLOBAL_ENABLE |= PWM_Claw_BLOCK_EN_MASK;
 204:.\Generated_Source\PSoC5/PWM_Claw.c ****         PWM_Claw_GLOBAL_STBY_ENABLE |= PWM_Claw_BLOCK_STBY_EN_MASK;
 205:.\Generated_Source\PSoC5/PWM_Claw.c ****     #endif /* (PWM_Claw_UsingFixedFunction) */
 206:.\Generated_Source\PSoC5/PWM_Claw.c **** 
 207:.\Generated_Source\PSoC5/PWM_Claw.c ****     /* Enable the PWM from the control register  */
 208:.\Generated_Source\PSoC5/PWM_Claw.c ****     #if (PWM_Claw_UseControl || PWM_Claw_UsingFixedFunction)
 209:.\Generated_Source\PSoC5/PWM_Claw.c ****         PWM_Claw_CONTROL |= PWM_Claw_CTRL_ENABLE;
  32              		.loc 1 209 0
  33 0000 024A     		ldr	r2, .L2
  34 0002 1378     		ldrb	r3, [r2]	@ zero_extendqisi2
  35 0004 43F08003 		orr	r3, r3, #128
  36 0008 1370     		strb	r3, [r2]
  37 000a 7047     		bx	lr
  38              	.L3:
  39              		.align	2
  40              	.L2:
  41 000c 72640040 		.word	1073767538
  42              		.cfi_endproc
  43              	.LFE2:
  44              		.size	PWM_Claw_Enable, .-PWM_Claw_Enable
  45              		.section	.text.PWM_Claw_Stop,"ax",%progbits
  46              		.align	1
  47              		.global	PWM_Claw_Stop
  48              		.thumb
  49              		.thumb_func
  50              		.type	PWM_Claw_Stop, %function
  51              	PWM_Claw_Stop:
  52              	.LFB3:
 210:.\Generated_Source\PSoC5/PWM_Claw.c ****     #endif /* (PWM_Claw_UseControl || PWM_Claw_UsingFixedFunction) */
 211:.\Generated_Source\PSoC5/PWM_Claw.c **** }
 212:.\Generated_Source\PSoC5/PWM_Claw.c **** 
 213:.\Generated_Source\PSoC5/PWM_Claw.c **** 
 214:.\Generated_Source\PSoC5/PWM_Claw.c **** /*******************************************************************************
 215:.\Generated_Source\PSoC5/PWM_Claw.c **** * Function Name: PWM_Claw_Stop
 216:.\Generated_Source\PSoC5/PWM_Claw.c **** ********************************************************************************
 217:.\Generated_Source\PSoC5/PWM_Claw.c **** *
 218:.\Generated_Source\PSoC5/PWM_Claw.c **** * Summary:
 219:.\Generated_Source\PSoC5/PWM_Claw.c **** *  The stop function halts the PWM, but does not change any modes or disable
 220:.\Generated_Source\PSoC5/PWM_Claw.c **** *  interrupts.
 221:.\Generated_Source\PSoC5/PWM_Claw.c **** *
 222:.\Generated_Source\PSoC5/PWM_Claw.c **** * Parameters:
 223:.\Generated_Source\PSoC5/PWM_Claw.c **** *  None
 224:.\Generated_Source\PSoC5/PWM_Claw.c **** *
 225:.\Generated_Source\PSoC5/PWM_Claw.c **** * Return:
 226:.\Generated_Source\PSoC5/PWM_Claw.c **** *  None
 227:.\Generated_Source\PSoC5/PWM_Claw.c **** *
 228:.\Generated_Source\PSoC5/PWM_Claw.c **** * Side Effects:
 229:.\Generated_Source\PSoC5/PWM_Claw.c **** *  If the Enable mode is set to Hardware only then this function
 230:.\Generated_Source\PSoC5/PWM_Claw.c **** *  has no effect on the operation of the PWM
 231:.\Generated_Source\PSoC5/PWM_Claw.c **** *
 232:.\Generated_Source\PSoC5/PWM_Claw.c **** *******************************************************************************/
 233:.\Generated_Source\PSoC5/PWM_Claw.c **** void PWM_Claw_Stop(void) 
ARM GAS  D:\TEMP\ccncbz78.s 			page 6


 234:.\Generated_Source\PSoC5/PWM_Claw.c **** {
  53              		.loc 1 234 0
  54              		.cfi_startproc
  55              		@ args = 0, pretend = 0, frame = 0
  56              		@ frame_needed = 0, uses_anonymous_args = 0
  57              		@ link register save eliminated.
 235:.\Generated_Source\PSoC5/PWM_Claw.c ****     #if (PWM_Claw_UseControl || PWM_Claw_UsingFixedFunction)
 236:.\Generated_Source\PSoC5/PWM_Claw.c ****         PWM_Claw_CONTROL &= ((uint8)(~PWM_Claw_CTRL_ENABLE));
  58              		.loc 1 236 0
  59 0000 024A     		ldr	r2, .L5
  60 0002 1378     		ldrb	r3, [r2]	@ zero_extendqisi2
  61 0004 03F07F03 		and	r3, r3, #127
  62 0008 1370     		strb	r3, [r2]
  63 000a 7047     		bx	lr
  64              	.L6:
  65              		.align	2
  66              	.L5:
  67 000c 72640040 		.word	1073767538
  68              		.cfi_endproc
  69              	.LFE3:
  70              		.size	PWM_Claw_Stop, .-PWM_Claw_Stop
  71              		.section	.text.PWM_Claw_WriteCounter,"ax",%progbits
  72              		.align	1
  73              		.global	PWM_Claw_WriteCounter
  74              		.thumb
  75              		.thumb_func
  76              		.type	PWM_Claw_WriteCounter, %function
  77              	PWM_Claw_WriteCounter:
  78              	.LFB4:
 237:.\Generated_Source\PSoC5/PWM_Claw.c ****     #endif /* (PWM_Claw_UseControl || PWM_Claw_UsingFixedFunction) */
 238:.\Generated_Source\PSoC5/PWM_Claw.c **** 
 239:.\Generated_Source\PSoC5/PWM_Claw.c ****     /* Globally disable the Fixed Function Block chosen */
 240:.\Generated_Source\PSoC5/PWM_Claw.c ****     #if (PWM_Claw_UsingFixedFunction)
 241:.\Generated_Source\PSoC5/PWM_Claw.c ****         PWM_Claw_GLOBAL_ENABLE &= ((uint8)(~PWM_Claw_BLOCK_EN_MASK));
 242:.\Generated_Source\PSoC5/PWM_Claw.c ****         PWM_Claw_GLOBAL_STBY_ENABLE &= ((uint8)(~PWM_Claw_BLOCK_STBY_EN_MASK));
 243:.\Generated_Source\PSoC5/PWM_Claw.c ****     #endif /* (PWM_Claw_UsingFixedFunction) */
 244:.\Generated_Source\PSoC5/PWM_Claw.c **** }
 245:.\Generated_Source\PSoC5/PWM_Claw.c **** 
 246:.\Generated_Source\PSoC5/PWM_Claw.c **** #if (PWM_Claw_UseOneCompareMode)
 247:.\Generated_Source\PSoC5/PWM_Claw.c ****     #if (PWM_Claw_CompareMode1SW)
 248:.\Generated_Source\PSoC5/PWM_Claw.c **** 
 249:.\Generated_Source\PSoC5/PWM_Claw.c **** 
 250:.\Generated_Source\PSoC5/PWM_Claw.c ****         /*******************************************************************************
 251:.\Generated_Source\PSoC5/PWM_Claw.c ****         * Function Name: PWM_Claw_SetCompareMode
 252:.\Generated_Source\PSoC5/PWM_Claw.c ****         ********************************************************************************
 253:.\Generated_Source\PSoC5/PWM_Claw.c ****         *
 254:.\Generated_Source\PSoC5/PWM_Claw.c ****         * Summary:
 255:.\Generated_Source\PSoC5/PWM_Claw.c ****         *  This function writes the Compare Mode for the pwm output when in Dither mode,
 256:.\Generated_Source\PSoC5/PWM_Claw.c ****         *  Center Align Mode or One Output Mode.
 257:.\Generated_Source\PSoC5/PWM_Claw.c ****         *
 258:.\Generated_Source\PSoC5/PWM_Claw.c ****         * Parameters:
 259:.\Generated_Source\PSoC5/PWM_Claw.c ****         *  comparemode:  The new compare mode for the PWM output. Use the compare types
 260:.\Generated_Source\PSoC5/PWM_Claw.c ****         *                defined in the H file as input arguments.
 261:.\Generated_Source\PSoC5/PWM_Claw.c ****         *
 262:.\Generated_Source\PSoC5/PWM_Claw.c ****         * Return:
 263:.\Generated_Source\PSoC5/PWM_Claw.c ****         *  None
 264:.\Generated_Source\PSoC5/PWM_Claw.c ****         *
ARM GAS  D:\TEMP\ccncbz78.s 			page 7


 265:.\Generated_Source\PSoC5/PWM_Claw.c ****         *******************************************************************************/
 266:.\Generated_Source\PSoC5/PWM_Claw.c ****         void PWM_Claw_SetCompareMode(uint8 comparemode) 
 267:.\Generated_Source\PSoC5/PWM_Claw.c ****         {
 268:.\Generated_Source\PSoC5/PWM_Claw.c ****             #if(PWM_Claw_UsingFixedFunction)
 269:.\Generated_Source\PSoC5/PWM_Claw.c **** 
 270:.\Generated_Source\PSoC5/PWM_Claw.c ****                 #if(0 != PWM_Claw_CTRL_CMPMODE1_SHIFT)
 271:.\Generated_Source\PSoC5/PWM_Claw.c ****                     uint8 comparemodemasked = ((uint8)((uint8)comparemode << PWM_Claw_CTRL_CMPMODE1
 272:.\Generated_Source\PSoC5/PWM_Claw.c ****                 #else
 273:.\Generated_Source\PSoC5/PWM_Claw.c ****                     uint8 comparemodemasked = comparemode;
 274:.\Generated_Source\PSoC5/PWM_Claw.c ****                 #endif /* (0 != PWM_Claw_CTRL_CMPMODE1_SHIFT) */
 275:.\Generated_Source\PSoC5/PWM_Claw.c **** 
 276:.\Generated_Source\PSoC5/PWM_Claw.c ****                 PWM_Claw_CONTROL3 &= ((uint8)(~PWM_Claw_CTRL_CMPMODE1_MASK)); /*Clear Existing Data
 277:.\Generated_Source\PSoC5/PWM_Claw.c ****                 PWM_Claw_CONTROL3 |= comparemodemasked;
 278:.\Generated_Source\PSoC5/PWM_Claw.c **** 
 279:.\Generated_Source\PSoC5/PWM_Claw.c ****             #elif (PWM_Claw_UseControl)
 280:.\Generated_Source\PSoC5/PWM_Claw.c **** 
 281:.\Generated_Source\PSoC5/PWM_Claw.c ****                 #if(0 != PWM_Claw_CTRL_CMPMODE1_SHIFT)
 282:.\Generated_Source\PSoC5/PWM_Claw.c ****                     uint8 comparemode1masked = ((uint8)((uint8)comparemode << PWM_Claw_CTRL_CMPMODE
 283:.\Generated_Source\PSoC5/PWM_Claw.c ****                                                 PWM_Claw_CTRL_CMPMODE1_MASK;
 284:.\Generated_Source\PSoC5/PWM_Claw.c ****                 #else
 285:.\Generated_Source\PSoC5/PWM_Claw.c ****                     uint8 comparemode1masked = comparemode & PWM_Claw_CTRL_CMPMODE1_MASK;
 286:.\Generated_Source\PSoC5/PWM_Claw.c ****                 #endif /* (0 != PWM_Claw_CTRL_CMPMODE1_SHIFT) */
 287:.\Generated_Source\PSoC5/PWM_Claw.c **** 
 288:.\Generated_Source\PSoC5/PWM_Claw.c ****                 #if(0 != PWM_Claw_CTRL_CMPMODE2_SHIFT)
 289:.\Generated_Source\PSoC5/PWM_Claw.c ****                     uint8 comparemode2masked = ((uint8)((uint8)comparemode << PWM_Claw_CTRL_CMPMODE
 290:.\Generated_Source\PSoC5/PWM_Claw.c ****                                                PWM_Claw_CTRL_CMPMODE2_MASK;
 291:.\Generated_Source\PSoC5/PWM_Claw.c ****                 #else
 292:.\Generated_Source\PSoC5/PWM_Claw.c ****                     uint8 comparemode2masked = comparemode & PWM_Claw_CTRL_CMPMODE2_MASK;
 293:.\Generated_Source\PSoC5/PWM_Claw.c ****                 #endif /* (0 != PWM_Claw_CTRL_CMPMODE2_SHIFT) */
 294:.\Generated_Source\PSoC5/PWM_Claw.c **** 
 295:.\Generated_Source\PSoC5/PWM_Claw.c ****                 /*Clear existing mode */
 296:.\Generated_Source\PSoC5/PWM_Claw.c ****                 PWM_Claw_CONTROL &= ((uint8)(~(PWM_Claw_CTRL_CMPMODE1_MASK |
 297:.\Generated_Source\PSoC5/PWM_Claw.c ****                                             PWM_Claw_CTRL_CMPMODE2_MASK)));
 298:.\Generated_Source\PSoC5/PWM_Claw.c ****                 PWM_Claw_CONTROL |= (comparemode1masked | comparemode2masked);
 299:.\Generated_Source\PSoC5/PWM_Claw.c **** 
 300:.\Generated_Source\PSoC5/PWM_Claw.c ****             #else
 301:.\Generated_Source\PSoC5/PWM_Claw.c ****                 uint8 temp = comparemode;
 302:.\Generated_Source\PSoC5/PWM_Claw.c ****             #endif /* (PWM_Claw_UsingFixedFunction) */
 303:.\Generated_Source\PSoC5/PWM_Claw.c ****         }
 304:.\Generated_Source\PSoC5/PWM_Claw.c ****     #endif /* PWM_Claw_CompareMode1SW */
 305:.\Generated_Source\PSoC5/PWM_Claw.c **** 
 306:.\Generated_Source\PSoC5/PWM_Claw.c **** #else /* UseOneCompareMode */
 307:.\Generated_Source\PSoC5/PWM_Claw.c **** 
 308:.\Generated_Source\PSoC5/PWM_Claw.c ****     #if (PWM_Claw_CompareMode1SW)
 309:.\Generated_Source\PSoC5/PWM_Claw.c **** 
 310:.\Generated_Source\PSoC5/PWM_Claw.c **** 
 311:.\Generated_Source\PSoC5/PWM_Claw.c ****         /*******************************************************************************
 312:.\Generated_Source\PSoC5/PWM_Claw.c ****         * Function Name: PWM_Claw_SetCompareMode1
 313:.\Generated_Source\PSoC5/PWM_Claw.c ****         ********************************************************************************
 314:.\Generated_Source\PSoC5/PWM_Claw.c ****         *
 315:.\Generated_Source\PSoC5/PWM_Claw.c ****         * Summary:
 316:.\Generated_Source\PSoC5/PWM_Claw.c ****         *  This function writes the Compare Mode for the pwm or pwm1 output
 317:.\Generated_Source\PSoC5/PWM_Claw.c ****         *
 318:.\Generated_Source\PSoC5/PWM_Claw.c ****         * Parameters:
 319:.\Generated_Source\PSoC5/PWM_Claw.c ****         *  comparemode:  The new compare mode for the PWM output. Use the compare types
 320:.\Generated_Source\PSoC5/PWM_Claw.c ****         *                defined in the H file as input arguments.
 321:.\Generated_Source\PSoC5/PWM_Claw.c ****         *
ARM GAS  D:\TEMP\ccncbz78.s 			page 8


 322:.\Generated_Source\PSoC5/PWM_Claw.c ****         * Return:
 323:.\Generated_Source\PSoC5/PWM_Claw.c ****         *  None
 324:.\Generated_Source\PSoC5/PWM_Claw.c ****         *
 325:.\Generated_Source\PSoC5/PWM_Claw.c ****         *******************************************************************************/
 326:.\Generated_Source\PSoC5/PWM_Claw.c ****         void PWM_Claw_SetCompareMode1(uint8 comparemode) 
 327:.\Generated_Source\PSoC5/PWM_Claw.c ****         {
 328:.\Generated_Source\PSoC5/PWM_Claw.c ****             #if(0 != PWM_Claw_CTRL_CMPMODE1_SHIFT)
 329:.\Generated_Source\PSoC5/PWM_Claw.c ****                 uint8 comparemodemasked = ((uint8)((uint8)comparemode << PWM_Claw_CTRL_CMPMODE1_SHI
 330:.\Generated_Source\PSoC5/PWM_Claw.c ****                                            PWM_Claw_CTRL_CMPMODE1_MASK;
 331:.\Generated_Source\PSoC5/PWM_Claw.c ****             #else
 332:.\Generated_Source\PSoC5/PWM_Claw.c ****                 uint8 comparemodemasked = comparemode & PWM_Claw_CTRL_CMPMODE1_MASK;
 333:.\Generated_Source\PSoC5/PWM_Claw.c ****             #endif /* (0 != PWM_Claw_CTRL_CMPMODE1_SHIFT) */
 334:.\Generated_Source\PSoC5/PWM_Claw.c **** 
 335:.\Generated_Source\PSoC5/PWM_Claw.c ****             #if (PWM_Claw_UseControl)
 336:.\Generated_Source\PSoC5/PWM_Claw.c ****                 PWM_Claw_CONTROL &= ((uint8)(~PWM_Claw_CTRL_CMPMODE1_MASK)); /*Clear existing mode 
 337:.\Generated_Source\PSoC5/PWM_Claw.c ****                 PWM_Claw_CONTROL |= comparemodemasked;
 338:.\Generated_Source\PSoC5/PWM_Claw.c ****             #endif /* (PWM_Claw_UseControl) */
 339:.\Generated_Source\PSoC5/PWM_Claw.c ****         }
 340:.\Generated_Source\PSoC5/PWM_Claw.c ****     #endif /* PWM_Claw_CompareMode1SW */
 341:.\Generated_Source\PSoC5/PWM_Claw.c **** 
 342:.\Generated_Source\PSoC5/PWM_Claw.c **** #if (PWM_Claw_CompareMode2SW)
 343:.\Generated_Source\PSoC5/PWM_Claw.c **** 
 344:.\Generated_Source\PSoC5/PWM_Claw.c **** 
 345:.\Generated_Source\PSoC5/PWM_Claw.c ****     /*******************************************************************************
 346:.\Generated_Source\PSoC5/PWM_Claw.c ****     * Function Name: PWM_Claw_SetCompareMode2
 347:.\Generated_Source\PSoC5/PWM_Claw.c ****     ********************************************************************************
 348:.\Generated_Source\PSoC5/PWM_Claw.c ****     *
 349:.\Generated_Source\PSoC5/PWM_Claw.c ****     * Summary:
 350:.\Generated_Source\PSoC5/PWM_Claw.c ****     *  This function writes the Compare Mode for the pwm or pwm2 output
 351:.\Generated_Source\PSoC5/PWM_Claw.c ****     *
 352:.\Generated_Source\PSoC5/PWM_Claw.c ****     * Parameters:
 353:.\Generated_Source\PSoC5/PWM_Claw.c ****     *  comparemode:  The new compare mode for the PWM output. Use the compare types
 354:.\Generated_Source\PSoC5/PWM_Claw.c ****     *                defined in the H file as input arguments.
 355:.\Generated_Source\PSoC5/PWM_Claw.c ****     *
 356:.\Generated_Source\PSoC5/PWM_Claw.c ****     * Return:
 357:.\Generated_Source\PSoC5/PWM_Claw.c ****     *  None
 358:.\Generated_Source\PSoC5/PWM_Claw.c ****     *
 359:.\Generated_Source\PSoC5/PWM_Claw.c ****     *******************************************************************************/
 360:.\Generated_Source\PSoC5/PWM_Claw.c ****     void PWM_Claw_SetCompareMode2(uint8 comparemode) 
 361:.\Generated_Source\PSoC5/PWM_Claw.c ****     {
 362:.\Generated_Source\PSoC5/PWM_Claw.c **** 
 363:.\Generated_Source\PSoC5/PWM_Claw.c ****         #if(0 != PWM_Claw_CTRL_CMPMODE2_SHIFT)
 364:.\Generated_Source\PSoC5/PWM_Claw.c ****             uint8 comparemodemasked = ((uint8)((uint8)comparemode << PWM_Claw_CTRL_CMPMODE2_SHIFT))
 365:.\Generated_Source\PSoC5/PWM_Claw.c ****                                                  PWM_Claw_CTRL_CMPMODE2_MASK;
 366:.\Generated_Source\PSoC5/PWM_Claw.c ****         #else
 367:.\Generated_Source\PSoC5/PWM_Claw.c ****             uint8 comparemodemasked = comparemode & PWM_Claw_CTRL_CMPMODE2_MASK;
 368:.\Generated_Source\PSoC5/PWM_Claw.c ****         #endif /* (0 != PWM_Claw_CTRL_CMPMODE2_SHIFT) */
 369:.\Generated_Source\PSoC5/PWM_Claw.c **** 
 370:.\Generated_Source\PSoC5/PWM_Claw.c ****         #if (PWM_Claw_UseControl)
 371:.\Generated_Source\PSoC5/PWM_Claw.c ****             PWM_Claw_CONTROL &= ((uint8)(~PWM_Claw_CTRL_CMPMODE2_MASK)); /*Clear existing mode */
 372:.\Generated_Source\PSoC5/PWM_Claw.c ****             PWM_Claw_CONTROL |= comparemodemasked;
 373:.\Generated_Source\PSoC5/PWM_Claw.c ****         #endif /* (PWM_Claw_UseControl) */
 374:.\Generated_Source\PSoC5/PWM_Claw.c ****     }
 375:.\Generated_Source\PSoC5/PWM_Claw.c ****     #endif /*PWM_Claw_CompareMode2SW */
 376:.\Generated_Source\PSoC5/PWM_Claw.c **** 
 377:.\Generated_Source\PSoC5/PWM_Claw.c **** #endif /* UseOneCompareMode */
 378:.\Generated_Source\PSoC5/PWM_Claw.c **** 
ARM GAS  D:\TEMP\ccncbz78.s 			page 9


 379:.\Generated_Source\PSoC5/PWM_Claw.c **** 
 380:.\Generated_Source\PSoC5/PWM_Claw.c **** #if (!PWM_Claw_UsingFixedFunction)
 381:.\Generated_Source\PSoC5/PWM_Claw.c **** 
 382:.\Generated_Source\PSoC5/PWM_Claw.c **** 
 383:.\Generated_Source\PSoC5/PWM_Claw.c ****     /*******************************************************************************
 384:.\Generated_Source\PSoC5/PWM_Claw.c ****     * Function Name: PWM_Claw_WriteCounter
 385:.\Generated_Source\PSoC5/PWM_Claw.c ****     ********************************************************************************
 386:.\Generated_Source\PSoC5/PWM_Claw.c ****     *
 387:.\Generated_Source\PSoC5/PWM_Claw.c ****     * Summary:
 388:.\Generated_Source\PSoC5/PWM_Claw.c ****     *  Writes a new counter value directly to the counter register. This will be
 389:.\Generated_Source\PSoC5/PWM_Claw.c ****     *  implemented for that currently running period and only that period. This API
 390:.\Generated_Source\PSoC5/PWM_Claw.c ****     *  is valid only for UDB implementation and not available for fixed function
 391:.\Generated_Source\PSoC5/PWM_Claw.c ****     *  PWM implementation.
 392:.\Generated_Source\PSoC5/PWM_Claw.c ****     *
 393:.\Generated_Source\PSoC5/PWM_Claw.c ****     * Parameters:
 394:.\Generated_Source\PSoC5/PWM_Claw.c ****     *  counter:  The period new period counter value.
 395:.\Generated_Source\PSoC5/PWM_Claw.c ****     *
 396:.\Generated_Source\PSoC5/PWM_Claw.c ****     * Return:
 397:.\Generated_Source\PSoC5/PWM_Claw.c ****     *  None
 398:.\Generated_Source\PSoC5/PWM_Claw.c ****     *
 399:.\Generated_Source\PSoC5/PWM_Claw.c ****     * Side Effects:
 400:.\Generated_Source\PSoC5/PWM_Claw.c ****     *  The PWM Period will be reloaded when a counter value will be a zero
 401:.\Generated_Source\PSoC5/PWM_Claw.c ****     *
 402:.\Generated_Source\PSoC5/PWM_Claw.c ****     *******************************************************************************/
 403:.\Generated_Source\PSoC5/PWM_Claw.c ****     void PWM_Claw_WriteCounter(uint16 counter) \
 404:.\Generated_Source\PSoC5/PWM_Claw.c ****                                        
 405:.\Generated_Source\PSoC5/PWM_Claw.c ****     {
  79              		.loc 1 405 0
  80              		.cfi_startproc
  81              		@ args = 0, pretend = 0, frame = 0
  82              		@ frame_needed = 0, uses_anonymous_args = 0
  83              		@ link register save eliminated.
  84              	.LVL0:
 406:.\Generated_Source\PSoC5/PWM_Claw.c ****         CY_SET_REG16(PWM_Claw_COUNTER_LSB_PTR, counter);
  85              		.loc 1 406 0
  86 0000 014B     		ldr	r3, .L8
  87 0002 1880     		strh	r0, [r3]	@ movhi
  88 0004 7047     		bx	lr
  89              	.L9:
  90 0006 00BF     		.align	2
  91              	.L8:
  92 0008 00680040 		.word	1073768448
  93              		.cfi_endproc
  94              	.LFE4:
  95              		.size	PWM_Claw_WriteCounter, .-PWM_Claw_WriteCounter
  96              		.section	.text.PWM_Claw_ReadCounter,"ax",%progbits
  97              		.align	1
  98              		.global	PWM_Claw_ReadCounter
  99              		.thumb
 100              		.thumb_func
 101              		.type	PWM_Claw_ReadCounter, %function
 102              	PWM_Claw_ReadCounter:
 103              	.LFB5:
 407:.\Generated_Source\PSoC5/PWM_Claw.c ****     }
 408:.\Generated_Source\PSoC5/PWM_Claw.c **** 
 409:.\Generated_Source\PSoC5/PWM_Claw.c **** 
 410:.\Generated_Source\PSoC5/PWM_Claw.c ****     /*******************************************************************************
ARM GAS  D:\TEMP\ccncbz78.s 			page 10


 411:.\Generated_Source\PSoC5/PWM_Claw.c ****     * Function Name: PWM_Claw_ReadCounter
 412:.\Generated_Source\PSoC5/PWM_Claw.c ****     ********************************************************************************
 413:.\Generated_Source\PSoC5/PWM_Claw.c ****     *
 414:.\Generated_Source\PSoC5/PWM_Claw.c ****     * Summary:
 415:.\Generated_Source\PSoC5/PWM_Claw.c ****     *  This function returns the current value of the counter.  It doesn't matter
 416:.\Generated_Source\PSoC5/PWM_Claw.c ****     *  if the counter is enabled or running.
 417:.\Generated_Source\PSoC5/PWM_Claw.c ****     *
 418:.\Generated_Source\PSoC5/PWM_Claw.c ****     * Parameters:
 419:.\Generated_Source\PSoC5/PWM_Claw.c ****     *  None
 420:.\Generated_Source\PSoC5/PWM_Claw.c ****     *
 421:.\Generated_Source\PSoC5/PWM_Claw.c ****     * Return:
 422:.\Generated_Source\PSoC5/PWM_Claw.c ****     *  The current value of the counter.
 423:.\Generated_Source\PSoC5/PWM_Claw.c ****     *
 424:.\Generated_Source\PSoC5/PWM_Claw.c ****     *******************************************************************************/
 425:.\Generated_Source\PSoC5/PWM_Claw.c ****     uint16 PWM_Claw_ReadCounter(void) 
 426:.\Generated_Source\PSoC5/PWM_Claw.c ****     {
 104              		.loc 1 426 0
 105              		.cfi_startproc
 106              		@ args = 0, pretend = 0, frame = 0
 107              		@ frame_needed = 0, uses_anonymous_args = 0
 108              		@ link register save eliminated.
 427:.\Generated_Source\PSoC5/PWM_Claw.c ****         /* Force capture by reading Accumulator */
 428:.\Generated_Source\PSoC5/PWM_Claw.c ****         /* Must first do a software capture to be able to read the counter */
 429:.\Generated_Source\PSoC5/PWM_Claw.c ****         /* It is up to the user code to make sure there isn't already captured data in the FIFO */
 430:.\Generated_Source\PSoC5/PWM_Claw.c ****           (void)CY_GET_REG8(PWM_Claw_COUNTERCAP_LSB_PTR_8BIT);
 109              		.loc 1 430 0
 110 0000 024B     		ldr	r3, .L11
 111 0002 1B78     		ldrb	r3, [r3]	@ zero_extendqisi2
 431:.\Generated_Source\PSoC5/PWM_Claw.c **** 
 432:.\Generated_Source\PSoC5/PWM_Claw.c ****         /* Read the data from the FIFO */
 433:.\Generated_Source\PSoC5/PWM_Claw.c ****         return (CY_GET_REG16(PWM_Claw_CAPTURE_LSB_PTR));
 112              		.loc 1 433 0
 113 0004 024B     		ldr	r3, .L11+4
 114 0006 1888     		ldrh	r0, [r3]
 434:.\Generated_Source\PSoC5/PWM_Claw.c ****     }
 115              		.loc 1 434 0
 116 0008 80B2     		uxth	r0, r0
 117 000a 7047     		bx	lr
 118              	.L12:
 119              		.align	2
 120              	.L11:
 121 000c 10640040 		.word	1073767440
 122 0010 A0680040 		.word	1073768608
 123              		.cfi_endproc
 124              	.LFE5:
 125              		.size	PWM_Claw_ReadCounter, .-PWM_Claw_ReadCounter
 126              		.section	.text.PWM_Claw_ClearFIFO,"ax",%progbits
 127              		.align	1
 128              		.global	PWM_Claw_ClearFIFO
 129              		.thumb
 130              		.thumb_func
 131              		.type	PWM_Claw_ClearFIFO, %function
 132              	PWM_Claw_ClearFIFO:
 133              	.LFB6:
 435:.\Generated_Source\PSoC5/PWM_Claw.c **** 
 436:.\Generated_Source\PSoC5/PWM_Claw.c ****     #if (PWM_Claw_UseStatus)
 437:.\Generated_Source\PSoC5/PWM_Claw.c **** 
ARM GAS  D:\TEMP\ccncbz78.s 			page 11


 438:.\Generated_Source\PSoC5/PWM_Claw.c **** 
 439:.\Generated_Source\PSoC5/PWM_Claw.c ****         /*******************************************************************************
 440:.\Generated_Source\PSoC5/PWM_Claw.c ****         * Function Name: PWM_Claw_ClearFIFO
 441:.\Generated_Source\PSoC5/PWM_Claw.c ****         ********************************************************************************
 442:.\Generated_Source\PSoC5/PWM_Claw.c ****         *
 443:.\Generated_Source\PSoC5/PWM_Claw.c ****         * Summary:
 444:.\Generated_Source\PSoC5/PWM_Claw.c ****         *  This function clears all capture data from the capture FIFO
 445:.\Generated_Source\PSoC5/PWM_Claw.c ****         *
 446:.\Generated_Source\PSoC5/PWM_Claw.c ****         * Parameters:
 447:.\Generated_Source\PSoC5/PWM_Claw.c ****         *  None
 448:.\Generated_Source\PSoC5/PWM_Claw.c ****         *
 449:.\Generated_Source\PSoC5/PWM_Claw.c ****         * Return:
 450:.\Generated_Source\PSoC5/PWM_Claw.c ****         *  None
 451:.\Generated_Source\PSoC5/PWM_Claw.c ****         *
 452:.\Generated_Source\PSoC5/PWM_Claw.c ****         *******************************************************************************/
 453:.\Generated_Source\PSoC5/PWM_Claw.c ****         void PWM_Claw_ClearFIFO(void) 
 454:.\Generated_Source\PSoC5/PWM_Claw.c ****         {
 134              		.loc 1 454 0
 135              		.cfi_startproc
 136              		@ args = 0, pretend = 0, frame = 0
 137              		@ frame_needed = 0, uses_anonymous_args = 0
 138              		@ link register save eliminated.
 139              	.L14:
 140              	.LBB14:
 141              	.LBB15:
 455:.\Generated_Source\PSoC5/PWM_Claw.c ****             while(0u != (PWM_Claw_ReadStatusRegister() & PWM_Claw_STATUS_FIFONEMPTY))
 456:.\Generated_Source\PSoC5/PWM_Claw.c ****             {
 457:.\Generated_Source\PSoC5/PWM_Claw.c ****                 (void)PWM_Claw_ReadCapture();
 458:.\Generated_Source\PSoC5/PWM_Claw.c ****             }
 459:.\Generated_Source\PSoC5/PWM_Claw.c ****         }
 460:.\Generated_Source\PSoC5/PWM_Claw.c **** 
 461:.\Generated_Source\PSoC5/PWM_Claw.c ****     #endif /* PWM_Claw_UseStatus */
 462:.\Generated_Source\PSoC5/PWM_Claw.c **** 
 463:.\Generated_Source\PSoC5/PWM_Claw.c **** #endif /* !PWM_Claw_UsingFixedFunction */
 464:.\Generated_Source\PSoC5/PWM_Claw.c **** 
 465:.\Generated_Source\PSoC5/PWM_Claw.c **** 
 466:.\Generated_Source\PSoC5/PWM_Claw.c **** /*******************************************************************************
 467:.\Generated_Source\PSoC5/PWM_Claw.c **** * Function Name: PWM_Claw_WritePeriod
 468:.\Generated_Source\PSoC5/PWM_Claw.c **** ********************************************************************************
 469:.\Generated_Source\PSoC5/PWM_Claw.c **** *
 470:.\Generated_Source\PSoC5/PWM_Claw.c **** * Summary:
 471:.\Generated_Source\PSoC5/PWM_Claw.c **** *  This function is used to change the period of the counter.  The new period
 472:.\Generated_Source\PSoC5/PWM_Claw.c **** *  will be loaded the next time terminal count is detected.
 473:.\Generated_Source\PSoC5/PWM_Claw.c **** *
 474:.\Generated_Source\PSoC5/PWM_Claw.c **** * Parameters:
 475:.\Generated_Source\PSoC5/PWM_Claw.c **** *  period:  Period value. May be between 1 and (2^Resolution)-1.  A value of 0
 476:.\Generated_Source\PSoC5/PWM_Claw.c **** *           will result in the counter remaining at zero.
 477:.\Generated_Source\PSoC5/PWM_Claw.c **** *
 478:.\Generated_Source\PSoC5/PWM_Claw.c **** * Return:
 479:.\Generated_Source\PSoC5/PWM_Claw.c **** *  None
 480:.\Generated_Source\PSoC5/PWM_Claw.c **** *
 481:.\Generated_Source\PSoC5/PWM_Claw.c **** *******************************************************************************/
 482:.\Generated_Source\PSoC5/PWM_Claw.c **** void PWM_Claw_WritePeriod(uint16 period) 
 483:.\Generated_Source\PSoC5/PWM_Claw.c **** {
 484:.\Generated_Source\PSoC5/PWM_Claw.c ****     #if(PWM_Claw_UsingFixedFunction)
 485:.\Generated_Source\PSoC5/PWM_Claw.c ****         CY_SET_REG16(PWM_Claw_PERIOD_LSB_PTR, (uint16)period);
 486:.\Generated_Source\PSoC5/PWM_Claw.c ****     #else
ARM GAS  D:\TEMP\ccncbz78.s 			page 12


 487:.\Generated_Source\PSoC5/PWM_Claw.c ****         CY_SET_REG16(PWM_Claw_PERIOD_LSB_PTR, period);
 488:.\Generated_Source\PSoC5/PWM_Claw.c ****     #endif /* (PWM_Claw_UsingFixedFunction) */
 489:.\Generated_Source\PSoC5/PWM_Claw.c **** }
 490:.\Generated_Source\PSoC5/PWM_Claw.c **** 
 491:.\Generated_Source\PSoC5/PWM_Claw.c **** #if (PWM_Claw_UseOneCompareMode)
 492:.\Generated_Source\PSoC5/PWM_Claw.c **** 
 493:.\Generated_Source\PSoC5/PWM_Claw.c **** 
 494:.\Generated_Source\PSoC5/PWM_Claw.c ****     /*******************************************************************************
 495:.\Generated_Source\PSoC5/PWM_Claw.c ****     * Function Name: PWM_Claw_WriteCompare
 496:.\Generated_Source\PSoC5/PWM_Claw.c ****     ********************************************************************************
 497:.\Generated_Source\PSoC5/PWM_Claw.c ****     *
 498:.\Generated_Source\PSoC5/PWM_Claw.c ****     * Summary:
 499:.\Generated_Source\PSoC5/PWM_Claw.c ****     *  This funtion is used to change the compare1 value when the PWM is in Dither
 500:.\Generated_Source\PSoC5/PWM_Claw.c ****     *  mode. The compare output will reflect the new value on the next UDB clock.
 501:.\Generated_Source\PSoC5/PWM_Claw.c ****     *  The compare output will be driven high when the present counter value is
 502:.\Generated_Source\PSoC5/PWM_Claw.c ****     *  compared to the compare value based on the compare mode defined in
 503:.\Generated_Source\PSoC5/PWM_Claw.c ****     *  Dither Mode.
 504:.\Generated_Source\PSoC5/PWM_Claw.c ****     *
 505:.\Generated_Source\PSoC5/PWM_Claw.c ****     * Parameters:
 506:.\Generated_Source\PSoC5/PWM_Claw.c ****     *  compare:  New compare value.
 507:.\Generated_Source\PSoC5/PWM_Claw.c ****     *
 508:.\Generated_Source\PSoC5/PWM_Claw.c ****     * Return:
 509:.\Generated_Source\PSoC5/PWM_Claw.c ****     *  None
 510:.\Generated_Source\PSoC5/PWM_Claw.c ****     *
 511:.\Generated_Source\PSoC5/PWM_Claw.c ****     * Side Effects:
 512:.\Generated_Source\PSoC5/PWM_Claw.c ****     *  This function is only available if the PWM mode parameter is set to
 513:.\Generated_Source\PSoC5/PWM_Claw.c ****     *  Dither Mode, Center Aligned Mode or One Output Mode
 514:.\Generated_Source\PSoC5/PWM_Claw.c ****     *
 515:.\Generated_Source\PSoC5/PWM_Claw.c ****     *******************************************************************************/
 516:.\Generated_Source\PSoC5/PWM_Claw.c ****     void PWM_Claw_WriteCompare(uint16 compare) \
 517:.\Generated_Source\PSoC5/PWM_Claw.c ****                                        
 518:.\Generated_Source\PSoC5/PWM_Claw.c ****     {
 519:.\Generated_Source\PSoC5/PWM_Claw.c ****         #if(PWM_Claw_UsingFixedFunction)
 520:.\Generated_Source\PSoC5/PWM_Claw.c ****             CY_SET_REG16(PWM_Claw_COMPARE1_LSB_PTR, (uint16)compare);
 521:.\Generated_Source\PSoC5/PWM_Claw.c ****         #else
 522:.\Generated_Source\PSoC5/PWM_Claw.c ****             CY_SET_REG16(PWM_Claw_COMPARE1_LSB_PTR, compare);
 523:.\Generated_Source\PSoC5/PWM_Claw.c ****         #endif /* (PWM_Claw_UsingFixedFunction) */
 524:.\Generated_Source\PSoC5/PWM_Claw.c **** 
 525:.\Generated_Source\PSoC5/PWM_Claw.c ****         #if (PWM_Claw_PWMMode == PWM_Claw__B_PWM__DITHER)
 526:.\Generated_Source\PSoC5/PWM_Claw.c ****             #if(PWM_Claw_UsingFixedFunction)
 527:.\Generated_Source\PSoC5/PWM_Claw.c ****                 CY_SET_REG16(PWM_Claw_COMPARE2_LSB_PTR, (uint16)(compare + 1u));
 528:.\Generated_Source\PSoC5/PWM_Claw.c ****             #else
 529:.\Generated_Source\PSoC5/PWM_Claw.c ****                 CY_SET_REG16(PWM_Claw_COMPARE2_LSB_PTR, (compare + 1u));
 530:.\Generated_Source\PSoC5/PWM_Claw.c ****             #endif /* (PWM_Claw_UsingFixedFunction) */
 531:.\Generated_Source\PSoC5/PWM_Claw.c ****         #endif /* (PWM_Claw_PWMMode == PWM_Claw__B_PWM__DITHER) */
 532:.\Generated_Source\PSoC5/PWM_Claw.c ****     }
 533:.\Generated_Source\PSoC5/PWM_Claw.c **** 
 534:.\Generated_Source\PSoC5/PWM_Claw.c **** 
 535:.\Generated_Source\PSoC5/PWM_Claw.c **** #else
 536:.\Generated_Source\PSoC5/PWM_Claw.c **** 
 537:.\Generated_Source\PSoC5/PWM_Claw.c **** 
 538:.\Generated_Source\PSoC5/PWM_Claw.c ****     /*******************************************************************************
 539:.\Generated_Source\PSoC5/PWM_Claw.c ****     * Function Name: PWM_Claw_WriteCompare1
 540:.\Generated_Source\PSoC5/PWM_Claw.c ****     ********************************************************************************
 541:.\Generated_Source\PSoC5/PWM_Claw.c ****     *
 542:.\Generated_Source\PSoC5/PWM_Claw.c ****     * Summary:
 543:.\Generated_Source\PSoC5/PWM_Claw.c ****     *  This funtion is used to change the compare1 value.  The compare output will
ARM GAS  D:\TEMP\ccncbz78.s 			page 13


 544:.\Generated_Source\PSoC5/PWM_Claw.c ****     *  reflect the new value on the next UDB clock.  The compare output will be
 545:.\Generated_Source\PSoC5/PWM_Claw.c ****     *  driven high when the present counter value is less than or less than or
 546:.\Generated_Source\PSoC5/PWM_Claw.c ****     *  equal to the compare register, depending on the mode.
 547:.\Generated_Source\PSoC5/PWM_Claw.c ****     *
 548:.\Generated_Source\PSoC5/PWM_Claw.c ****     * Parameters:
 549:.\Generated_Source\PSoC5/PWM_Claw.c ****     *  compare:  New compare value.
 550:.\Generated_Source\PSoC5/PWM_Claw.c ****     *
 551:.\Generated_Source\PSoC5/PWM_Claw.c ****     * Return:
 552:.\Generated_Source\PSoC5/PWM_Claw.c ****     *  None
 553:.\Generated_Source\PSoC5/PWM_Claw.c ****     *
 554:.\Generated_Source\PSoC5/PWM_Claw.c ****     *******************************************************************************/
 555:.\Generated_Source\PSoC5/PWM_Claw.c ****     void PWM_Claw_WriteCompare1(uint16 compare) \
 556:.\Generated_Source\PSoC5/PWM_Claw.c ****                                         
 557:.\Generated_Source\PSoC5/PWM_Claw.c ****     {
 558:.\Generated_Source\PSoC5/PWM_Claw.c ****         #if(PWM_Claw_UsingFixedFunction)
 559:.\Generated_Source\PSoC5/PWM_Claw.c ****             CY_SET_REG16(PWM_Claw_COMPARE1_LSB_PTR, (uint16)compare);
 560:.\Generated_Source\PSoC5/PWM_Claw.c ****         #else
 561:.\Generated_Source\PSoC5/PWM_Claw.c ****             CY_SET_REG16(PWM_Claw_COMPARE1_LSB_PTR, compare);
 562:.\Generated_Source\PSoC5/PWM_Claw.c ****         #endif /* (PWM_Claw_UsingFixedFunction) */
 563:.\Generated_Source\PSoC5/PWM_Claw.c ****     }
 564:.\Generated_Source\PSoC5/PWM_Claw.c **** 
 565:.\Generated_Source\PSoC5/PWM_Claw.c **** 
 566:.\Generated_Source\PSoC5/PWM_Claw.c ****     /*******************************************************************************
 567:.\Generated_Source\PSoC5/PWM_Claw.c ****     * Function Name: PWM_Claw_WriteCompare2
 568:.\Generated_Source\PSoC5/PWM_Claw.c ****     ********************************************************************************
 569:.\Generated_Source\PSoC5/PWM_Claw.c ****     *
 570:.\Generated_Source\PSoC5/PWM_Claw.c ****     * Summary:
 571:.\Generated_Source\PSoC5/PWM_Claw.c ****     *  This funtion is used to change the compare value, for compare1 output.
 572:.\Generated_Source\PSoC5/PWM_Claw.c ****     *  The compare output will reflect the new value on the next UDB clock.
 573:.\Generated_Source\PSoC5/PWM_Claw.c ****     *  The compare output will be driven high when the present counter value is
 574:.\Generated_Source\PSoC5/PWM_Claw.c ****     *  less than or less than or equal to the compare register, depending on the
 575:.\Generated_Source\PSoC5/PWM_Claw.c ****     *  mode.
 576:.\Generated_Source\PSoC5/PWM_Claw.c ****     *
 577:.\Generated_Source\PSoC5/PWM_Claw.c ****     * Parameters:
 578:.\Generated_Source\PSoC5/PWM_Claw.c ****     *  compare:  New compare value.
 579:.\Generated_Source\PSoC5/PWM_Claw.c ****     *
 580:.\Generated_Source\PSoC5/PWM_Claw.c ****     * Return:
 581:.\Generated_Source\PSoC5/PWM_Claw.c ****     *  None
 582:.\Generated_Source\PSoC5/PWM_Claw.c ****     *
 583:.\Generated_Source\PSoC5/PWM_Claw.c ****     *******************************************************************************/
 584:.\Generated_Source\PSoC5/PWM_Claw.c ****     void PWM_Claw_WriteCompare2(uint16 compare) \
 585:.\Generated_Source\PSoC5/PWM_Claw.c ****                                         
 586:.\Generated_Source\PSoC5/PWM_Claw.c ****     {
 587:.\Generated_Source\PSoC5/PWM_Claw.c ****         #if(PWM_Claw_UsingFixedFunction)
 588:.\Generated_Source\PSoC5/PWM_Claw.c ****             CY_SET_REG16(PWM_Claw_COMPARE2_LSB_PTR, compare);
 589:.\Generated_Source\PSoC5/PWM_Claw.c ****         #else
 590:.\Generated_Source\PSoC5/PWM_Claw.c ****             CY_SET_REG16(PWM_Claw_COMPARE2_LSB_PTR, compare);
 591:.\Generated_Source\PSoC5/PWM_Claw.c ****         #endif /* (PWM_Claw_UsingFixedFunction) */
 592:.\Generated_Source\PSoC5/PWM_Claw.c ****     }
 593:.\Generated_Source\PSoC5/PWM_Claw.c **** #endif /* UseOneCompareMode */
 594:.\Generated_Source\PSoC5/PWM_Claw.c **** 
 595:.\Generated_Source\PSoC5/PWM_Claw.c **** #if (PWM_Claw_DeadBandUsed)
 596:.\Generated_Source\PSoC5/PWM_Claw.c **** 
 597:.\Generated_Source\PSoC5/PWM_Claw.c **** 
 598:.\Generated_Source\PSoC5/PWM_Claw.c ****     /*******************************************************************************
 599:.\Generated_Source\PSoC5/PWM_Claw.c ****     * Function Name: PWM_Claw_WriteDeadTime
 600:.\Generated_Source\PSoC5/PWM_Claw.c ****     ********************************************************************************
ARM GAS  D:\TEMP\ccncbz78.s 			page 14


 601:.\Generated_Source\PSoC5/PWM_Claw.c ****     *
 602:.\Generated_Source\PSoC5/PWM_Claw.c ****     * Summary:
 603:.\Generated_Source\PSoC5/PWM_Claw.c ****     *  This function writes the dead-band counts to the corresponding register
 604:.\Generated_Source\PSoC5/PWM_Claw.c ****     *
 605:.\Generated_Source\PSoC5/PWM_Claw.c ****     * Parameters:
 606:.\Generated_Source\PSoC5/PWM_Claw.c ****     *  deadtime:  Number of counts for dead time
 607:.\Generated_Source\PSoC5/PWM_Claw.c ****     *
 608:.\Generated_Source\PSoC5/PWM_Claw.c ****     * Return:
 609:.\Generated_Source\PSoC5/PWM_Claw.c ****     *  None
 610:.\Generated_Source\PSoC5/PWM_Claw.c ****     *
 611:.\Generated_Source\PSoC5/PWM_Claw.c ****     *******************************************************************************/
 612:.\Generated_Source\PSoC5/PWM_Claw.c ****     void PWM_Claw_WriteDeadTime(uint8 deadtime) 
 613:.\Generated_Source\PSoC5/PWM_Claw.c ****     {
 614:.\Generated_Source\PSoC5/PWM_Claw.c ****         /* If using the Dead Band 1-255 mode then just write the register */
 615:.\Generated_Source\PSoC5/PWM_Claw.c ****         #if(!PWM_Claw_DeadBand2_4)
 616:.\Generated_Source\PSoC5/PWM_Claw.c ****             CY_SET_REG8(PWM_Claw_DEADBAND_COUNT_PTR, deadtime);
 617:.\Generated_Source\PSoC5/PWM_Claw.c ****         #else
 618:.\Generated_Source\PSoC5/PWM_Claw.c ****             /* Otherwise the data has to be masked and offset */
 619:.\Generated_Source\PSoC5/PWM_Claw.c ****             /* Clear existing data */
 620:.\Generated_Source\PSoC5/PWM_Claw.c ****             PWM_Claw_DEADBAND_COUNT &= ((uint8)(~PWM_Claw_DEADBAND_COUNT_MASK));
 621:.\Generated_Source\PSoC5/PWM_Claw.c **** 
 622:.\Generated_Source\PSoC5/PWM_Claw.c ****             /* Set new dead time */
 623:.\Generated_Source\PSoC5/PWM_Claw.c ****             #if(PWM_Claw_DEADBAND_COUNT_SHIFT)
 624:.\Generated_Source\PSoC5/PWM_Claw.c ****                 PWM_Claw_DEADBAND_COUNT |= ((uint8)((uint8)deadtime << PWM_Claw_DEADBAND_COUNT_SHIF
 625:.\Generated_Source\PSoC5/PWM_Claw.c ****                                                     PWM_Claw_DEADBAND_COUNT_MASK;
 626:.\Generated_Source\PSoC5/PWM_Claw.c ****             #else
 627:.\Generated_Source\PSoC5/PWM_Claw.c ****                 PWM_Claw_DEADBAND_COUNT |= deadtime & PWM_Claw_DEADBAND_COUNT_MASK;
 628:.\Generated_Source\PSoC5/PWM_Claw.c ****             #endif /* (PWM_Claw_DEADBAND_COUNT_SHIFT) */
 629:.\Generated_Source\PSoC5/PWM_Claw.c **** 
 630:.\Generated_Source\PSoC5/PWM_Claw.c ****         #endif /* (!PWM_Claw_DeadBand2_4) */
 631:.\Generated_Source\PSoC5/PWM_Claw.c ****     }
 632:.\Generated_Source\PSoC5/PWM_Claw.c **** 
 633:.\Generated_Source\PSoC5/PWM_Claw.c **** 
 634:.\Generated_Source\PSoC5/PWM_Claw.c ****     /*******************************************************************************
 635:.\Generated_Source\PSoC5/PWM_Claw.c ****     * Function Name: PWM_Claw_ReadDeadTime
 636:.\Generated_Source\PSoC5/PWM_Claw.c ****     ********************************************************************************
 637:.\Generated_Source\PSoC5/PWM_Claw.c ****     *
 638:.\Generated_Source\PSoC5/PWM_Claw.c ****     * Summary:
 639:.\Generated_Source\PSoC5/PWM_Claw.c ****     *  This function reads the dead-band counts from the corresponding register
 640:.\Generated_Source\PSoC5/PWM_Claw.c ****     *
 641:.\Generated_Source\PSoC5/PWM_Claw.c ****     * Parameters:
 642:.\Generated_Source\PSoC5/PWM_Claw.c ****     *  None
 643:.\Generated_Source\PSoC5/PWM_Claw.c ****     *
 644:.\Generated_Source\PSoC5/PWM_Claw.c ****     * Return:
 645:.\Generated_Source\PSoC5/PWM_Claw.c ****     *  Dead Band Counts
 646:.\Generated_Source\PSoC5/PWM_Claw.c ****     *
 647:.\Generated_Source\PSoC5/PWM_Claw.c ****     *******************************************************************************/
 648:.\Generated_Source\PSoC5/PWM_Claw.c ****     uint8 PWM_Claw_ReadDeadTime(void) 
 649:.\Generated_Source\PSoC5/PWM_Claw.c ****     {
 650:.\Generated_Source\PSoC5/PWM_Claw.c ****         /* If using the Dead Band 1-255 mode then just read the register */
 651:.\Generated_Source\PSoC5/PWM_Claw.c ****         #if(!PWM_Claw_DeadBand2_4)
 652:.\Generated_Source\PSoC5/PWM_Claw.c ****             return (CY_GET_REG8(PWM_Claw_DEADBAND_COUNT_PTR));
 653:.\Generated_Source\PSoC5/PWM_Claw.c ****         #else
 654:.\Generated_Source\PSoC5/PWM_Claw.c **** 
 655:.\Generated_Source\PSoC5/PWM_Claw.c ****             /* Otherwise the data has to be masked and offset */
 656:.\Generated_Source\PSoC5/PWM_Claw.c ****             #if(PWM_Claw_DEADBAND_COUNT_SHIFT)
 657:.\Generated_Source\PSoC5/PWM_Claw.c ****                 return ((uint8)(((uint8)(PWM_Claw_DEADBAND_COUNT & PWM_Claw_DEADBAND_COUNT_MASK)) >
ARM GAS  D:\TEMP\ccncbz78.s 			page 15


 658:.\Generated_Source\PSoC5/PWM_Claw.c ****                                                                            PWM_Claw_DEADBAND_COUNT_
 659:.\Generated_Source\PSoC5/PWM_Claw.c ****             #else
 660:.\Generated_Source\PSoC5/PWM_Claw.c ****                 return (PWM_Claw_DEADBAND_COUNT & PWM_Claw_DEADBAND_COUNT_MASK);
 661:.\Generated_Source\PSoC5/PWM_Claw.c ****             #endif /* (PWM_Claw_DEADBAND_COUNT_SHIFT) */
 662:.\Generated_Source\PSoC5/PWM_Claw.c ****         #endif /* (!PWM_Claw_DeadBand2_4) */
 663:.\Generated_Source\PSoC5/PWM_Claw.c ****     }
 664:.\Generated_Source\PSoC5/PWM_Claw.c **** #endif /* DeadBandUsed */
 665:.\Generated_Source\PSoC5/PWM_Claw.c **** 
 666:.\Generated_Source\PSoC5/PWM_Claw.c **** #if (PWM_Claw_UseStatus || PWM_Claw_UsingFixedFunction)
 667:.\Generated_Source\PSoC5/PWM_Claw.c **** 
 668:.\Generated_Source\PSoC5/PWM_Claw.c **** 
 669:.\Generated_Source\PSoC5/PWM_Claw.c ****     /*******************************************************************************
 670:.\Generated_Source\PSoC5/PWM_Claw.c ****     * Function Name: PWM_Claw_SetInterruptMode
 671:.\Generated_Source\PSoC5/PWM_Claw.c ****     ********************************************************************************
 672:.\Generated_Source\PSoC5/PWM_Claw.c ****     *
 673:.\Generated_Source\PSoC5/PWM_Claw.c ****     * Summary:
 674:.\Generated_Source\PSoC5/PWM_Claw.c ****     *  This function configures the interrupts mask control of theinterrupt
 675:.\Generated_Source\PSoC5/PWM_Claw.c ****     *  source status register.
 676:.\Generated_Source\PSoC5/PWM_Claw.c ****     *
 677:.\Generated_Source\PSoC5/PWM_Claw.c ****     * Parameters:
 678:.\Generated_Source\PSoC5/PWM_Claw.c ****     *  uint8 interruptMode: Bit field containing the interrupt sources enabled
 679:.\Generated_Source\PSoC5/PWM_Claw.c ****     *
 680:.\Generated_Source\PSoC5/PWM_Claw.c ****     * Return:
 681:.\Generated_Source\PSoC5/PWM_Claw.c ****     *  None
 682:.\Generated_Source\PSoC5/PWM_Claw.c ****     *
 683:.\Generated_Source\PSoC5/PWM_Claw.c ****     *******************************************************************************/
 684:.\Generated_Source\PSoC5/PWM_Claw.c ****     void PWM_Claw_SetInterruptMode(uint8 interruptMode) 
 685:.\Generated_Source\PSoC5/PWM_Claw.c ****     {
 686:.\Generated_Source\PSoC5/PWM_Claw.c ****         CY_SET_REG8(PWM_Claw_STATUS_MASK_PTR, interruptMode);
 687:.\Generated_Source\PSoC5/PWM_Claw.c ****     }
 688:.\Generated_Source\PSoC5/PWM_Claw.c **** 
 689:.\Generated_Source\PSoC5/PWM_Claw.c **** 
 690:.\Generated_Source\PSoC5/PWM_Claw.c ****     /*******************************************************************************
 691:.\Generated_Source\PSoC5/PWM_Claw.c ****     * Function Name: PWM_Claw_ReadStatusRegister
 692:.\Generated_Source\PSoC5/PWM_Claw.c ****     ********************************************************************************
 693:.\Generated_Source\PSoC5/PWM_Claw.c ****     *
 694:.\Generated_Source\PSoC5/PWM_Claw.c ****     * Summary:
 695:.\Generated_Source\PSoC5/PWM_Claw.c ****     *  This function returns the current state of the status register.
 696:.\Generated_Source\PSoC5/PWM_Claw.c ****     *
 697:.\Generated_Source\PSoC5/PWM_Claw.c ****     * Parameters:
 698:.\Generated_Source\PSoC5/PWM_Claw.c ****     *  None
 699:.\Generated_Source\PSoC5/PWM_Claw.c ****     *
 700:.\Generated_Source\PSoC5/PWM_Claw.c ****     * Return:
 701:.\Generated_Source\PSoC5/PWM_Claw.c ****     *  uint8 : Current status register value. The status register bits are:
 702:.\Generated_Source\PSoC5/PWM_Claw.c ****     *  [7:6] : Unused(0)
 703:.\Generated_Source\PSoC5/PWM_Claw.c ****     *  [5]   : Kill event output
 704:.\Generated_Source\PSoC5/PWM_Claw.c ****     *  [4]   : FIFO not empty
 705:.\Generated_Source\PSoC5/PWM_Claw.c ****     *  [3]   : FIFO full
 706:.\Generated_Source\PSoC5/PWM_Claw.c ****     *  [2]   : Terminal count
 707:.\Generated_Source\PSoC5/PWM_Claw.c ****     *  [1]   : Compare output 2
 708:.\Generated_Source\PSoC5/PWM_Claw.c ****     *  [0]   : Compare output 1
 709:.\Generated_Source\PSoC5/PWM_Claw.c ****     *
 710:.\Generated_Source\PSoC5/PWM_Claw.c ****     *******************************************************************************/
 711:.\Generated_Source\PSoC5/PWM_Claw.c ****     uint8 PWM_Claw_ReadStatusRegister(void) 
 712:.\Generated_Source\PSoC5/PWM_Claw.c ****     {
 713:.\Generated_Source\PSoC5/PWM_Claw.c ****         return (CY_GET_REG8(PWM_Claw_STATUS_PTR));
 142              		.loc 1 713 0
ARM GAS  D:\TEMP\ccncbz78.s 			page 16


 143 0000 034B     		ldr	r3, .L18
 144 0002 1B78     		ldrb	r3, [r3]	@ zero_extendqisi2
 145              	.LBE15:
 146              	.LBE14:
 455:.\Generated_Source\PSoC5/PWM_Claw.c ****             while(0u != (PWM_Claw_ReadStatusRegister() & PWM_Claw_STATUS_FIFONEMPTY))
 147              		.loc 1 455 0
 148 0004 DB06     		lsls	r3, r3, #27
 149 0006 02D5     		bpl	.L17
 150              	.LBB16:
 151              	.LBB17:
 714:.\Generated_Source\PSoC5/PWM_Claw.c ****     }
 715:.\Generated_Source\PSoC5/PWM_Claw.c **** 
 716:.\Generated_Source\PSoC5/PWM_Claw.c **** #endif /* (PWM_Claw_UseStatus || PWM_Claw_UsingFixedFunction) */
 717:.\Generated_Source\PSoC5/PWM_Claw.c **** 
 718:.\Generated_Source\PSoC5/PWM_Claw.c **** 
 719:.\Generated_Source\PSoC5/PWM_Claw.c **** #if (PWM_Claw_UseControl)
 720:.\Generated_Source\PSoC5/PWM_Claw.c **** 
 721:.\Generated_Source\PSoC5/PWM_Claw.c **** 
 722:.\Generated_Source\PSoC5/PWM_Claw.c ****     /*******************************************************************************
 723:.\Generated_Source\PSoC5/PWM_Claw.c ****     * Function Name: PWM_Claw_ReadControlRegister
 724:.\Generated_Source\PSoC5/PWM_Claw.c ****     ********************************************************************************
 725:.\Generated_Source\PSoC5/PWM_Claw.c ****     *
 726:.\Generated_Source\PSoC5/PWM_Claw.c ****     * Summary:
 727:.\Generated_Source\PSoC5/PWM_Claw.c ****     *  Returns the current state of the control register. This API is available
 728:.\Generated_Source\PSoC5/PWM_Claw.c ****     *  only if the control register is not removed.
 729:.\Generated_Source\PSoC5/PWM_Claw.c ****     *
 730:.\Generated_Source\PSoC5/PWM_Claw.c ****     * Parameters:
 731:.\Generated_Source\PSoC5/PWM_Claw.c ****     *  None
 732:.\Generated_Source\PSoC5/PWM_Claw.c ****     *
 733:.\Generated_Source\PSoC5/PWM_Claw.c ****     * Return:
 734:.\Generated_Source\PSoC5/PWM_Claw.c ****     *  uint8 : Current control register value
 735:.\Generated_Source\PSoC5/PWM_Claw.c ****     *
 736:.\Generated_Source\PSoC5/PWM_Claw.c ****     *******************************************************************************/
 737:.\Generated_Source\PSoC5/PWM_Claw.c ****     uint8 PWM_Claw_ReadControlRegister(void) 
 738:.\Generated_Source\PSoC5/PWM_Claw.c ****     {
 739:.\Generated_Source\PSoC5/PWM_Claw.c ****         uint8 result;
 740:.\Generated_Source\PSoC5/PWM_Claw.c **** 
 741:.\Generated_Source\PSoC5/PWM_Claw.c ****         result = CY_GET_REG8(PWM_Claw_CONTROL_PTR);
 742:.\Generated_Source\PSoC5/PWM_Claw.c ****         return (result);
 743:.\Generated_Source\PSoC5/PWM_Claw.c ****     }
 744:.\Generated_Source\PSoC5/PWM_Claw.c **** 
 745:.\Generated_Source\PSoC5/PWM_Claw.c **** 
 746:.\Generated_Source\PSoC5/PWM_Claw.c ****     /*******************************************************************************
 747:.\Generated_Source\PSoC5/PWM_Claw.c ****     * Function Name: PWM_Claw_WriteControlRegister
 748:.\Generated_Source\PSoC5/PWM_Claw.c ****     ********************************************************************************
 749:.\Generated_Source\PSoC5/PWM_Claw.c ****     *
 750:.\Generated_Source\PSoC5/PWM_Claw.c ****     * Summary:
 751:.\Generated_Source\PSoC5/PWM_Claw.c ****     *  Sets the bit field of the control register. This API is available only if
 752:.\Generated_Source\PSoC5/PWM_Claw.c ****     *  the control register is not removed.
 753:.\Generated_Source\PSoC5/PWM_Claw.c ****     *
 754:.\Generated_Source\PSoC5/PWM_Claw.c ****     * Parameters:
 755:.\Generated_Source\PSoC5/PWM_Claw.c ****     *  uint8 control: Control register bit field, The status register bits are:
 756:.\Generated_Source\PSoC5/PWM_Claw.c ****     *  [7]   : PWM Enable
 757:.\Generated_Source\PSoC5/PWM_Claw.c ****     *  [6]   : Reset
 758:.\Generated_Source\PSoC5/PWM_Claw.c ****     *  [5:3] : Compare Mode2
 759:.\Generated_Source\PSoC5/PWM_Claw.c ****     *  [2:0] : Compare Mode2
 760:.\Generated_Source\PSoC5/PWM_Claw.c ****     *
ARM GAS  D:\TEMP\ccncbz78.s 			page 17


 761:.\Generated_Source\PSoC5/PWM_Claw.c ****     * Return:
 762:.\Generated_Source\PSoC5/PWM_Claw.c ****     *  None
 763:.\Generated_Source\PSoC5/PWM_Claw.c ****     *
 764:.\Generated_Source\PSoC5/PWM_Claw.c ****     *******************************************************************************/
 765:.\Generated_Source\PSoC5/PWM_Claw.c ****     void PWM_Claw_WriteControlRegister(uint8 control) 
 766:.\Generated_Source\PSoC5/PWM_Claw.c ****     {
 767:.\Generated_Source\PSoC5/PWM_Claw.c ****         CY_SET_REG8(PWM_Claw_CONTROL_PTR, control);
 768:.\Generated_Source\PSoC5/PWM_Claw.c ****     }
 769:.\Generated_Source\PSoC5/PWM_Claw.c **** 
 770:.\Generated_Source\PSoC5/PWM_Claw.c **** #endif /* (PWM_Claw_UseControl) */
 771:.\Generated_Source\PSoC5/PWM_Claw.c **** 
 772:.\Generated_Source\PSoC5/PWM_Claw.c **** 
 773:.\Generated_Source\PSoC5/PWM_Claw.c **** #if (!PWM_Claw_UsingFixedFunction)
 774:.\Generated_Source\PSoC5/PWM_Claw.c **** 
 775:.\Generated_Source\PSoC5/PWM_Claw.c **** 
 776:.\Generated_Source\PSoC5/PWM_Claw.c ****     /*******************************************************************************
 777:.\Generated_Source\PSoC5/PWM_Claw.c ****     * Function Name: PWM_Claw_ReadCapture
 778:.\Generated_Source\PSoC5/PWM_Claw.c ****     ********************************************************************************
 779:.\Generated_Source\PSoC5/PWM_Claw.c ****     *
 780:.\Generated_Source\PSoC5/PWM_Claw.c ****     * Summary:
 781:.\Generated_Source\PSoC5/PWM_Claw.c ****     *  Reads the capture value from the capture FIFO.
 782:.\Generated_Source\PSoC5/PWM_Claw.c ****     *
 783:.\Generated_Source\PSoC5/PWM_Claw.c ****     * Parameters:
 784:.\Generated_Source\PSoC5/PWM_Claw.c ****     *  None
 785:.\Generated_Source\PSoC5/PWM_Claw.c ****     *
 786:.\Generated_Source\PSoC5/PWM_Claw.c ****     * Return:
 787:.\Generated_Source\PSoC5/PWM_Claw.c ****     *  uint8/uint16: The current capture value
 788:.\Generated_Source\PSoC5/PWM_Claw.c ****     *
 789:.\Generated_Source\PSoC5/PWM_Claw.c ****     *******************************************************************************/
 790:.\Generated_Source\PSoC5/PWM_Claw.c ****     uint16 PWM_Claw_ReadCapture(void) 
 791:.\Generated_Source\PSoC5/PWM_Claw.c ****     {
 792:.\Generated_Source\PSoC5/PWM_Claw.c ****         return (CY_GET_REG16(PWM_Claw_CAPTURE_LSB_PTR));
 152              		.loc 1 792 0
 153 0008 024B     		ldr	r3, .L18+4
 154 000a 1B88     		ldrh	r3, [r3]
 155 000c F8E7     		b	.L14
 156              	.L17:
 157              	.LBE17:
 158              	.LBE16:
 459:.\Generated_Source\PSoC5/PWM_Claw.c **** 
 159              		.loc 1 459 0
 160 000e 7047     		bx	lr
 161              	.L19:
 162              		.align	2
 163              	.L18:
 164 0010 61640040 		.word	1073767521
 165 0014 A0680040 		.word	1073768608
 166              		.cfi_endproc
 167              	.LFE6:
 168              		.size	PWM_Claw_ClearFIFO, .-PWM_Claw_ClearFIFO
 169              		.section	.text.PWM_Claw_Init,"ax",%progbits
 170              		.align	1
 171              		.global	PWM_Claw_Init
 172              		.thumb
 173              		.thumb_func
 174              		.type	PWM_Claw_Init, %function
 175              	PWM_Claw_Init:
ARM GAS  D:\TEMP\ccncbz78.s 			page 18


 176              	.LFB1:
  85:.\Generated_Source\PSoC5/PWM_Claw.c ****     #if (PWM_Claw_UsingFixedFunction || PWM_Claw_UseControl)
 177              		.loc 1 85 0
 178              		.cfi_startproc
 179              		@ args = 0, pretend = 0, frame = 0
 180              		@ frame_needed = 0, uses_anonymous_args = 0
 181 0000 10B5     		push	{r4, lr}
 182              		.cfi_def_cfa_offset 8
 183              		.cfi_offset 4, -8
 184              		.cfi_offset 14, -4
 117:.\Generated_Source\PSoC5/PWM_Claw.c ****                 ((uint8)(~PWM_Claw_CTRL_CMPMODE1_MASK));
 185              		.loc 1 117 0
 186 0002 144A     		ldr	r2, .L21
 130:.\Generated_Source\PSoC5/PWM_Claw.c ****         #endif /* (PWM_Claw_Resolution == 8) */
 187              		.loc 1 130 0
 188 0004 144C     		ldr	r4, .L21+4
 117:.\Generated_Source\PSoC5/PWM_Claw.c ****                 ((uint8)(~PWM_Claw_CTRL_CMPMODE1_MASK));
 189              		.loc 1 117 0
 190 0006 1378     		ldrb	r3, [r2]	@ zero_extendqisi2
 191              	.LVL1:
 192 0008 03F0C003 		and	r3, r3, #192
 193              	.LVL2:
 119:.\Generated_Source\PSoC5/PWM_Claw.c ****                                    PWM_Claw_DEFAULT_COMPARE1_MODE;
 194              		.loc 1 119 0
 195 000c 43F00903 		orr	r3, r3, #9
 196 0010 1370     		strb	r3, [r2]
 129:.\Generated_Source\PSoC5/PWM_Claw.c ****             PWM_Claw_AUX_CONTROLDP1 |= (PWM_Claw_AUX_CTRL_FIFO0_CLR);
 197              		.loc 1 129 0
 198 0012 937F     		ldrb	r3, [r2, #30]	@ zero_extendqisi2
 199 0014 43F00103 		orr	r3, r3, #1
 200 0018 9377     		strb	r3, [r2, #30]
 130:.\Generated_Source\PSoC5/PWM_Claw.c ****         #endif /* (PWM_Claw_Resolution == 8) */
 201              		.loc 1 130 0
 202 001a 2378     		ldrb	r3, [r4]	@ zero_extendqisi2
 203 001c 43F00103 		orr	r3, r3, #1
 204 0020 2370     		strb	r3, [r4]
 205              	.LVL3:
 206              	.LBB18:
 207              	.LBB19:
 406:.\Generated_Source\PSoC5/PWM_Claw.c ****     }
 208              		.loc 1 406 0
 209 0022 40F2CF73 		movw	r3, #1999
 210 0026 A2F88E33 		strh	r3, [r2, #910]	@ movhi
 211              	.LVL4:
 212              	.LBE19:
 213              	.LBE18:
 214              	.LBB20:
 215              	.LBB21:
 487:.\Generated_Source\PSoC5/PWM_Claw.c ****     #endif /* (PWM_Claw_UsingFixedFunction) */
 216              		.loc 1 487 0
 217 002a A2F80E34 		strh	r3, [r2, #1038]	@ movhi
 218              	.LVL5:
 219              	.LBE21:
 220              	.LBE20:
 221              	.LBB22:
 222              	.LBB23:
 522:.\Generated_Source\PSoC5/PWM_Claw.c ****         #endif /* (PWM_Claw_UsingFixedFunction) */
ARM GAS  D:\TEMP\ccncbz78.s 			page 19


 223              		.loc 1 522 0
 224 002e 0B4B     		ldr	r3, .L21+8
 225 0030 5022     		movs	r2, #80
 226 0032 1A80     		strh	r2, [r3]	@ movhi
 227              	.LVL6:
 228              	.LBE23:
 229              	.LBE22:
 230              	.LBB24:
 231              	.LBB25:
 686:.\Generated_Source\PSoC5/PWM_Claw.c ****     }
 232              		.loc 1 686 0
 233 0034 0022     		movs	r2, #0
 234 0036 A3F2BF33 		subw	r3, r3, #959
 235 003a 1A70     		strb	r2, [r3]
 236              	.LBE25:
 237              	.LBE24:
 167:.\Generated_Source\PSoC5/PWM_Claw.c ****             /* Use the interrupt output of the status register for IRQ output */
 238              		.loc 1 167 0
 239 003c FFF7FEFF 		bl	CyEnterCriticalSection
 240              	.LVL7:
 169:.\Generated_Source\PSoC5/PWM_Claw.c **** 
 241              		.loc 1 169 0
 242 0040 2378     		ldrb	r3, [r4]	@ zero_extendqisi2
 243 0042 43F01003 		orr	r3, r3, #16
 244 0046 2370     		strb	r3, [r4]
 172:.\Generated_Source\PSoC5/PWM_Claw.c **** 
 245              		.loc 1 172 0
 246 0048 FFF7FEFF 		bl	CyExitCriticalSection
 247              	.LVL8:
 179:.\Generated_Source\PSoC5/PWM_Claw.c **** 
 248              		.loc 1 179 0
 249 004c BDE81040 		pop	{r4, lr}
 250              		.cfi_restore 14
 251              		.cfi_restore 4
 252              		.cfi_def_cfa_offset 0
 176:.\Generated_Source\PSoC5/PWM_Claw.c ****         #endif /* (PWM_Claw_UseStatus) */
 253              		.loc 1 176 0
 254 0050 FFF7FEBF 		b	PWM_Claw_ClearFIFO
 255              	.LVL9:
 256              	.L22:
 257              		.align	2
 258              	.L21:
 259 0054 72640040 		.word	1073767538
 260 0058 91640040 		.word	1073767569
 261 005c 40680040 		.word	1073768512
 262              		.cfi_endproc
 263              	.LFE1:
 264              		.size	PWM_Claw_Init, .-PWM_Claw_Init
 265              		.section	.text.PWM_Claw_Start,"ax",%progbits
 266              		.align	1
 267              		.global	PWM_Claw_Start
 268              		.thumb
 269              		.thumb_func
 270              		.type	PWM_Claw_Start, %function
 271              	PWM_Claw_Start:
 272              	.LFB0:
  56:.\Generated_Source\PSoC5/PWM_Claw.c ****     /* If not Initialized then initialize all required hardware and software */
ARM GAS  D:\TEMP\ccncbz78.s 			page 20


 273              		.loc 1 56 0
 274              		.cfi_startproc
 275              		@ args = 0, pretend = 0, frame = 0
 276              		@ frame_needed = 0, uses_anonymous_args = 0
 277 0000 10B5     		push	{r4, lr}
 278              		.cfi_def_cfa_offset 8
 279              		.cfi_offset 4, -8
 280              		.cfi_offset 14, -4
  58:.\Generated_Source\PSoC5/PWM_Claw.c ****     {
 281              		.loc 1 58 0
 282 0002 054C     		ldr	r4, .L25
 283 0004 2378     		ldrb	r3, [r4]	@ zero_extendqisi2
 284 0006 1BB9     		cbnz	r3, .L24
  60:.\Generated_Source\PSoC5/PWM_Claw.c ****         PWM_Claw_initVar = 1u;
 285              		.loc 1 60 0
 286 0008 FFF7FEFF 		bl	PWM_Claw_Init
 287              	.LVL10:
  61:.\Generated_Source\PSoC5/PWM_Claw.c ****     }
 288              		.loc 1 61 0
 289 000c 0123     		movs	r3, #1
 290 000e 2370     		strb	r3, [r4]
 291              	.L24:
  65:.\Generated_Source\PSoC5/PWM_Claw.c **** 
 292              		.loc 1 65 0
 293 0010 BDE81040 		pop	{r4, lr}
 294              		.cfi_restore 14
 295              		.cfi_restore 4
 296              		.cfi_def_cfa_offset 0
  63:.\Generated_Source\PSoC5/PWM_Claw.c **** 
 297              		.loc 1 63 0
 298 0014 FFF7FEBF 		b	PWM_Claw_Enable
 299              	.LVL11:
 300              	.L26:
 301              		.align	2
 302              	.L25:
 303 0018 00000000 		.word	.LANCHOR0
 304              		.cfi_endproc
 305              	.LFE0:
 306              		.size	PWM_Claw_Start, .-PWM_Claw_Start
 307              		.section	.text.PWM_Claw_WritePeriod,"ax",%progbits
 308              		.align	1
 309              		.global	PWM_Claw_WritePeriod
 310              		.thumb
 311              		.thumb_func
 312              		.type	PWM_Claw_WritePeriod, %function
 313              	PWM_Claw_WritePeriod:
 314              	.LFB7:
 483:.\Generated_Source\PSoC5/PWM_Claw.c ****     #if(PWM_Claw_UsingFixedFunction)
 315              		.loc 1 483 0
 316              		.cfi_startproc
 317              		@ args = 0, pretend = 0, frame = 0
 318              		@ frame_needed = 0, uses_anonymous_args = 0
 319              		@ link register save eliminated.
 320              	.LVL12:
 487:.\Generated_Source\PSoC5/PWM_Claw.c ****     #endif /* (PWM_Claw_UsingFixedFunction) */
 321              		.loc 1 487 0
 322 0000 014B     		ldr	r3, .L28
ARM GAS  D:\TEMP\ccncbz78.s 			page 21


 323 0002 1880     		strh	r0, [r3]	@ movhi
 324 0004 7047     		bx	lr
 325              	.L29:
 326 0006 00BF     		.align	2
 327              	.L28:
 328 0008 80680040 		.word	1073768576
 329              		.cfi_endproc
 330              	.LFE7:
 331              		.size	PWM_Claw_WritePeriod, .-PWM_Claw_WritePeriod
 332              		.section	.text.PWM_Claw_WriteCompare,"ax",%progbits
 333              		.align	1
 334              		.global	PWM_Claw_WriteCompare
 335              		.thumb
 336              		.thumb_func
 337              		.type	PWM_Claw_WriteCompare, %function
 338              	PWM_Claw_WriteCompare:
 339              	.LFB8:
 518:.\Generated_Source\PSoC5/PWM_Claw.c ****         #if(PWM_Claw_UsingFixedFunction)
 340              		.loc 1 518 0
 341              		.cfi_startproc
 342              		@ args = 0, pretend = 0, frame = 0
 343              		@ frame_needed = 0, uses_anonymous_args = 0
 344              		@ link register save eliminated.
 345              	.LVL13:
 522:.\Generated_Source\PSoC5/PWM_Claw.c ****         #endif /* (PWM_Claw_UsingFixedFunction) */
 346              		.loc 1 522 0
 347 0000 014B     		ldr	r3, .L31
 348 0002 1880     		strh	r0, [r3]	@ movhi
 349 0004 7047     		bx	lr
 350              	.L32:
 351 0006 00BF     		.align	2
 352              	.L31:
 353 0008 40680040 		.word	1073768512
 354              		.cfi_endproc
 355              	.LFE8:
 356              		.size	PWM_Claw_WriteCompare, .-PWM_Claw_WriteCompare
 357              		.section	.text.PWM_Claw_SetInterruptMode,"ax",%progbits
 358              		.align	1
 359              		.global	PWM_Claw_SetInterruptMode
 360              		.thumb
 361              		.thumb_func
 362              		.type	PWM_Claw_SetInterruptMode, %function
 363              	PWM_Claw_SetInterruptMode:
 364              	.LFB9:
 685:.\Generated_Source\PSoC5/PWM_Claw.c ****         CY_SET_REG8(PWM_Claw_STATUS_MASK_PTR, interruptMode);
 365              		.loc 1 685 0
 366              		.cfi_startproc
 367              		@ args = 0, pretend = 0, frame = 0
 368              		@ frame_needed = 0, uses_anonymous_args = 0
 369              		@ link register save eliminated.
 370              	.LVL14:
 686:.\Generated_Source\PSoC5/PWM_Claw.c ****     }
 371              		.loc 1 686 0
 372 0000 014B     		ldr	r3, .L34
 373 0002 1870     		strb	r0, [r3]
 374 0004 7047     		bx	lr
 375              	.L35:
ARM GAS  D:\TEMP\ccncbz78.s 			page 22


 376 0006 00BF     		.align	2
 377              	.L34:
 378 0008 81640040 		.word	1073767553
 379              		.cfi_endproc
 380              	.LFE9:
 381              		.size	PWM_Claw_SetInterruptMode, .-PWM_Claw_SetInterruptMode
 382              		.section	.text.PWM_Claw_ReadStatusRegister,"ax",%progbits
 383              		.align	1
 384              		.global	PWM_Claw_ReadStatusRegister
 385              		.thumb
 386              		.thumb_func
 387              		.type	PWM_Claw_ReadStatusRegister, %function
 388              	PWM_Claw_ReadStatusRegister:
 389              	.LFB10:
 712:.\Generated_Source\PSoC5/PWM_Claw.c ****         return (CY_GET_REG8(PWM_Claw_STATUS_PTR));
 390              		.loc 1 712 0
 391              		.cfi_startproc
 392              		@ args = 0, pretend = 0, frame = 0
 393              		@ frame_needed = 0, uses_anonymous_args = 0
 394              		@ link register save eliminated.
 713:.\Generated_Source\PSoC5/PWM_Claw.c ****     }
 395              		.loc 1 713 0
 396 0000 014B     		ldr	r3, .L37
 397 0002 1878     		ldrb	r0, [r3]	@ zero_extendqisi2
 714:.\Generated_Source\PSoC5/PWM_Claw.c **** 
 398              		.loc 1 714 0
 399 0004 7047     		bx	lr
 400              	.L38:
 401 0006 00BF     		.align	2
 402              	.L37:
 403 0008 61640040 		.word	1073767521
 404              		.cfi_endproc
 405              	.LFE10:
 406              		.size	PWM_Claw_ReadStatusRegister, .-PWM_Claw_ReadStatusRegister
 407              		.section	.text.PWM_Claw_ReadControlRegister,"ax",%progbits
 408              		.align	1
 409              		.global	PWM_Claw_ReadControlRegister
 410              		.thumb
 411              		.thumb_func
 412              		.type	PWM_Claw_ReadControlRegister, %function
 413              	PWM_Claw_ReadControlRegister:
 414              	.LFB11:
 738:.\Generated_Source\PSoC5/PWM_Claw.c ****         uint8 result;
 415              		.loc 1 738 0
 416              		.cfi_startproc
 417              		@ args = 0, pretend = 0, frame = 0
 418              		@ frame_needed = 0, uses_anonymous_args = 0
 419              		@ link register save eliminated.
 741:.\Generated_Source\PSoC5/PWM_Claw.c ****         return (result);
 420              		.loc 1 741 0
 421 0000 014B     		ldr	r3, .L40
 422 0002 1878     		ldrb	r0, [r3]	@ zero_extendqisi2
 423              	.LVL15:
 743:.\Generated_Source\PSoC5/PWM_Claw.c **** 
 424              		.loc 1 743 0
 425 0004 7047     		bx	lr
 426              	.L41:
ARM GAS  D:\TEMP\ccncbz78.s 			page 23


 427 0006 00BF     		.align	2
 428              	.L40:
 429 0008 72640040 		.word	1073767538
 430              		.cfi_endproc
 431              	.LFE11:
 432              		.size	PWM_Claw_ReadControlRegister, .-PWM_Claw_ReadControlRegister
 433              		.section	.text.PWM_Claw_WriteControlRegister,"ax",%progbits
 434              		.align	1
 435              		.global	PWM_Claw_WriteControlRegister
 436              		.thumb
 437              		.thumb_func
 438              		.type	PWM_Claw_WriteControlRegister, %function
 439              	PWM_Claw_WriteControlRegister:
 440              	.LFB12:
 766:.\Generated_Source\PSoC5/PWM_Claw.c ****         CY_SET_REG8(PWM_Claw_CONTROL_PTR, control);
 441              		.loc 1 766 0
 442              		.cfi_startproc
 443              		@ args = 0, pretend = 0, frame = 0
 444              		@ frame_needed = 0, uses_anonymous_args = 0
 445              		@ link register save eliminated.
 446              	.LVL16:
 767:.\Generated_Source\PSoC5/PWM_Claw.c ****     }
 447              		.loc 1 767 0
 448 0000 014B     		ldr	r3, .L43
 449 0002 1870     		strb	r0, [r3]
 450 0004 7047     		bx	lr
 451              	.L44:
 452 0006 00BF     		.align	2
 453              	.L43:
 454 0008 72640040 		.word	1073767538
 455              		.cfi_endproc
 456              	.LFE12:
 457              		.size	PWM_Claw_WriteControlRegister, .-PWM_Claw_WriteControlRegister
 458              		.section	.text.PWM_Claw_ReadCapture,"ax",%progbits
 459              		.align	1
 460              		.global	PWM_Claw_ReadCapture
 461              		.thumb
 462              		.thumb_func
 463              		.type	PWM_Claw_ReadCapture, %function
 464              	PWM_Claw_ReadCapture:
 465              	.LFB13:
 791:.\Generated_Source\PSoC5/PWM_Claw.c ****         return (CY_GET_REG16(PWM_Claw_CAPTURE_LSB_PTR));
 466              		.loc 1 791 0
 467              		.cfi_startproc
 468              		@ args = 0, pretend = 0, frame = 0
 469              		@ frame_needed = 0, uses_anonymous_args = 0
 470              		@ link register save eliminated.
 471              		.loc 1 792 0
 472 0000 014B     		ldr	r3, .L46
 473 0002 1888     		ldrh	r0, [r3]
 793:.\Generated_Source\PSoC5/PWM_Claw.c ****     }
 474              		.loc 1 793 0
 475 0004 80B2     		uxth	r0, r0
 476 0006 7047     		bx	lr
 477              	.L47:
 478              		.align	2
 479              	.L46:
ARM GAS  D:\TEMP\ccncbz78.s 			page 24


 480 0008 A0680040 		.word	1073768608
 481              		.cfi_endproc
 482              	.LFE13:
 483              		.size	PWM_Claw_ReadCapture, .-PWM_Claw_ReadCapture
 484              		.section	.text.PWM_Claw_ReadCompare,"ax",%progbits
 485              		.align	1
 486              		.global	PWM_Claw_ReadCompare
 487              		.thumb
 488              		.thumb_func
 489              		.type	PWM_Claw_ReadCompare, %function
 490              	PWM_Claw_ReadCompare:
 491              	.LFB14:
 794:.\Generated_Source\PSoC5/PWM_Claw.c **** 
 795:.\Generated_Source\PSoC5/PWM_Claw.c **** #endif /* (!PWM_Claw_UsingFixedFunction) */
 796:.\Generated_Source\PSoC5/PWM_Claw.c **** 
 797:.\Generated_Source\PSoC5/PWM_Claw.c **** 
 798:.\Generated_Source\PSoC5/PWM_Claw.c **** #if (PWM_Claw_UseOneCompareMode)
 799:.\Generated_Source\PSoC5/PWM_Claw.c **** 
 800:.\Generated_Source\PSoC5/PWM_Claw.c **** 
 801:.\Generated_Source\PSoC5/PWM_Claw.c ****     /*******************************************************************************
 802:.\Generated_Source\PSoC5/PWM_Claw.c ****     * Function Name: PWM_Claw_ReadCompare
 803:.\Generated_Source\PSoC5/PWM_Claw.c ****     ********************************************************************************
 804:.\Generated_Source\PSoC5/PWM_Claw.c ****     *
 805:.\Generated_Source\PSoC5/PWM_Claw.c ****     * Summary:
 806:.\Generated_Source\PSoC5/PWM_Claw.c ****     *  Reads the compare value for the compare output when the PWM Mode parameter is
 807:.\Generated_Source\PSoC5/PWM_Claw.c ****     *  set to Dither mode, Center Aligned mode, or One Output mode.
 808:.\Generated_Source\PSoC5/PWM_Claw.c ****     *
 809:.\Generated_Source\PSoC5/PWM_Claw.c ****     * Parameters:
 810:.\Generated_Source\PSoC5/PWM_Claw.c ****     *  None
 811:.\Generated_Source\PSoC5/PWM_Claw.c ****     *
 812:.\Generated_Source\PSoC5/PWM_Claw.c ****     * Return:
 813:.\Generated_Source\PSoC5/PWM_Claw.c ****     *  uint8/uint16: Current compare value
 814:.\Generated_Source\PSoC5/PWM_Claw.c ****     *
 815:.\Generated_Source\PSoC5/PWM_Claw.c ****     *******************************************************************************/
 816:.\Generated_Source\PSoC5/PWM_Claw.c ****     uint16 PWM_Claw_ReadCompare(void) 
 817:.\Generated_Source\PSoC5/PWM_Claw.c ****     {
 492              		.loc 1 817 0
 493              		.cfi_startproc
 494              		@ args = 0, pretend = 0, frame = 0
 495              		@ frame_needed = 0, uses_anonymous_args = 0
 496              		@ link register save eliminated.
 818:.\Generated_Source\PSoC5/PWM_Claw.c ****         #if(PWM_Claw_UsingFixedFunction)
 819:.\Generated_Source\PSoC5/PWM_Claw.c ****             return ((uint16)CY_GET_REG16(PWM_Claw_COMPARE1_LSB_PTR));
 820:.\Generated_Source\PSoC5/PWM_Claw.c ****         #else
 821:.\Generated_Source\PSoC5/PWM_Claw.c ****             return (CY_GET_REG16(PWM_Claw_COMPARE1_LSB_PTR));
 497              		.loc 1 821 0
 498 0000 014B     		ldr	r3, .L49
 499 0002 1888     		ldrh	r0, [r3]
 822:.\Generated_Source\PSoC5/PWM_Claw.c ****         #endif /* (PWM_Claw_UsingFixedFunction) */
 823:.\Generated_Source\PSoC5/PWM_Claw.c ****     }
 500              		.loc 1 823 0
 501 0004 80B2     		uxth	r0, r0
 502 0006 7047     		bx	lr
 503              	.L50:
 504              		.align	2
 505              	.L49:
 506 0008 40680040 		.word	1073768512
ARM GAS  D:\TEMP\ccncbz78.s 			page 25


 507              		.cfi_endproc
 508              	.LFE14:
 509              		.size	PWM_Claw_ReadCompare, .-PWM_Claw_ReadCompare
 510              		.section	.text.PWM_Claw_ReadPeriod,"ax",%progbits
 511              		.align	1
 512              		.global	PWM_Claw_ReadPeriod
 513              		.thumb
 514              		.thumb_func
 515              		.type	PWM_Claw_ReadPeriod, %function
 516              	PWM_Claw_ReadPeriod:
 517              	.LFB15:
 824:.\Generated_Source\PSoC5/PWM_Claw.c **** 
 825:.\Generated_Source\PSoC5/PWM_Claw.c **** #else
 826:.\Generated_Source\PSoC5/PWM_Claw.c **** 
 827:.\Generated_Source\PSoC5/PWM_Claw.c **** 
 828:.\Generated_Source\PSoC5/PWM_Claw.c ****     /*******************************************************************************
 829:.\Generated_Source\PSoC5/PWM_Claw.c ****     * Function Name: PWM_Claw_ReadCompare1
 830:.\Generated_Source\PSoC5/PWM_Claw.c ****     ********************************************************************************
 831:.\Generated_Source\PSoC5/PWM_Claw.c ****     *
 832:.\Generated_Source\PSoC5/PWM_Claw.c ****     * Summary:
 833:.\Generated_Source\PSoC5/PWM_Claw.c ****     *  Reads the compare value for the compare1 output.
 834:.\Generated_Source\PSoC5/PWM_Claw.c ****     *
 835:.\Generated_Source\PSoC5/PWM_Claw.c ****     * Parameters:
 836:.\Generated_Source\PSoC5/PWM_Claw.c ****     *  None
 837:.\Generated_Source\PSoC5/PWM_Claw.c ****     *
 838:.\Generated_Source\PSoC5/PWM_Claw.c ****     * Return:
 839:.\Generated_Source\PSoC5/PWM_Claw.c ****     *  uint8/uint16: Current compare value.
 840:.\Generated_Source\PSoC5/PWM_Claw.c ****     *
 841:.\Generated_Source\PSoC5/PWM_Claw.c ****     *******************************************************************************/
 842:.\Generated_Source\PSoC5/PWM_Claw.c ****     uint16 PWM_Claw_ReadCompare1(void) 
 843:.\Generated_Source\PSoC5/PWM_Claw.c ****     {
 844:.\Generated_Source\PSoC5/PWM_Claw.c ****         return (CY_GET_REG16(PWM_Claw_COMPARE1_LSB_PTR));
 845:.\Generated_Source\PSoC5/PWM_Claw.c ****     }
 846:.\Generated_Source\PSoC5/PWM_Claw.c **** 
 847:.\Generated_Source\PSoC5/PWM_Claw.c **** 
 848:.\Generated_Source\PSoC5/PWM_Claw.c ****     /*******************************************************************************
 849:.\Generated_Source\PSoC5/PWM_Claw.c ****     * Function Name: PWM_Claw_ReadCompare2
 850:.\Generated_Source\PSoC5/PWM_Claw.c ****     ********************************************************************************
 851:.\Generated_Source\PSoC5/PWM_Claw.c ****     *
 852:.\Generated_Source\PSoC5/PWM_Claw.c ****     * Summary:
 853:.\Generated_Source\PSoC5/PWM_Claw.c ****     *  Reads the compare value for the compare2 output.
 854:.\Generated_Source\PSoC5/PWM_Claw.c ****     *
 855:.\Generated_Source\PSoC5/PWM_Claw.c ****     * Parameters:
 856:.\Generated_Source\PSoC5/PWM_Claw.c ****     *  None
 857:.\Generated_Source\PSoC5/PWM_Claw.c ****     *
 858:.\Generated_Source\PSoC5/PWM_Claw.c ****     * Return:
 859:.\Generated_Source\PSoC5/PWM_Claw.c ****     *  uint8/uint16: Current compare value.
 860:.\Generated_Source\PSoC5/PWM_Claw.c ****     *
 861:.\Generated_Source\PSoC5/PWM_Claw.c ****     *******************************************************************************/
 862:.\Generated_Source\PSoC5/PWM_Claw.c ****     uint16 PWM_Claw_ReadCompare2(void) 
 863:.\Generated_Source\PSoC5/PWM_Claw.c ****     {
 864:.\Generated_Source\PSoC5/PWM_Claw.c ****         return (CY_GET_REG16(PWM_Claw_COMPARE2_LSB_PTR));
 865:.\Generated_Source\PSoC5/PWM_Claw.c ****     }
 866:.\Generated_Source\PSoC5/PWM_Claw.c **** 
 867:.\Generated_Source\PSoC5/PWM_Claw.c **** #endif /* (PWM_Claw_UseOneCompareMode) */
 868:.\Generated_Source\PSoC5/PWM_Claw.c **** 
 869:.\Generated_Source\PSoC5/PWM_Claw.c **** 
ARM GAS  D:\TEMP\ccncbz78.s 			page 26


 870:.\Generated_Source\PSoC5/PWM_Claw.c **** /*******************************************************************************
 871:.\Generated_Source\PSoC5/PWM_Claw.c **** * Function Name: PWM_Claw_ReadPeriod
 872:.\Generated_Source\PSoC5/PWM_Claw.c **** ********************************************************************************
 873:.\Generated_Source\PSoC5/PWM_Claw.c **** *
 874:.\Generated_Source\PSoC5/PWM_Claw.c **** * Summary:
 875:.\Generated_Source\PSoC5/PWM_Claw.c **** *  Reads the period value used by the PWM hardware.
 876:.\Generated_Source\PSoC5/PWM_Claw.c **** *
 877:.\Generated_Source\PSoC5/PWM_Claw.c **** * Parameters:
 878:.\Generated_Source\PSoC5/PWM_Claw.c **** *  None
 879:.\Generated_Source\PSoC5/PWM_Claw.c **** *
 880:.\Generated_Source\PSoC5/PWM_Claw.c **** * Return:
 881:.\Generated_Source\PSoC5/PWM_Claw.c **** *  uint8/16: Period value
 882:.\Generated_Source\PSoC5/PWM_Claw.c **** *
 883:.\Generated_Source\PSoC5/PWM_Claw.c **** *******************************************************************************/
 884:.\Generated_Source\PSoC5/PWM_Claw.c **** uint16 PWM_Claw_ReadPeriod(void) 
 885:.\Generated_Source\PSoC5/PWM_Claw.c **** {
 518              		.loc 1 885 0
 519              		.cfi_startproc
 520              		@ args = 0, pretend = 0, frame = 0
 521              		@ frame_needed = 0, uses_anonymous_args = 0
 522              		@ link register save eliminated.
 886:.\Generated_Source\PSoC5/PWM_Claw.c ****     #if(PWM_Claw_UsingFixedFunction)
 887:.\Generated_Source\PSoC5/PWM_Claw.c ****         return ((uint16)CY_GET_REG16(PWM_Claw_PERIOD_LSB_PTR));
 888:.\Generated_Source\PSoC5/PWM_Claw.c ****     #else
 889:.\Generated_Source\PSoC5/PWM_Claw.c ****         return (CY_GET_REG16(PWM_Claw_PERIOD_LSB_PTR));
 523              		.loc 1 889 0
 524 0000 014B     		ldr	r3, .L52
 525 0002 1888     		ldrh	r0, [r3]
 890:.\Generated_Source\PSoC5/PWM_Claw.c ****     #endif /* (PWM_Claw_UsingFixedFunction) */
 891:.\Generated_Source\PSoC5/PWM_Claw.c **** }
 526              		.loc 1 891 0
 527 0004 80B2     		uxth	r0, r0
 528 0006 7047     		bx	lr
 529              	.L53:
 530              		.align	2
 531              	.L52:
 532 0008 80680040 		.word	1073768576
 533              		.cfi_endproc
 534              	.LFE15:
 535              		.size	PWM_Claw_ReadPeriod, .-PWM_Claw_ReadPeriod
 536              		.global	PWM_Claw_initVar
 537              		.bss
 538              		.set	.LANCHOR0,. + 0
 539              		.type	PWM_Claw_initVar, %object
 540              		.size	PWM_Claw_initVar, 1
 541              	PWM_Claw_initVar:
 542 0000 00       		.space	1
 543              		.text
 544              	.Letext0:
 545              		.file 2 ".\\Generated_Source\\PSoC5\\cytypes.h"
 546              		.file 3 ".\\Generated_Source\\PSoC5\\CyLib.h"