ARM GAS  D:\TEMP\ccVj5gsX.s 			page 1


   1              		.syntax unified
   2              		.cpu cortex-m3
   3              		.fpu softvfp
   4              		.eabi_attribute 20, 1
   5              		.eabi_attribute 21, 1
   6              		.eabi_attribute 23, 3
   7              		.eabi_attribute 24, 1
   8              		.eabi_attribute 25, 1
   9              		.eabi_attribute 26, 1
  10              		.eabi_attribute 30, 4
  11              		.eabi_attribute 34, 1
  12              		.eabi_attribute 18, 4
  13              		.thumb
  14              		.file	"PWM_Lift_PM.c"
  15              		.text
  16              	.Ltext0:
  17              		.cfi_sections	.debug_frame
  18              		.section	.text.PWM_Lift_SaveConfig,"ax",%progbits
  19              		.align	1
  20              		.global	PWM_Lift_SaveConfig
  21              		.thumb
  22              		.thumb_func
  23              		.type	PWM_Lift_SaveConfig, %function
  24              	PWM_Lift_SaveConfig:
  25              	.LFB0:
  26              		.file 1 ".\\Generated_Source\\PSoC5\\PWM_Lift_PM.c"
   1:.\Generated_Source\PSoC5/PWM_Lift_PM.c **** /*******************************************************************************
   2:.\Generated_Source\PSoC5/PWM_Lift_PM.c **** * File Name: PWM_Lift_PM.c
   3:.\Generated_Source\PSoC5/PWM_Lift_PM.c **** * Version 3.30
   4:.\Generated_Source\PSoC5/PWM_Lift_PM.c **** *
   5:.\Generated_Source\PSoC5/PWM_Lift_PM.c **** * Description:
   6:.\Generated_Source\PSoC5/PWM_Lift_PM.c **** *  This file provides the power management source code to API for the
   7:.\Generated_Source\PSoC5/PWM_Lift_PM.c **** *  PWM.
   8:.\Generated_Source\PSoC5/PWM_Lift_PM.c **** *
   9:.\Generated_Source\PSoC5/PWM_Lift_PM.c **** * Note:
  10:.\Generated_Source\PSoC5/PWM_Lift_PM.c **** *
  11:.\Generated_Source\PSoC5/PWM_Lift_PM.c **** ********************************************************************************
  12:.\Generated_Source\PSoC5/PWM_Lift_PM.c **** * Copyright 2008-2014, Cypress Semiconductor Corporation.  All rights reserved.
  13:.\Generated_Source\PSoC5/PWM_Lift_PM.c **** * You may use this file only in accordance with the license, terms, conditions,
  14:.\Generated_Source\PSoC5/PWM_Lift_PM.c **** * disclaimers, and limitations in the end user license agreement accompanying
  15:.\Generated_Source\PSoC5/PWM_Lift_PM.c **** * the software package with which this file was provided.
  16:.\Generated_Source\PSoC5/PWM_Lift_PM.c **** *******************************************************************************/
  17:.\Generated_Source\PSoC5/PWM_Lift_PM.c **** 
  18:.\Generated_Source\PSoC5/PWM_Lift_PM.c **** #include "PWM_Lift.h"
  19:.\Generated_Source\PSoC5/PWM_Lift_PM.c **** 
  20:.\Generated_Source\PSoC5/PWM_Lift_PM.c **** static PWM_Lift_backupStruct PWM_Lift_backup;
  21:.\Generated_Source\PSoC5/PWM_Lift_PM.c **** 
  22:.\Generated_Source\PSoC5/PWM_Lift_PM.c **** 
  23:.\Generated_Source\PSoC5/PWM_Lift_PM.c **** /*******************************************************************************
  24:.\Generated_Source\PSoC5/PWM_Lift_PM.c **** * Function Name: PWM_Lift_SaveConfig
  25:.\Generated_Source\PSoC5/PWM_Lift_PM.c **** ********************************************************************************
  26:.\Generated_Source\PSoC5/PWM_Lift_PM.c **** *
  27:.\Generated_Source\PSoC5/PWM_Lift_PM.c **** * Summary:
  28:.\Generated_Source\PSoC5/PWM_Lift_PM.c **** *  Saves the current user configuration of the component.
  29:.\Generated_Source\PSoC5/PWM_Lift_PM.c **** *
  30:.\Generated_Source\PSoC5/PWM_Lift_PM.c **** * Parameters:
  31:.\Generated_Source\PSoC5/PWM_Lift_PM.c **** *  None
ARM GAS  D:\TEMP\ccVj5gsX.s 			page 2


  32:.\Generated_Source\PSoC5/PWM_Lift_PM.c **** *
  33:.\Generated_Source\PSoC5/PWM_Lift_PM.c **** * Return:
  34:.\Generated_Source\PSoC5/PWM_Lift_PM.c **** *  None
  35:.\Generated_Source\PSoC5/PWM_Lift_PM.c **** *
  36:.\Generated_Source\PSoC5/PWM_Lift_PM.c **** * Global variables:
  37:.\Generated_Source\PSoC5/PWM_Lift_PM.c **** *  PWM_Lift_backup:  Variables of this global structure are modified to
  38:.\Generated_Source\PSoC5/PWM_Lift_PM.c **** *  store the values of non retention configuration registers when Sleep() API is
  39:.\Generated_Source\PSoC5/PWM_Lift_PM.c **** *  called.
  40:.\Generated_Source\PSoC5/PWM_Lift_PM.c **** *
  41:.\Generated_Source\PSoC5/PWM_Lift_PM.c **** *******************************************************************************/
  42:.\Generated_Source\PSoC5/PWM_Lift_PM.c **** void PWM_Lift_SaveConfig(void) 
  43:.\Generated_Source\PSoC5/PWM_Lift_PM.c **** {
  27              		.loc 1 43 0
  28              		.cfi_startproc
  29              		@ args = 0, pretend = 0, frame = 0
  30              		@ frame_needed = 0, uses_anonymous_args = 0
  31 0000 10B5     		push	{r4, lr}
  32              		.cfi_def_cfa_offset 8
  33              		.cfi_offset 4, -8
  34              		.cfi_offset 14, -4
  44:.\Generated_Source\PSoC5/PWM_Lift_PM.c **** 
  45:.\Generated_Source\PSoC5/PWM_Lift_PM.c ****     #if(!PWM_Lift_UsingFixedFunction)
  46:.\Generated_Source\PSoC5/PWM_Lift_PM.c ****         #if(!PWM_Lift_PWMModeIsCenterAligned)
  47:.\Generated_Source\PSoC5/PWM_Lift_PM.c ****             PWM_Lift_backup.PWMPeriod = PWM_Lift_ReadPeriod();
  35              		.loc 1 47 0
  36 0002 FFF7FEFF 		bl	PWM_Lift_ReadPeriod
  37              	.LVL0:
  38 0006 064C     		ldr	r4, .L2
  39 0008 A080     		strh	r0, [r4, #4]	@ movhi
  48:.\Generated_Source\PSoC5/PWM_Lift_PM.c ****         #endif /* (!PWM_Lift_PWMModeIsCenterAligned) */
  49:.\Generated_Source\PSoC5/PWM_Lift_PM.c ****         PWM_Lift_backup.PWMUdb = PWM_Lift_ReadCounter();
  40              		.loc 1 49 0
  41 000a FFF7FEFF 		bl	PWM_Lift_ReadCounter
  42              	.LVL1:
  50:.\Generated_Source\PSoC5/PWM_Lift_PM.c ****         #if (PWM_Lift_UseStatus)
  51:.\Generated_Source\PSoC5/PWM_Lift_PM.c ****             PWM_Lift_backup.InterruptMaskValue = PWM_Lift_STATUS_MASK;
  43              		.loc 1 51 0
  44 000e 054B     		ldr	r3, .L2+4
  49:.\Generated_Source\PSoC5/PWM_Lift_PM.c ****         #if (PWM_Lift_UseStatus)
  45              		.loc 1 49 0
  46 0010 6080     		strh	r0, [r4, #2]	@ movhi
  47              		.loc 1 51 0
  48 0012 1B78     		ldrb	r3, [r3]	@ zero_extendqisi2
  49 0014 A371     		strb	r3, [r4, #6]
  52:.\Generated_Source\PSoC5/PWM_Lift_PM.c ****         #endif /* (PWM_Lift_UseStatus) */
  53:.\Generated_Source\PSoC5/PWM_Lift_PM.c **** 
  54:.\Generated_Source\PSoC5/PWM_Lift_PM.c ****         #if(PWM_Lift_DeadBandMode == PWM_Lift__B_PWM__DBM_256_CLOCKS || \
  55:.\Generated_Source\PSoC5/PWM_Lift_PM.c ****             PWM_Lift_DeadBandMode == PWM_Lift__B_PWM__DBM_2_4_CLOCKS)
  56:.\Generated_Source\PSoC5/PWM_Lift_PM.c ****             PWM_Lift_backup.PWMdeadBandValue = PWM_Lift_ReadDeadTime();
  57:.\Generated_Source\PSoC5/PWM_Lift_PM.c ****         #endif /*  deadband count is either 2-4 clocks or 256 clocks */
  58:.\Generated_Source\PSoC5/PWM_Lift_PM.c **** 
  59:.\Generated_Source\PSoC5/PWM_Lift_PM.c ****         #if(PWM_Lift_KillModeMinTime)
  60:.\Generated_Source\PSoC5/PWM_Lift_PM.c ****              PWM_Lift_backup.PWMKillCounterPeriod = PWM_Lift_ReadKillTime();
  61:.\Generated_Source\PSoC5/PWM_Lift_PM.c ****         #endif /* (PWM_Lift_KillModeMinTime) */
  62:.\Generated_Source\PSoC5/PWM_Lift_PM.c **** 
  63:.\Generated_Source\PSoC5/PWM_Lift_PM.c ****         #if(PWM_Lift_UseControl)
  64:.\Generated_Source\PSoC5/PWM_Lift_PM.c ****             PWM_Lift_backup.PWMControlRegister = PWM_Lift_ReadControlRegister();
ARM GAS  D:\TEMP\ccVj5gsX.s 			page 3


  50              		.loc 1 64 0
  51 0016 FFF7FEFF 		bl	PWM_Lift_ReadControlRegister
  52              	.LVL2:
  53 001a E071     		strb	r0, [r4, #7]
  54 001c 10BD     		pop	{r4, pc}
  55              	.L3:
  56 001e 00BF     		.align	2
  57              	.L2:
  58 0020 00000000 		.word	.LANCHOR0
  59 0024 86650040 		.word	1073767814
  60              		.cfi_endproc
  61              	.LFE0:
  62              		.size	PWM_Lift_SaveConfig, .-PWM_Lift_SaveConfig
  63              		.section	.text.PWM_Lift_RestoreConfig,"ax",%progbits
  64              		.align	1
  65              		.global	PWM_Lift_RestoreConfig
  66              		.thumb
  67              		.thumb_func
  68              		.type	PWM_Lift_RestoreConfig, %function
  69              	PWM_Lift_RestoreConfig:
  70              	.LFB1:
  65:.\Generated_Source\PSoC5/PWM_Lift_PM.c ****         #endif /* (PWM_Lift_UseControl) */
  66:.\Generated_Source\PSoC5/PWM_Lift_PM.c ****     #endif  /* (!PWM_Lift_UsingFixedFunction) */
  67:.\Generated_Source\PSoC5/PWM_Lift_PM.c **** }
  68:.\Generated_Source\PSoC5/PWM_Lift_PM.c **** 
  69:.\Generated_Source\PSoC5/PWM_Lift_PM.c **** 
  70:.\Generated_Source\PSoC5/PWM_Lift_PM.c **** /*******************************************************************************
  71:.\Generated_Source\PSoC5/PWM_Lift_PM.c **** * Function Name: PWM_Lift_RestoreConfig
  72:.\Generated_Source\PSoC5/PWM_Lift_PM.c **** ********************************************************************************
  73:.\Generated_Source\PSoC5/PWM_Lift_PM.c **** *
  74:.\Generated_Source\PSoC5/PWM_Lift_PM.c **** * Summary:
  75:.\Generated_Source\PSoC5/PWM_Lift_PM.c **** *  Restores the current user configuration of the component.
  76:.\Generated_Source\PSoC5/PWM_Lift_PM.c **** *
  77:.\Generated_Source\PSoC5/PWM_Lift_PM.c **** * Parameters:
  78:.\Generated_Source\PSoC5/PWM_Lift_PM.c **** *  None
  79:.\Generated_Source\PSoC5/PWM_Lift_PM.c **** *
  80:.\Generated_Source\PSoC5/PWM_Lift_PM.c **** * Return:
  81:.\Generated_Source\PSoC5/PWM_Lift_PM.c **** *  None
  82:.\Generated_Source\PSoC5/PWM_Lift_PM.c **** *
  83:.\Generated_Source\PSoC5/PWM_Lift_PM.c **** * Global variables:
  84:.\Generated_Source\PSoC5/PWM_Lift_PM.c **** *  PWM_Lift_backup:  Variables of this global structure are used to
  85:.\Generated_Source\PSoC5/PWM_Lift_PM.c **** *  restore the values of non retention registers on wakeup from sleep mode.
  86:.\Generated_Source\PSoC5/PWM_Lift_PM.c **** *
  87:.\Generated_Source\PSoC5/PWM_Lift_PM.c **** *******************************************************************************/
  88:.\Generated_Source\PSoC5/PWM_Lift_PM.c **** void PWM_Lift_RestoreConfig(void) 
  89:.\Generated_Source\PSoC5/PWM_Lift_PM.c **** {
  71              		.loc 1 89 0
  72              		.cfi_startproc
  73              		@ args = 0, pretend = 0, frame = 0
  74              		@ frame_needed = 0, uses_anonymous_args = 0
  75 0000 10B5     		push	{r4, lr}
  76              		.cfi_def_cfa_offset 8
  77              		.cfi_offset 4, -8
  78              		.cfi_offset 14, -4
  90:.\Generated_Source\PSoC5/PWM_Lift_PM.c ****         #if(!PWM_Lift_UsingFixedFunction)
  91:.\Generated_Source\PSoC5/PWM_Lift_PM.c ****             #if(!PWM_Lift_PWMModeIsCenterAligned)
  92:.\Generated_Source\PSoC5/PWM_Lift_PM.c ****                 PWM_Lift_WritePeriod(PWM_Lift_backup.PWMPeriod);
ARM GAS  D:\TEMP\ccVj5gsX.s 			page 4


  79              		.loc 1 92 0
  80 0002 074C     		ldr	r4, .L5
  81 0004 A088     		ldrh	r0, [r4, #4]
  82 0006 FFF7FEFF 		bl	PWM_Lift_WritePeriod
  83              	.LVL3:
  93:.\Generated_Source\PSoC5/PWM_Lift_PM.c ****             #endif /* (!PWM_Lift_PWMModeIsCenterAligned) */
  94:.\Generated_Source\PSoC5/PWM_Lift_PM.c **** 
  95:.\Generated_Source\PSoC5/PWM_Lift_PM.c ****             PWM_Lift_WriteCounter(PWM_Lift_backup.PWMUdb);
  84              		.loc 1 95 0
  85 000a 6088     		ldrh	r0, [r4, #2]
  86 000c FFF7FEFF 		bl	PWM_Lift_WriteCounter
  87              	.LVL4:
  96:.\Generated_Source\PSoC5/PWM_Lift_PM.c **** 
  97:.\Generated_Source\PSoC5/PWM_Lift_PM.c ****             #if (PWM_Lift_UseStatus)
  98:.\Generated_Source\PSoC5/PWM_Lift_PM.c ****                 PWM_Lift_STATUS_MASK = PWM_Lift_backup.InterruptMaskValue;
  88              		.loc 1 98 0
  89 0010 A279     		ldrb	r2, [r4, #6]	@ zero_extendqisi2
  90 0012 044B     		ldr	r3, .L5+4
  91 0014 1A70     		strb	r2, [r3]
  99:.\Generated_Source\PSoC5/PWM_Lift_PM.c ****             #endif /* (PWM_Lift_UseStatus) */
 100:.\Generated_Source\PSoC5/PWM_Lift_PM.c **** 
 101:.\Generated_Source\PSoC5/PWM_Lift_PM.c ****             #if(PWM_Lift_DeadBandMode == PWM_Lift__B_PWM__DBM_256_CLOCKS || \
 102:.\Generated_Source\PSoC5/PWM_Lift_PM.c ****                 PWM_Lift_DeadBandMode == PWM_Lift__B_PWM__DBM_2_4_CLOCKS)
 103:.\Generated_Source\PSoC5/PWM_Lift_PM.c ****                 PWM_Lift_WriteDeadTime(PWM_Lift_backup.PWMdeadBandValue);
 104:.\Generated_Source\PSoC5/PWM_Lift_PM.c ****             #endif /* deadband count is either 2-4 clocks or 256 clocks */
 105:.\Generated_Source\PSoC5/PWM_Lift_PM.c **** 
 106:.\Generated_Source\PSoC5/PWM_Lift_PM.c ****             #if(PWM_Lift_KillModeMinTime)
 107:.\Generated_Source\PSoC5/PWM_Lift_PM.c ****                 PWM_Lift_WriteKillTime(PWM_Lift_backup.PWMKillCounterPeriod);
 108:.\Generated_Source\PSoC5/PWM_Lift_PM.c ****             #endif /* (PWM_Lift_KillModeMinTime) */
 109:.\Generated_Source\PSoC5/PWM_Lift_PM.c **** 
 110:.\Generated_Source\PSoC5/PWM_Lift_PM.c ****             #if(PWM_Lift_UseControl)
 111:.\Generated_Source\PSoC5/PWM_Lift_PM.c ****                 PWM_Lift_WriteControlRegister(PWM_Lift_backup.PWMControlRegister);
  92              		.loc 1 111 0
  93 0016 E079     		ldrb	r0, [r4, #7]	@ zero_extendqisi2
 112:.\Generated_Source\PSoC5/PWM_Lift_PM.c ****             #endif /* (PWM_Lift_UseControl) */
 113:.\Generated_Source\PSoC5/PWM_Lift_PM.c ****         #endif  /* (!PWM_Lift_UsingFixedFunction) */
 114:.\Generated_Source\PSoC5/PWM_Lift_PM.c ****     }
  94              		.loc 1 114 0
  95 0018 BDE81040 		pop	{r4, lr}
  96              		.cfi_restore 14
  97              		.cfi_restore 4
  98              		.cfi_def_cfa_offset 0
 111:.\Generated_Source\PSoC5/PWM_Lift_PM.c ****             #endif /* (PWM_Lift_UseControl) */
  99              		.loc 1 111 0
 100 001c FFF7FEBF 		b	PWM_Lift_WriteControlRegister
 101              	.LVL5:
 102              	.L6:
 103              		.align	2
 104              	.L5:
 105 0020 00000000 		.word	.LANCHOR0
 106 0024 86650040 		.word	1073767814
 107              		.cfi_endproc
 108              	.LFE1:
 109              		.size	PWM_Lift_RestoreConfig, .-PWM_Lift_RestoreConfig
 110              		.section	.text.PWM_Lift_Sleep,"ax",%progbits
 111              		.align	1
 112              		.global	PWM_Lift_Sleep
ARM GAS  D:\TEMP\ccVj5gsX.s 			page 5


 113              		.thumb
 114              		.thumb_func
 115              		.type	PWM_Lift_Sleep, %function
 116              	PWM_Lift_Sleep:
 117              	.LFB2:
 115:.\Generated_Source\PSoC5/PWM_Lift_PM.c **** 
 116:.\Generated_Source\PSoC5/PWM_Lift_PM.c **** 
 117:.\Generated_Source\PSoC5/PWM_Lift_PM.c **** /*******************************************************************************
 118:.\Generated_Source\PSoC5/PWM_Lift_PM.c **** * Function Name: PWM_Lift_Sleep
 119:.\Generated_Source\PSoC5/PWM_Lift_PM.c **** ********************************************************************************
 120:.\Generated_Source\PSoC5/PWM_Lift_PM.c **** *
 121:.\Generated_Source\PSoC5/PWM_Lift_PM.c **** * Summary:
 122:.\Generated_Source\PSoC5/PWM_Lift_PM.c **** *  Disables block's operation and saves the user configuration. Should be called
 123:.\Generated_Source\PSoC5/PWM_Lift_PM.c **** *  just prior to entering sleep.
 124:.\Generated_Source\PSoC5/PWM_Lift_PM.c **** *
 125:.\Generated_Source\PSoC5/PWM_Lift_PM.c **** * Parameters:
 126:.\Generated_Source\PSoC5/PWM_Lift_PM.c **** *  None
 127:.\Generated_Source\PSoC5/PWM_Lift_PM.c **** *
 128:.\Generated_Source\PSoC5/PWM_Lift_PM.c **** * Return:
 129:.\Generated_Source\PSoC5/PWM_Lift_PM.c **** *  None
 130:.\Generated_Source\PSoC5/PWM_Lift_PM.c **** *
 131:.\Generated_Source\PSoC5/PWM_Lift_PM.c **** * Global variables:
 132:.\Generated_Source\PSoC5/PWM_Lift_PM.c **** *  PWM_Lift_backup.PWMEnableState:  Is modified depending on the enable
 133:.\Generated_Source\PSoC5/PWM_Lift_PM.c **** *  state of the block before entering sleep mode.
 134:.\Generated_Source\PSoC5/PWM_Lift_PM.c **** *
 135:.\Generated_Source\PSoC5/PWM_Lift_PM.c **** *******************************************************************************/
 136:.\Generated_Source\PSoC5/PWM_Lift_PM.c **** void PWM_Lift_Sleep(void) 
 137:.\Generated_Source\PSoC5/PWM_Lift_PM.c **** {
 118              		.loc 1 137 0
 119              		.cfi_startproc
 120              		@ args = 0, pretend = 0, frame = 0
 121              		@ frame_needed = 0, uses_anonymous_args = 0
 122 0000 08B5     		push	{r3, lr}
 123              		.cfi_def_cfa_offset 8
 124              		.cfi_offset 3, -8
 125              		.cfi_offset 14, -4
 138:.\Generated_Source\PSoC5/PWM_Lift_PM.c ****     #if(PWM_Lift_UseControl)
 139:.\Generated_Source\PSoC5/PWM_Lift_PM.c ****         if(PWM_Lift_CTRL_ENABLE == (PWM_Lift_CONTROL & PWM_Lift_CTRL_ENABLE))
 126              		.loc 1 139 0
 127 0002 074B     		ldr	r3, .L11
 128 0004 1B78     		ldrb	r3, [r3]	@ zero_extendqisi2
 129 0006 13F0800F 		tst	r3, #128
 130 000a 064B     		ldr	r3, .L11+4
 140:.\Generated_Source\PSoC5/PWM_Lift_PM.c ****         {
 141:.\Generated_Source\PSoC5/PWM_Lift_PM.c ****             /*Component is enabled */
 142:.\Generated_Source\PSoC5/PWM_Lift_PM.c ****             PWM_Lift_backup.PWMEnableState = 1u;
 131              		.loc 1 142 0
 132 000c 14BF     		ite	ne
 133 000e 0122     		movne	r2, #1
 143:.\Generated_Source\PSoC5/PWM_Lift_PM.c ****         }
 144:.\Generated_Source\PSoC5/PWM_Lift_PM.c ****         else
 145:.\Generated_Source\PSoC5/PWM_Lift_PM.c ****         {
 146:.\Generated_Source\PSoC5/PWM_Lift_PM.c ****             /* Component is disabled */
 147:.\Generated_Source\PSoC5/PWM_Lift_PM.c ****             PWM_Lift_backup.PWMEnableState = 0u;
 134              		.loc 1 147 0
 135 0010 0022     		moveq	r2, #0
 136 0012 1A70     		strb	r2, [r3]
ARM GAS  D:\TEMP\ccVj5gsX.s 			page 6


 148:.\Generated_Source\PSoC5/PWM_Lift_PM.c ****         }
 149:.\Generated_Source\PSoC5/PWM_Lift_PM.c ****     #endif /* (PWM_Lift_UseControl) */
 150:.\Generated_Source\PSoC5/PWM_Lift_PM.c **** 
 151:.\Generated_Source\PSoC5/PWM_Lift_PM.c ****     /* Stop component */
 152:.\Generated_Source\PSoC5/PWM_Lift_PM.c ****     PWM_Lift_Stop();
 137              		.loc 1 152 0
 138 0014 FFF7FEFF 		bl	PWM_Lift_Stop
 139              	.LVL6:
 153:.\Generated_Source\PSoC5/PWM_Lift_PM.c **** 
 154:.\Generated_Source\PSoC5/PWM_Lift_PM.c ****     /* Save registers configuration */
 155:.\Generated_Source\PSoC5/PWM_Lift_PM.c ****     PWM_Lift_SaveConfig();
 156:.\Generated_Source\PSoC5/PWM_Lift_PM.c **** }
 140              		.loc 1 156 0
 141 0018 BDE80840 		pop	{r3, lr}
 142              		.cfi_restore 14
 143              		.cfi_restore 3
 144              		.cfi_def_cfa_offset 0
 155:.\Generated_Source\PSoC5/PWM_Lift_PM.c **** }
 145              		.loc 1 155 0
 146 001c FFF7FEBF 		b	PWM_Lift_SaveConfig
 147              	.LVL7:
 148              	.L12:
 149              		.align	2
 150              	.L11:
 151 0020 75650040 		.word	1073767797
 152 0024 00000000 		.word	.LANCHOR0
 153              		.cfi_endproc
 154              	.LFE2:
 155              		.size	PWM_Lift_Sleep, .-PWM_Lift_Sleep
 156              		.section	.text.PWM_Lift_Wakeup,"ax",%progbits
 157              		.align	1
 158              		.global	PWM_Lift_Wakeup
 159              		.thumb
 160              		.thumb_func
 161              		.type	PWM_Lift_Wakeup, %function
 162              	PWM_Lift_Wakeup:
 163              	.LFB3:
 157:.\Generated_Source\PSoC5/PWM_Lift_PM.c **** 
 158:.\Generated_Source\PSoC5/PWM_Lift_PM.c **** 
 159:.\Generated_Source\PSoC5/PWM_Lift_PM.c **** /*******************************************************************************
 160:.\Generated_Source\PSoC5/PWM_Lift_PM.c **** * Function Name: PWM_Lift_Wakeup
 161:.\Generated_Source\PSoC5/PWM_Lift_PM.c **** ********************************************************************************
 162:.\Generated_Source\PSoC5/PWM_Lift_PM.c **** *
 163:.\Generated_Source\PSoC5/PWM_Lift_PM.c **** * Summary:
 164:.\Generated_Source\PSoC5/PWM_Lift_PM.c **** *  Restores and enables the user configuration. Should be called just after
 165:.\Generated_Source\PSoC5/PWM_Lift_PM.c **** *  awaking from sleep.
 166:.\Generated_Source\PSoC5/PWM_Lift_PM.c **** *
 167:.\Generated_Source\PSoC5/PWM_Lift_PM.c **** * Parameters:
 168:.\Generated_Source\PSoC5/PWM_Lift_PM.c **** *  None
 169:.\Generated_Source\PSoC5/PWM_Lift_PM.c **** *
 170:.\Generated_Source\PSoC5/PWM_Lift_PM.c **** * Return:
 171:.\Generated_Source\PSoC5/PWM_Lift_PM.c **** *  None
 172:.\Generated_Source\PSoC5/PWM_Lift_PM.c **** *
 173:.\Generated_Source\PSoC5/PWM_Lift_PM.c **** * Global variables:
 174:.\Generated_Source\PSoC5/PWM_Lift_PM.c **** *  PWM_Lift_backup.pwmEnable:  Is used to restore the enable state of
 175:.\Generated_Source\PSoC5/PWM_Lift_PM.c **** *  block on wakeup from sleep mode.
 176:.\Generated_Source\PSoC5/PWM_Lift_PM.c **** *
ARM GAS  D:\TEMP\ccVj5gsX.s 			page 7


 177:.\Generated_Source\PSoC5/PWM_Lift_PM.c **** *******************************************************************************/
 178:.\Generated_Source\PSoC5/PWM_Lift_PM.c **** void PWM_Lift_Wakeup(void) 
 179:.\Generated_Source\PSoC5/PWM_Lift_PM.c **** {
 164              		.loc 1 179 0
 165              		.cfi_startproc
 166              		@ args = 0, pretend = 0, frame = 0
 167              		@ frame_needed = 0, uses_anonymous_args = 0
 168 0000 08B5     		push	{r3, lr}
 169              		.cfi_def_cfa_offset 8
 170              		.cfi_offset 3, -8
 171              		.cfi_offset 14, -4
 180:.\Generated_Source\PSoC5/PWM_Lift_PM.c ****      /* Restore registers values */
 181:.\Generated_Source\PSoC5/PWM_Lift_PM.c ****     PWM_Lift_RestoreConfig();
 172              		.loc 1 181 0
 173 0002 FFF7FEFF 		bl	PWM_Lift_RestoreConfig
 174              	.LVL8:
 182:.\Generated_Source\PSoC5/PWM_Lift_PM.c **** 
 183:.\Generated_Source\PSoC5/PWM_Lift_PM.c ****     if(PWM_Lift_backup.PWMEnableState != 0u)
 175              		.loc 1 183 0
 176 0006 044B     		ldr	r3, .L16
 177 0008 1B78     		ldrb	r3, [r3]	@ zero_extendqisi2
 178 000a 1BB1     		cbz	r3, .L13
 184:.\Generated_Source\PSoC5/PWM_Lift_PM.c ****     {
 185:.\Generated_Source\PSoC5/PWM_Lift_PM.c ****         /* Enable component's operation */
 186:.\Generated_Source\PSoC5/PWM_Lift_PM.c ****         PWM_Lift_Enable();
 187:.\Generated_Source\PSoC5/PWM_Lift_PM.c ****     } /* Do nothing if component's block was disabled before */
 188:.\Generated_Source\PSoC5/PWM_Lift_PM.c **** 
 189:.\Generated_Source\PSoC5/PWM_Lift_PM.c **** }
 179              		.loc 1 189 0
 180 000c BDE80840 		pop	{r3, lr}
 181              		.cfi_remember_state
 182              		.cfi_restore 14
 183              		.cfi_restore 3
 184              		.cfi_def_cfa_offset 0
 186:.\Generated_Source\PSoC5/PWM_Lift_PM.c ****     } /* Do nothing if component's block was disabled before */
 185              		.loc 1 186 0
 186 0010 FFF7FEBF 		b	PWM_Lift_Enable
 187              	.LVL9:
 188              	.L13:
 189              		.cfi_restore_state
 190 0014 08BD     		pop	{r3, pc}
 191              	.L17:
 192 0016 00BF     		.align	2
 193              	.L16:
 194 0018 00000000 		.word	.LANCHOR0
 195              		.cfi_endproc
 196              	.LFE3:
 197              		.size	PWM_Lift_Wakeup, .-PWM_Lift_Wakeup
 198              		.bss
 199              		.align	1
 200              		.set	.LANCHOR0,. + 0
 201              		.type	PWM_Lift_backup, %object
 202              		.size	PWM_Lift_backup, 8
 203              	PWM_Lift_backup:
 204 0000 00000000 		.space	8
 204      00000000 
 205              		.text
ARM GAS  D:\TEMP\ccVj5gsX.s 			page 8


 206              	.Letext0:
 207              		.file 2 ".\\Generated_Source\\PSoC5\\cytypes.h"
 208              		.file 3 ".\\Generated_Source\\PSoC5\\PWM_Lift.h"