ARM GAS  D:\TEMP\ccDR1GRI.s 			page 1


   1              		.syntax unified
   2              		.cpu cortex-m3
   3              		.fpu softvfp
   4              		.eabi_attribute 20, 1
   5              		.eabi_attribute 21, 1
   6              		.eabi_attribute 23, 3
   7              		.eabi_attribute 24, 1
   8              		.eabi_attribute 25, 1
   9              		.eabi_attribute 26, 1
  10              		.eabi_attribute 30, 4
  11              		.eabi_attribute 34, 1
  12              		.eabi_attribute 18, 4
  13              		.thumb
  14              		.file	"Quad_2_Cnt16_PM.c"
  15              		.text
  16              	.Ltext0:
  17              		.cfi_sections	.debug_frame
  18              		.section	.text.Quad_2_Cnt16_SaveConfig,"ax",%progbits
  19              		.align	1
  20              		.global	Quad_2_Cnt16_SaveConfig
  21              		.thumb
  22              		.thumb_func
  23              		.type	Quad_2_Cnt16_SaveConfig, %function
  24              	Quad_2_Cnt16_SaveConfig:
  25              	.LFB0:
  26              		.file 1 ".\\Generated_Source\\PSoC5\\Quad_2_Cnt16_PM.c"
   1:.\Generated_Source\PSoC5/Quad_2_Cnt16_PM.c **** /*******************************************************************************
   2:.\Generated_Source\PSoC5/Quad_2_Cnt16_PM.c **** * File Name: Quad_2_Cnt16_PM.c  
   3:.\Generated_Source\PSoC5/Quad_2_Cnt16_PM.c **** * Version 3.0
   4:.\Generated_Source\PSoC5/Quad_2_Cnt16_PM.c **** *
   5:.\Generated_Source\PSoC5/Quad_2_Cnt16_PM.c **** *  Description:
   6:.\Generated_Source\PSoC5/Quad_2_Cnt16_PM.c **** *    This file provides the power management source code to API for the
   7:.\Generated_Source\PSoC5/Quad_2_Cnt16_PM.c **** *    Counter.  
   8:.\Generated_Source\PSoC5/Quad_2_Cnt16_PM.c **** *
   9:.\Generated_Source\PSoC5/Quad_2_Cnt16_PM.c **** *   Note:
  10:.\Generated_Source\PSoC5/Quad_2_Cnt16_PM.c **** *     None
  11:.\Generated_Source\PSoC5/Quad_2_Cnt16_PM.c **** *
  12:.\Generated_Source\PSoC5/Quad_2_Cnt16_PM.c **** ********************************************************************************
  13:.\Generated_Source\PSoC5/Quad_2_Cnt16_PM.c **** * Copyright 2008-2012, Cypress Semiconductor Corporation.  All rights reserved.
  14:.\Generated_Source\PSoC5/Quad_2_Cnt16_PM.c **** * You may use this file only in accordance with the license, terms, conditions, 
  15:.\Generated_Source\PSoC5/Quad_2_Cnt16_PM.c **** * disclaimers, and limitations in the end user license agreement accompanying 
  16:.\Generated_Source\PSoC5/Quad_2_Cnt16_PM.c **** * the software package with which this file was provided.
  17:.\Generated_Source\PSoC5/Quad_2_Cnt16_PM.c **** *******************************************************************************/
  18:.\Generated_Source\PSoC5/Quad_2_Cnt16_PM.c **** 
  19:.\Generated_Source\PSoC5/Quad_2_Cnt16_PM.c **** #include "Quad_2_Cnt16.h"
  20:.\Generated_Source\PSoC5/Quad_2_Cnt16_PM.c **** 
  21:.\Generated_Source\PSoC5/Quad_2_Cnt16_PM.c **** static Quad_2_Cnt16_backupStruct Quad_2_Cnt16_backup;
  22:.\Generated_Source\PSoC5/Quad_2_Cnt16_PM.c **** 
  23:.\Generated_Source\PSoC5/Quad_2_Cnt16_PM.c **** 
  24:.\Generated_Source\PSoC5/Quad_2_Cnt16_PM.c **** /*******************************************************************************
  25:.\Generated_Source\PSoC5/Quad_2_Cnt16_PM.c **** * Function Name: Quad_2_Cnt16_SaveConfig
  26:.\Generated_Source\PSoC5/Quad_2_Cnt16_PM.c **** ********************************************************************************
  27:.\Generated_Source\PSoC5/Quad_2_Cnt16_PM.c **** * Summary:
  28:.\Generated_Source\PSoC5/Quad_2_Cnt16_PM.c **** *     Save the current user configuration
  29:.\Generated_Source\PSoC5/Quad_2_Cnt16_PM.c **** *
  30:.\Generated_Source\PSoC5/Quad_2_Cnt16_PM.c **** * Parameters:  
  31:.\Generated_Source\PSoC5/Quad_2_Cnt16_PM.c **** *  void
ARM GAS  D:\TEMP\ccDR1GRI.s 			page 2


  32:.\Generated_Source\PSoC5/Quad_2_Cnt16_PM.c **** *
  33:.\Generated_Source\PSoC5/Quad_2_Cnt16_PM.c **** * Return: 
  34:.\Generated_Source\PSoC5/Quad_2_Cnt16_PM.c **** *  void
  35:.\Generated_Source\PSoC5/Quad_2_Cnt16_PM.c **** *
  36:.\Generated_Source\PSoC5/Quad_2_Cnt16_PM.c **** * Global variables:
  37:.\Generated_Source\PSoC5/Quad_2_Cnt16_PM.c **** *  Quad_2_Cnt16_backup:  Variables of this global structure are modified to 
  38:.\Generated_Source\PSoC5/Quad_2_Cnt16_PM.c **** *  store the values of non retention configuration registers when Sleep() API is 
  39:.\Generated_Source\PSoC5/Quad_2_Cnt16_PM.c **** *  called.
  40:.\Generated_Source\PSoC5/Quad_2_Cnt16_PM.c **** *
  41:.\Generated_Source\PSoC5/Quad_2_Cnt16_PM.c **** *******************************************************************************/
  42:.\Generated_Source\PSoC5/Quad_2_Cnt16_PM.c **** void Quad_2_Cnt16_SaveConfig(void) 
  43:.\Generated_Source\PSoC5/Quad_2_Cnt16_PM.c **** {
  27              		.loc 1 43 0
  28              		.cfi_startproc
  29              		@ args = 0, pretend = 0, frame = 0
  30              		@ frame_needed = 0, uses_anonymous_args = 0
  31 0000 10B5     		push	{r4, lr}
  32              		.cfi_def_cfa_offset 8
  33              		.cfi_offset 4, -8
  34              		.cfi_offset 14, -4
  44:.\Generated_Source\PSoC5/Quad_2_Cnt16_PM.c ****     #if (!Quad_2_Cnt16_UsingFixedFunction)
  45:.\Generated_Source\PSoC5/Quad_2_Cnt16_PM.c **** 
  46:.\Generated_Source\PSoC5/Quad_2_Cnt16_PM.c ****         Quad_2_Cnt16_backup.CounterUdb = Quad_2_Cnt16_ReadCounter();
  35              		.loc 1 46 0
  36 0002 FFF7FEFF 		bl	Quad_2_Cnt16_ReadCounter
  37              	.LVL0:
  38 0006 034C     		ldr	r4, .L2
  39 0008 6080     		strh	r0, [r4, #2]	@ movhi
  47:.\Generated_Source\PSoC5/Quad_2_Cnt16_PM.c **** 
  48:.\Generated_Source\PSoC5/Quad_2_Cnt16_PM.c ****         #if(!Quad_2_Cnt16_ControlRegRemoved)
  49:.\Generated_Source\PSoC5/Quad_2_Cnt16_PM.c ****             Quad_2_Cnt16_backup.CounterControlRegister = Quad_2_Cnt16_ReadControlRegister();
  40              		.loc 1 49 0
  41 000a FFF7FEFF 		bl	Quad_2_Cnt16_ReadControlRegister
  42              	.LVL1:
  43 000e 2071     		strb	r0, [r4, #4]
  44 0010 10BD     		pop	{r4, pc}
  45              	.L3:
  46 0012 00BF     		.align	2
  47              	.L2:
  48 0014 00000000 		.word	.LANCHOR0
  49              		.cfi_endproc
  50              	.LFE0:
  51              		.size	Quad_2_Cnt16_SaveConfig, .-Quad_2_Cnt16_SaveConfig
  52              		.section	.text.Quad_2_Cnt16_RestoreConfig,"ax",%progbits
  53              		.align	1
  54              		.global	Quad_2_Cnt16_RestoreConfig
  55              		.thumb
  56              		.thumb_func
  57              		.type	Quad_2_Cnt16_RestoreConfig, %function
  58              	Quad_2_Cnt16_RestoreConfig:
  59              	.LFB1:
  50:.\Generated_Source\PSoC5/Quad_2_Cnt16_PM.c ****         #endif /* (!Quad_2_Cnt16_ControlRegRemoved) */
  51:.\Generated_Source\PSoC5/Quad_2_Cnt16_PM.c **** 
  52:.\Generated_Source\PSoC5/Quad_2_Cnt16_PM.c ****     #endif /* (!Quad_2_Cnt16_UsingFixedFunction) */
  53:.\Generated_Source\PSoC5/Quad_2_Cnt16_PM.c **** }
  54:.\Generated_Source\PSoC5/Quad_2_Cnt16_PM.c **** 
  55:.\Generated_Source\PSoC5/Quad_2_Cnt16_PM.c **** 
ARM GAS  D:\TEMP\ccDR1GRI.s 			page 3


  56:.\Generated_Source\PSoC5/Quad_2_Cnt16_PM.c **** /*******************************************************************************
  57:.\Generated_Source\PSoC5/Quad_2_Cnt16_PM.c **** * Function Name: Quad_2_Cnt16_RestoreConfig
  58:.\Generated_Source\PSoC5/Quad_2_Cnt16_PM.c **** ********************************************************************************
  59:.\Generated_Source\PSoC5/Quad_2_Cnt16_PM.c **** *
  60:.\Generated_Source\PSoC5/Quad_2_Cnt16_PM.c **** * Summary:
  61:.\Generated_Source\PSoC5/Quad_2_Cnt16_PM.c **** *  Restores the current user configuration.
  62:.\Generated_Source\PSoC5/Quad_2_Cnt16_PM.c **** *
  63:.\Generated_Source\PSoC5/Quad_2_Cnt16_PM.c **** * Parameters:  
  64:.\Generated_Source\PSoC5/Quad_2_Cnt16_PM.c **** *  void
  65:.\Generated_Source\PSoC5/Quad_2_Cnt16_PM.c **** *
  66:.\Generated_Source\PSoC5/Quad_2_Cnt16_PM.c **** * Return: 
  67:.\Generated_Source\PSoC5/Quad_2_Cnt16_PM.c **** *  void
  68:.\Generated_Source\PSoC5/Quad_2_Cnt16_PM.c **** *
  69:.\Generated_Source\PSoC5/Quad_2_Cnt16_PM.c **** * Global variables:
  70:.\Generated_Source\PSoC5/Quad_2_Cnt16_PM.c **** *  Quad_2_Cnt16_backup:  Variables of this global structure are used to 
  71:.\Generated_Source\PSoC5/Quad_2_Cnt16_PM.c **** *  restore the values of non retention registers on wakeup from sleep mode.
  72:.\Generated_Source\PSoC5/Quad_2_Cnt16_PM.c **** *
  73:.\Generated_Source\PSoC5/Quad_2_Cnt16_PM.c **** *******************************************************************************/
  74:.\Generated_Source\PSoC5/Quad_2_Cnt16_PM.c **** void Quad_2_Cnt16_RestoreConfig(void) 
  75:.\Generated_Source\PSoC5/Quad_2_Cnt16_PM.c **** {      
  60              		.loc 1 75 0
  61              		.cfi_startproc
  62              		@ args = 0, pretend = 0, frame = 0
  63              		@ frame_needed = 0, uses_anonymous_args = 0
  64 0000 10B5     		push	{r4, lr}
  65              		.cfi_def_cfa_offset 8
  66              		.cfi_offset 4, -8
  67              		.cfi_offset 14, -4
  76:.\Generated_Source\PSoC5/Quad_2_Cnt16_PM.c ****     #if (!Quad_2_Cnt16_UsingFixedFunction)
  77:.\Generated_Source\PSoC5/Quad_2_Cnt16_PM.c **** 
  78:.\Generated_Source\PSoC5/Quad_2_Cnt16_PM.c ****        Quad_2_Cnt16_WriteCounter(Quad_2_Cnt16_backup.CounterUdb);
  68              		.loc 1 78 0
  69 0002 044C     		ldr	r4, .L5
  70 0004 6088     		ldrh	r0, [r4, #2]
  71 0006 FFF7FEFF 		bl	Quad_2_Cnt16_WriteCounter
  72              	.LVL2:
  79:.\Generated_Source\PSoC5/Quad_2_Cnt16_PM.c **** 
  80:.\Generated_Source\PSoC5/Quad_2_Cnt16_PM.c ****         #if(!Quad_2_Cnt16_ControlRegRemoved)
  81:.\Generated_Source\PSoC5/Quad_2_Cnt16_PM.c ****             Quad_2_Cnt16_WriteControlRegister(Quad_2_Cnt16_backup.CounterControlRegister);
  73              		.loc 1 81 0
  74 000a 2079     		ldrb	r0, [r4, #4]	@ zero_extendqisi2
  82:.\Generated_Source\PSoC5/Quad_2_Cnt16_PM.c ****         #endif /* (!Quad_2_Cnt16_ControlRegRemoved) */
  83:.\Generated_Source\PSoC5/Quad_2_Cnt16_PM.c **** 
  84:.\Generated_Source\PSoC5/Quad_2_Cnt16_PM.c ****     #endif /* (!Quad_2_Cnt16_UsingFixedFunction) */
  85:.\Generated_Source\PSoC5/Quad_2_Cnt16_PM.c **** }
  75              		.loc 1 85 0
  76 000c BDE81040 		pop	{r4, lr}
  77              		.cfi_restore 14
  78              		.cfi_restore 4
  79              		.cfi_def_cfa_offset 0
  81:.\Generated_Source\PSoC5/Quad_2_Cnt16_PM.c ****         #endif /* (!Quad_2_Cnt16_ControlRegRemoved) */
  80              		.loc 1 81 0
  81 0010 FFF7FEBF 		b	Quad_2_Cnt16_WriteControlRegister
  82              	.LVL3:
  83              	.L6:
  84              		.align	2
  85              	.L5:
ARM GAS  D:\TEMP\ccDR1GRI.s 			page 4


  86 0014 00000000 		.word	.LANCHOR0
  87              		.cfi_endproc
  88              	.LFE1:
  89              		.size	Quad_2_Cnt16_RestoreConfig, .-Quad_2_Cnt16_RestoreConfig
  90              		.section	.text.Quad_2_Cnt16_Sleep,"ax",%progbits
  91              		.align	1
  92              		.global	Quad_2_Cnt16_Sleep
  93              		.thumb
  94              		.thumb_func
  95              		.type	Quad_2_Cnt16_Sleep, %function
  96              	Quad_2_Cnt16_Sleep:
  97              	.LFB2:
  86:.\Generated_Source\PSoC5/Quad_2_Cnt16_PM.c **** 
  87:.\Generated_Source\PSoC5/Quad_2_Cnt16_PM.c **** 
  88:.\Generated_Source\PSoC5/Quad_2_Cnt16_PM.c **** /*******************************************************************************
  89:.\Generated_Source\PSoC5/Quad_2_Cnt16_PM.c **** * Function Name: Quad_2_Cnt16_Sleep
  90:.\Generated_Source\PSoC5/Quad_2_Cnt16_PM.c **** ********************************************************************************
  91:.\Generated_Source\PSoC5/Quad_2_Cnt16_PM.c **** * Summary:
  92:.\Generated_Source\PSoC5/Quad_2_Cnt16_PM.c **** *     Stop and Save the user configuration
  93:.\Generated_Source\PSoC5/Quad_2_Cnt16_PM.c **** *
  94:.\Generated_Source\PSoC5/Quad_2_Cnt16_PM.c **** * Parameters:  
  95:.\Generated_Source\PSoC5/Quad_2_Cnt16_PM.c **** *  void
  96:.\Generated_Source\PSoC5/Quad_2_Cnt16_PM.c **** *
  97:.\Generated_Source\PSoC5/Quad_2_Cnt16_PM.c **** * Return: 
  98:.\Generated_Source\PSoC5/Quad_2_Cnt16_PM.c **** *  void
  99:.\Generated_Source\PSoC5/Quad_2_Cnt16_PM.c **** *
 100:.\Generated_Source\PSoC5/Quad_2_Cnt16_PM.c **** * Global variables:
 101:.\Generated_Source\PSoC5/Quad_2_Cnt16_PM.c **** *  Quad_2_Cnt16_backup.enableState:  Is modified depending on the enable 
 102:.\Generated_Source\PSoC5/Quad_2_Cnt16_PM.c **** *  state of the block before entering sleep mode.
 103:.\Generated_Source\PSoC5/Quad_2_Cnt16_PM.c **** *
 104:.\Generated_Source\PSoC5/Quad_2_Cnt16_PM.c **** *******************************************************************************/
 105:.\Generated_Source\PSoC5/Quad_2_Cnt16_PM.c **** void Quad_2_Cnt16_Sleep(void) 
 106:.\Generated_Source\PSoC5/Quad_2_Cnt16_PM.c **** {
  98              		.loc 1 106 0
  99              		.cfi_startproc
 100              		@ args = 0, pretend = 0, frame = 0
 101              		@ frame_needed = 0, uses_anonymous_args = 0
 102 0000 08B5     		push	{r3, lr}
 103              		.cfi_def_cfa_offset 8
 104              		.cfi_offset 3, -8
 105              		.cfi_offset 14, -4
 107:.\Generated_Source\PSoC5/Quad_2_Cnt16_PM.c ****     #if(!Quad_2_Cnt16_ControlRegRemoved)
 108:.\Generated_Source\PSoC5/Quad_2_Cnt16_PM.c ****         /* Save Counter's enable state */
 109:.\Generated_Source\PSoC5/Quad_2_Cnt16_PM.c ****         if(Quad_2_Cnt16_CTRL_ENABLE == (Quad_2_Cnt16_CONTROL & Quad_2_Cnt16_CTRL_ENABLE))
 106              		.loc 1 109 0
 107 0002 074B     		ldr	r3, .L11
 108 0004 1B78     		ldrb	r3, [r3]	@ zero_extendqisi2
 109 0006 13F0800F 		tst	r3, #128
 110 000a 064B     		ldr	r3, .L11+4
 110:.\Generated_Source\PSoC5/Quad_2_Cnt16_PM.c ****         {
 111:.\Generated_Source\PSoC5/Quad_2_Cnt16_PM.c ****             /* Counter is enabled */
 112:.\Generated_Source\PSoC5/Quad_2_Cnt16_PM.c ****             Quad_2_Cnt16_backup.CounterEnableState = 1u;
 111              		.loc 1 112 0
 112 000c 14BF     		ite	ne
 113 000e 0122     		movne	r2, #1
 113:.\Generated_Source\PSoC5/Quad_2_Cnt16_PM.c ****         }
 114:.\Generated_Source\PSoC5/Quad_2_Cnt16_PM.c ****         else
ARM GAS  D:\TEMP\ccDR1GRI.s 			page 5


 115:.\Generated_Source\PSoC5/Quad_2_Cnt16_PM.c ****         {
 116:.\Generated_Source\PSoC5/Quad_2_Cnt16_PM.c ****             /* Counter is disabled */
 117:.\Generated_Source\PSoC5/Quad_2_Cnt16_PM.c ****             Quad_2_Cnt16_backup.CounterEnableState = 0u;
 114              		.loc 1 117 0
 115 0010 0022     		moveq	r2, #0
 116 0012 1A70     		strb	r2, [r3]
 118:.\Generated_Source\PSoC5/Quad_2_Cnt16_PM.c ****         }
 119:.\Generated_Source\PSoC5/Quad_2_Cnt16_PM.c ****     #else
 120:.\Generated_Source\PSoC5/Quad_2_Cnt16_PM.c ****         Quad_2_Cnt16_backup.CounterEnableState = 1u;
 121:.\Generated_Source\PSoC5/Quad_2_Cnt16_PM.c ****         if(Quad_2_Cnt16_backup.CounterEnableState != 0u)
 122:.\Generated_Source\PSoC5/Quad_2_Cnt16_PM.c ****         {
 123:.\Generated_Source\PSoC5/Quad_2_Cnt16_PM.c ****             Quad_2_Cnt16_backup.CounterEnableState = 0u;
 124:.\Generated_Source\PSoC5/Quad_2_Cnt16_PM.c ****         }
 125:.\Generated_Source\PSoC5/Quad_2_Cnt16_PM.c ****     #endif /* (!Quad_2_Cnt16_ControlRegRemoved) */
 126:.\Generated_Source\PSoC5/Quad_2_Cnt16_PM.c ****     
 127:.\Generated_Source\PSoC5/Quad_2_Cnt16_PM.c ****     Quad_2_Cnt16_Stop();
 117              		.loc 1 127 0
 118 0014 FFF7FEFF 		bl	Quad_2_Cnt16_Stop
 119              	.LVL4:
 128:.\Generated_Source\PSoC5/Quad_2_Cnt16_PM.c ****     Quad_2_Cnt16_SaveConfig();
 129:.\Generated_Source\PSoC5/Quad_2_Cnt16_PM.c **** }
 120              		.loc 1 129 0
 121 0018 BDE80840 		pop	{r3, lr}
 122              		.cfi_restore 14
 123              		.cfi_restore 3
 124              		.cfi_def_cfa_offset 0
 128:.\Generated_Source\PSoC5/Quad_2_Cnt16_PM.c ****     Quad_2_Cnt16_SaveConfig();
 125              		.loc 1 128 0
 126 001c FFF7FEBF 		b	Quad_2_Cnt16_SaveConfig
 127              	.LVL5:
 128              	.L12:
 129              		.align	2
 130              	.L11:
 131 0020 78650040 		.word	1073767800
 132 0024 00000000 		.word	.LANCHOR0
 133              		.cfi_endproc
 134              	.LFE2:
 135              		.size	Quad_2_Cnt16_Sleep, .-Quad_2_Cnt16_Sleep
 136              		.section	.text.Quad_2_Cnt16_Wakeup,"ax",%progbits
 137              		.align	1
 138              		.global	Quad_2_Cnt16_Wakeup
 139              		.thumb
 140              		.thumb_func
 141              		.type	Quad_2_Cnt16_Wakeup, %function
 142              	Quad_2_Cnt16_Wakeup:
 143              	.LFB3:
 130:.\Generated_Source\PSoC5/Quad_2_Cnt16_PM.c **** 
 131:.\Generated_Source\PSoC5/Quad_2_Cnt16_PM.c **** 
 132:.\Generated_Source\PSoC5/Quad_2_Cnt16_PM.c **** /*******************************************************************************
 133:.\Generated_Source\PSoC5/Quad_2_Cnt16_PM.c **** * Function Name: Quad_2_Cnt16_Wakeup
 134:.\Generated_Source\PSoC5/Quad_2_Cnt16_PM.c **** ********************************************************************************
 135:.\Generated_Source\PSoC5/Quad_2_Cnt16_PM.c **** *
 136:.\Generated_Source\PSoC5/Quad_2_Cnt16_PM.c **** * Summary:
 137:.\Generated_Source\PSoC5/Quad_2_Cnt16_PM.c **** *  Restores and enables the user configuration
 138:.\Generated_Source\PSoC5/Quad_2_Cnt16_PM.c **** *  
 139:.\Generated_Source\PSoC5/Quad_2_Cnt16_PM.c **** * Parameters:  
 140:.\Generated_Source\PSoC5/Quad_2_Cnt16_PM.c **** *  void
ARM GAS  D:\TEMP\ccDR1GRI.s 			page 6


 141:.\Generated_Source\PSoC5/Quad_2_Cnt16_PM.c **** *
 142:.\Generated_Source\PSoC5/Quad_2_Cnt16_PM.c **** * Return: 
 143:.\Generated_Source\PSoC5/Quad_2_Cnt16_PM.c **** *  void
 144:.\Generated_Source\PSoC5/Quad_2_Cnt16_PM.c **** *
 145:.\Generated_Source\PSoC5/Quad_2_Cnt16_PM.c **** * Global variables:
 146:.\Generated_Source\PSoC5/Quad_2_Cnt16_PM.c **** *  Quad_2_Cnt16_backup.enableState:  Is used to restore the enable state of 
 147:.\Generated_Source\PSoC5/Quad_2_Cnt16_PM.c **** *  block on wakeup from sleep mode.
 148:.\Generated_Source\PSoC5/Quad_2_Cnt16_PM.c **** *
 149:.\Generated_Source\PSoC5/Quad_2_Cnt16_PM.c **** *******************************************************************************/
 150:.\Generated_Source\PSoC5/Quad_2_Cnt16_PM.c **** void Quad_2_Cnt16_Wakeup(void) 
 151:.\Generated_Source\PSoC5/Quad_2_Cnt16_PM.c **** {
 144              		.loc 1 151 0
 145              		.cfi_startproc
 146              		@ args = 0, pretend = 0, frame = 0
 147              		@ frame_needed = 0, uses_anonymous_args = 0
 148 0000 08B5     		push	{r3, lr}
 149              		.cfi_def_cfa_offset 8
 150              		.cfi_offset 3, -8
 151              		.cfi_offset 14, -4
 152:.\Generated_Source\PSoC5/Quad_2_Cnt16_PM.c ****     Quad_2_Cnt16_RestoreConfig();
 152              		.loc 1 152 0
 153 0002 FFF7FEFF 		bl	Quad_2_Cnt16_RestoreConfig
 154              	.LVL6:
 153:.\Generated_Source\PSoC5/Quad_2_Cnt16_PM.c ****     #if(!Quad_2_Cnt16_ControlRegRemoved)
 154:.\Generated_Source\PSoC5/Quad_2_Cnt16_PM.c ****         if(Quad_2_Cnt16_backup.CounterEnableState == 1u)
 155              		.loc 1 154 0
 156 0006 044B     		ldr	r3, .L16
 157 0008 1B78     		ldrb	r3, [r3]	@ zero_extendqisi2
 158 000a 012B     		cmp	r3, #1
 159 000c 03D1     		bne	.L13
 155:.\Generated_Source\PSoC5/Quad_2_Cnt16_PM.c ****         {
 156:.\Generated_Source\PSoC5/Quad_2_Cnt16_PM.c ****             /* Enable Counter's operation */
 157:.\Generated_Source\PSoC5/Quad_2_Cnt16_PM.c ****             Quad_2_Cnt16_Enable();
 158:.\Generated_Source\PSoC5/Quad_2_Cnt16_PM.c ****         } /* Do nothing if Counter was disabled before */    
 159:.\Generated_Source\PSoC5/Quad_2_Cnt16_PM.c ****     #endif /* (!Quad_2_Cnt16_ControlRegRemoved) */
 160:.\Generated_Source\PSoC5/Quad_2_Cnt16_PM.c ****     
 161:.\Generated_Source\PSoC5/Quad_2_Cnt16_PM.c **** }
 160              		.loc 1 161 0
 161 000e BDE80840 		pop	{r3, lr}
 162              		.cfi_remember_state
 163              		.cfi_restore 14
 164              		.cfi_restore 3
 165              		.cfi_def_cfa_offset 0
 157:.\Generated_Source\PSoC5/Quad_2_Cnt16_PM.c ****         } /* Do nothing if Counter was disabled before */    
 166              		.loc 1 157 0
 167 0012 FFF7FEBF 		b	Quad_2_Cnt16_Enable
 168              	.LVL7:
 169              	.L13:
 170              		.cfi_restore_state
 171 0016 08BD     		pop	{r3, pc}
 172              	.L17:
 173              		.align	2
 174              	.L16:
 175 0018 00000000 		.word	.LANCHOR0
 176              		.cfi_endproc
 177              	.LFE3:
 178              		.size	Quad_2_Cnt16_Wakeup, .-Quad_2_Cnt16_Wakeup
ARM GAS  D:\TEMP\ccDR1GRI.s 			page 7


 179              		.bss
 180              		.align	1
 181              		.set	.LANCHOR0,. + 0
 182              		.type	Quad_2_Cnt16_backup, %object
 183              		.size	Quad_2_Cnt16_backup, 6
 184              	Quad_2_Cnt16_backup:
 185 0000 00000000 		.space	6
 185      0000
 186              		.text
 187              	.Letext0:
 188              		.file 2 ".\\Generated_Source\\PSoC5\\cytypes.h"
 189              		.file 3 ".\\Generated_Source\\PSoC5\\Quad_2_Cnt16.h"