ARM GAS  D:\TEMP\ccxUQlrk.s 			page 1


   1              		.syntax unified
   2              		.cpu cortex-m3
   3              		.fpu softvfp
   4              		.eabi_attribute 20, 1
   5              		.eabi_attribute 21, 1
   6              		.eabi_attribute 23, 3
   7              		.eabi_attribute 24, 1
   8              		.eabi_attribute 25, 1
   9              		.eabi_attribute 26, 1
  10              		.eabi_attribute 30, 4
  11              		.eabi_attribute 34, 1
  12              		.eabi_attribute 18, 4
  13              		.thumb
  14              		.file	"Quad_1_Cnt16.c"
  15              		.text
  16              	.Ltext0:
  17              		.cfi_sections	.debug_frame
  18              		.section	.text.Quad_1_Cnt16_Enable,"ax",%progbits
  19              		.align	1
  20              		.global	Quad_1_Cnt16_Enable
  21              		.thumb
  22              		.thumb_func
  23              		.type	Quad_1_Cnt16_Enable, %function
  24              	Quad_1_Cnt16_Enable:
  25              	.LFB1:
  26              		.file 1 ".\\Generated_Source\\PSoC5\\Quad_1_Cnt16.c"
   1:.\Generated_Source\PSoC5/Quad_1_Cnt16.c **** /*******************************************************************************
   2:.\Generated_Source\PSoC5/Quad_1_Cnt16.c **** * File Name: Quad_1_Cnt16.c  
   3:.\Generated_Source\PSoC5/Quad_1_Cnt16.c **** * Version 3.0
   4:.\Generated_Source\PSoC5/Quad_1_Cnt16.c **** *
   5:.\Generated_Source\PSoC5/Quad_1_Cnt16.c **** *  Description:
   6:.\Generated_Source\PSoC5/Quad_1_Cnt16.c **** *     The Counter component consists of a 8, 16, 24 or 32-bit counter with
   7:.\Generated_Source\PSoC5/Quad_1_Cnt16.c **** *     a selectable period between 2 and 2^Width - 1.  
   8:.\Generated_Source\PSoC5/Quad_1_Cnt16.c **** *
   9:.\Generated_Source\PSoC5/Quad_1_Cnt16.c **** *   Note:
  10:.\Generated_Source\PSoC5/Quad_1_Cnt16.c **** *     None
  11:.\Generated_Source\PSoC5/Quad_1_Cnt16.c **** *
  12:.\Generated_Source\PSoC5/Quad_1_Cnt16.c **** ********************************************************************************
  13:.\Generated_Source\PSoC5/Quad_1_Cnt16.c **** * Copyright 2008-2012, Cypress Semiconductor Corporation.  All rights reserved.
  14:.\Generated_Source\PSoC5/Quad_1_Cnt16.c **** * You may use this file only in accordance with the license, terms, conditions, 
  15:.\Generated_Source\PSoC5/Quad_1_Cnt16.c **** * disclaimers, and limitations in the end user license agreement accompanying 
  16:.\Generated_Source\PSoC5/Quad_1_Cnt16.c **** * the software package with which this file was provided.
  17:.\Generated_Source\PSoC5/Quad_1_Cnt16.c **** *******************************************************************************/
  18:.\Generated_Source\PSoC5/Quad_1_Cnt16.c **** 
  19:.\Generated_Source\PSoC5/Quad_1_Cnt16.c **** #include "Quad_1_Cnt16.h"
  20:.\Generated_Source\PSoC5/Quad_1_Cnt16.c **** 
  21:.\Generated_Source\PSoC5/Quad_1_Cnt16.c **** uint8 Quad_1_Cnt16_initVar = 0u;
  22:.\Generated_Source\PSoC5/Quad_1_Cnt16.c **** 
  23:.\Generated_Source\PSoC5/Quad_1_Cnt16.c **** 
  24:.\Generated_Source\PSoC5/Quad_1_Cnt16.c **** /*******************************************************************************
  25:.\Generated_Source\PSoC5/Quad_1_Cnt16.c **** * Function Name: Quad_1_Cnt16_Init
  26:.\Generated_Source\PSoC5/Quad_1_Cnt16.c **** ********************************************************************************
  27:.\Generated_Source\PSoC5/Quad_1_Cnt16.c **** * Summary:
  28:.\Generated_Source\PSoC5/Quad_1_Cnt16.c **** *     Initialize to the schematic state
  29:.\Generated_Source\PSoC5/Quad_1_Cnt16.c **** * 
  30:.\Generated_Source\PSoC5/Quad_1_Cnt16.c **** * Parameters:  
  31:.\Generated_Source\PSoC5/Quad_1_Cnt16.c **** *  void  
ARM GAS  D:\TEMP\ccxUQlrk.s 			page 2


  32:.\Generated_Source\PSoC5/Quad_1_Cnt16.c **** *
  33:.\Generated_Source\PSoC5/Quad_1_Cnt16.c **** * Return: 
  34:.\Generated_Source\PSoC5/Quad_1_Cnt16.c **** *  void
  35:.\Generated_Source\PSoC5/Quad_1_Cnt16.c **** *
  36:.\Generated_Source\PSoC5/Quad_1_Cnt16.c **** *******************************************************************************/
  37:.\Generated_Source\PSoC5/Quad_1_Cnt16.c **** void Quad_1_Cnt16_Init(void) 
  38:.\Generated_Source\PSoC5/Quad_1_Cnt16.c **** {
  39:.\Generated_Source\PSoC5/Quad_1_Cnt16.c ****         #if (!Quad_1_Cnt16_UsingFixedFunction && !Quad_1_Cnt16_ControlRegRemoved)
  40:.\Generated_Source\PSoC5/Quad_1_Cnt16.c ****             uint8 ctrl;
  41:.\Generated_Source\PSoC5/Quad_1_Cnt16.c ****         #endif /* (!Quad_1_Cnt16_UsingFixedFunction && !Quad_1_Cnt16_ControlRegRemoved) */
  42:.\Generated_Source\PSoC5/Quad_1_Cnt16.c ****         
  43:.\Generated_Source\PSoC5/Quad_1_Cnt16.c ****         #if(!Quad_1_Cnt16_UsingFixedFunction) 
  44:.\Generated_Source\PSoC5/Quad_1_Cnt16.c ****             /* Interrupt State Backup for Critical Region*/
  45:.\Generated_Source\PSoC5/Quad_1_Cnt16.c ****             uint8 Quad_1_Cnt16_interruptState;
  46:.\Generated_Source\PSoC5/Quad_1_Cnt16.c ****         #endif /* (!Quad_1_Cnt16_UsingFixedFunction) */
  47:.\Generated_Source\PSoC5/Quad_1_Cnt16.c ****         
  48:.\Generated_Source\PSoC5/Quad_1_Cnt16.c ****         #if (Quad_1_Cnt16_UsingFixedFunction)
  49:.\Generated_Source\PSoC5/Quad_1_Cnt16.c ****             /* Clear all bits but the enable bit (if it's already set for Timer operation */
  50:.\Generated_Source\PSoC5/Quad_1_Cnt16.c ****             Quad_1_Cnt16_CONTROL &= Quad_1_Cnt16_CTRL_ENABLE;
  51:.\Generated_Source\PSoC5/Quad_1_Cnt16.c ****             
  52:.\Generated_Source\PSoC5/Quad_1_Cnt16.c ****             /* Clear the mode bits for continuous run mode */
  53:.\Generated_Source\PSoC5/Quad_1_Cnt16.c ****             #if (CY_PSOC5A)
  54:.\Generated_Source\PSoC5/Quad_1_Cnt16.c ****                 Quad_1_Cnt16_CONTROL2 &= ((uint8)(~Quad_1_Cnt16_CTRL_MODE_MASK));
  55:.\Generated_Source\PSoC5/Quad_1_Cnt16.c ****             #endif /* (CY_PSOC5A) */
  56:.\Generated_Source\PSoC5/Quad_1_Cnt16.c ****             #if (CY_PSOC3 || CY_PSOC5LP)
  57:.\Generated_Source\PSoC5/Quad_1_Cnt16.c ****                 Quad_1_Cnt16_CONTROL3 &= ((uint8)(~Quad_1_Cnt16_CTRL_MODE_MASK));                
  58:.\Generated_Source\PSoC5/Quad_1_Cnt16.c ****             #endif /* (CY_PSOC3 || CY_PSOC5LP) */
  59:.\Generated_Source\PSoC5/Quad_1_Cnt16.c ****             /* Check if One Shot mode is enabled i.e. RunMode !=0*/
  60:.\Generated_Source\PSoC5/Quad_1_Cnt16.c ****             #if (Quad_1_Cnt16_RunModeUsed != 0x0u)
  61:.\Generated_Source\PSoC5/Quad_1_Cnt16.c ****                 /* Set 3rd bit of Control register to enable one shot mode */
  62:.\Generated_Source\PSoC5/Quad_1_Cnt16.c ****                 Quad_1_Cnt16_CONTROL |= Quad_1_Cnt16_ONESHOT;
  63:.\Generated_Source\PSoC5/Quad_1_Cnt16.c ****             #endif /* (Quad_1_Cnt16_RunModeUsed != 0x0u) */
  64:.\Generated_Source\PSoC5/Quad_1_Cnt16.c ****             
  65:.\Generated_Source\PSoC5/Quad_1_Cnt16.c ****             /* Set the IRQ to use the status register interrupts */
  66:.\Generated_Source\PSoC5/Quad_1_Cnt16.c ****             Quad_1_Cnt16_CONTROL2 |= Quad_1_Cnt16_CTRL2_IRQ_SEL;
  67:.\Generated_Source\PSoC5/Quad_1_Cnt16.c ****             
  68:.\Generated_Source\PSoC5/Quad_1_Cnt16.c ****             /* Clear and Set SYNCTC and SYNCCMP bits of RT1 register */
  69:.\Generated_Source\PSoC5/Quad_1_Cnt16.c ****             Quad_1_Cnt16_RT1 &= ((uint8)(~Quad_1_Cnt16_RT1_MASK));
  70:.\Generated_Source\PSoC5/Quad_1_Cnt16.c ****             Quad_1_Cnt16_RT1 |= Quad_1_Cnt16_SYNC;     
  71:.\Generated_Source\PSoC5/Quad_1_Cnt16.c ****                     
  72:.\Generated_Source\PSoC5/Quad_1_Cnt16.c ****             /*Enable DSI Sync all all inputs of the Timer*/
  73:.\Generated_Source\PSoC5/Quad_1_Cnt16.c ****             Quad_1_Cnt16_RT1 &= ((uint8)(~Quad_1_Cnt16_SYNCDSI_MASK));
  74:.\Generated_Source\PSoC5/Quad_1_Cnt16.c ****             Quad_1_Cnt16_RT1 |= Quad_1_Cnt16_SYNCDSI_EN;
  75:.\Generated_Source\PSoC5/Quad_1_Cnt16.c **** 
  76:.\Generated_Source\PSoC5/Quad_1_Cnt16.c ****         #else
  77:.\Generated_Source\PSoC5/Quad_1_Cnt16.c ****             #if(!Quad_1_Cnt16_ControlRegRemoved)
  78:.\Generated_Source\PSoC5/Quad_1_Cnt16.c ****             /* Set the default compare mode defined in the parameter */
  79:.\Generated_Source\PSoC5/Quad_1_Cnt16.c ****             ctrl = Quad_1_Cnt16_CONTROL & ((uint8)(~Quad_1_Cnt16_CTRL_CMPMODE_MASK));
  80:.\Generated_Source\PSoC5/Quad_1_Cnt16.c ****             Quad_1_Cnt16_CONTROL = ctrl | Quad_1_Cnt16_DEFAULT_COMPARE_MODE;
  81:.\Generated_Source\PSoC5/Quad_1_Cnt16.c ****             
  82:.\Generated_Source\PSoC5/Quad_1_Cnt16.c ****             /* Set the default capture mode defined in the parameter */
  83:.\Generated_Source\PSoC5/Quad_1_Cnt16.c ****             ctrl = Quad_1_Cnt16_CONTROL & ((uint8)(~Quad_1_Cnt16_CTRL_CAPMODE_MASK));
  84:.\Generated_Source\PSoC5/Quad_1_Cnt16.c ****             
  85:.\Generated_Source\PSoC5/Quad_1_Cnt16.c ****             #if( 0 != Quad_1_Cnt16_CAPTURE_MODE_CONF)
  86:.\Generated_Source\PSoC5/Quad_1_Cnt16.c ****                 Quad_1_Cnt16_CONTROL = ctrl | Quad_1_Cnt16_DEFAULT_CAPTURE_MODE;
  87:.\Generated_Source\PSoC5/Quad_1_Cnt16.c ****             #else
  88:.\Generated_Source\PSoC5/Quad_1_Cnt16.c ****                 Quad_1_Cnt16_CONTROL = ctrl;
ARM GAS  D:\TEMP\ccxUQlrk.s 			page 3


  89:.\Generated_Source\PSoC5/Quad_1_Cnt16.c ****             #endif /* 0 != Quad_1_Cnt16_CAPTURE_MODE */ 
  90:.\Generated_Source\PSoC5/Quad_1_Cnt16.c ****             
  91:.\Generated_Source\PSoC5/Quad_1_Cnt16.c ****             #endif /* (!Quad_1_Cnt16_ControlRegRemoved) */
  92:.\Generated_Source\PSoC5/Quad_1_Cnt16.c ****         #endif /* (Quad_1_Cnt16_UsingFixedFunction) */
  93:.\Generated_Source\PSoC5/Quad_1_Cnt16.c ****         
  94:.\Generated_Source\PSoC5/Quad_1_Cnt16.c ****         /* Clear all data in the FIFO's */
  95:.\Generated_Source\PSoC5/Quad_1_Cnt16.c ****         #if (!Quad_1_Cnt16_UsingFixedFunction)
  96:.\Generated_Source\PSoC5/Quad_1_Cnt16.c ****             Quad_1_Cnt16_ClearFIFO();
  97:.\Generated_Source\PSoC5/Quad_1_Cnt16.c ****         #endif /* (!Quad_1_Cnt16_UsingFixedFunction) */
  98:.\Generated_Source\PSoC5/Quad_1_Cnt16.c ****         
  99:.\Generated_Source\PSoC5/Quad_1_Cnt16.c ****         /* Set Initial values from Configuration */
 100:.\Generated_Source\PSoC5/Quad_1_Cnt16.c ****         Quad_1_Cnt16_WritePeriod(Quad_1_Cnt16_INIT_PERIOD_VALUE);
 101:.\Generated_Source\PSoC5/Quad_1_Cnt16.c ****         #if (!(Quad_1_Cnt16_UsingFixedFunction && (CY_PSOC5A)))
 102:.\Generated_Source\PSoC5/Quad_1_Cnt16.c ****             Quad_1_Cnt16_WriteCounter(Quad_1_Cnt16_INIT_COUNTER_VALUE);
 103:.\Generated_Source\PSoC5/Quad_1_Cnt16.c ****         #endif /* (!(Quad_1_Cnt16_UsingFixedFunction && (CY_PSOC5A))) */
 104:.\Generated_Source\PSoC5/Quad_1_Cnt16.c ****         Quad_1_Cnt16_SetInterruptMode(Quad_1_Cnt16_INIT_INTERRUPTS_MASK);
 105:.\Generated_Source\PSoC5/Quad_1_Cnt16.c ****         
 106:.\Generated_Source\PSoC5/Quad_1_Cnt16.c ****         #if (!Quad_1_Cnt16_UsingFixedFunction)
 107:.\Generated_Source\PSoC5/Quad_1_Cnt16.c ****             /* Read the status register to clear the unwanted interrupts */
 108:.\Generated_Source\PSoC5/Quad_1_Cnt16.c ****             (void)Quad_1_Cnt16_ReadStatusRegister();
 109:.\Generated_Source\PSoC5/Quad_1_Cnt16.c ****             /* Set the compare value (only available to non-fixed function implementation */
 110:.\Generated_Source\PSoC5/Quad_1_Cnt16.c ****             Quad_1_Cnt16_WriteCompare(Quad_1_Cnt16_INIT_COMPARE_VALUE);
 111:.\Generated_Source\PSoC5/Quad_1_Cnt16.c ****             /* Use the interrupt output of the status register for IRQ output */
 112:.\Generated_Source\PSoC5/Quad_1_Cnt16.c ****             
 113:.\Generated_Source\PSoC5/Quad_1_Cnt16.c ****             /* CyEnterCriticalRegion and CyExitCriticalRegion are used to mark following region cri
 114:.\Generated_Source\PSoC5/Quad_1_Cnt16.c ****             /* Enter Critical Region*/
 115:.\Generated_Source\PSoC5/Quad_1_Cnt16.c ****             Quad_1_Cnt16_interruptState = CyEnterCriticalSection();
 116:.\Generated_Source\PSoC5/Quad_1_Cnt16.c ****             
 117:.\Generated_Source\PSoC5/Quad_1_Cnt16.c ****             Quad_1_Cnt16_STATUS_AUX_CTRL |= Quad_1_Cnt16_STATUS_ACTL_INT_EN_MASK;
 118:.\Generated_Source\PSoC5/Quad_1_Cnt16.c ****             
 119:.\Generated_Source\PSoC5/Quad_1_Cnt16.c ****             /* Exit Critical Region*/
 120:.\Generated_Source\PSoC5/Quad_1_Cnt16.c ****             CyExitCriticalSection(Quad_1_Cnt16_interruptState);
 121:.\Generated_Source\PSoC5/Quad_1_Cnt16.c ****             
 122:.\Generated_Source\PSoC5/Quad_1_Cnt16.c ****         #endif /* (!Quad_1_Cnt16_UsingFixedFunction) */
 123:.\Generated_Source\PSoC5/Quad_1_Cnt16.c **** }
 124:.\Generated_Source\PSoC5/Quad_1_Cnt16.c **** 
 125:.\Generated_Source\PSoC5/Quad_1_Cnt16.c **** 
 126:.\Generated_Source\PSoC5/Quad_1_Cnt16.c **** /*******************************************************************************
 127:.\Generated_Source\PSoC5/Quad_1_Cnt16.c **** * Function Name: Quad_1_Cnt16_Enable
 128:.\Generated_Source\PSoC5/Quad_1_Cnt16.c **** ********************************************************************************
 129:.\Generated_Source\PSoC5/Quad_1_Cnt16.c **** * Summary:
 130:.\Generated_Source\PSoC5/Quad_1_Cnt16.c **** *     Enable the Counter
 131:.\Generated_Source\PSoC5/Quad_1_Cnt16.c **** * 
 132:.\Generated_Source\PSoC5/Quad_1_Cnt16.c **** * Parameters:  
 133:.\Generated_Source\PSoC5/Quad_1_Cnt16.c **** *  void  
 134:.\Generated_Source\PSoC5/Quad_1_Cnt16.c **** *
 135:.\Generated_Source\PSoC5/Quad_1_Cnt16.c **** * Return: 
 136:.\Generated_Source\PSoC5/Quad_1_Cnt16.c **** *  void
 137:.\Generated_Source\PSoC5/Quad_1_Cnt16.c **** *
 138:.\Generated_Source\PSoC5/Quad_1_Cnt16.c **** * Side Effects: 
 139:.\Generated_Source\PSoC5/Quad_1_Cnt16.c **** *   If the Enable mode is set to Hardware only then this function has no effect 
 140:.\Generated_Source\PSoC5/Quad_1_Cnt16.c **** *   on the operation of the counter.
 141:.\Generated_Source\PSoC5/Quad_1_Cnt16.c **** *
 142:.\Generated_Source\PSoC5/Quad_1_Cnt16.c **** *******************************************************************************/
 143:.\Generated_Source\PSoC5/Quad_1_Cnt16.c **** void Quad_1_Cnt16_Enable(void) 
 144:.\Generated_Source\PSoC5/Quad_1_Cnt16.c **** {
  27              		.loc 1 144 0
ARM GAS  D:\TEMP\ccxUQlrk.s 			page 4


  28              		.cfi_startproc
  29              		@ args = 0, pretend = 0, frame = 0
  30              		@ frame_needed = 0, uses_anonymous_args = 0
  31              		@ link register save eliminated.
 145:.\Generated_Source\PSoC5/Quad_1_Cnt16.c ****     /* Globally Enable the Fixed Function Block chosen */
 146:.\Generated_Source\PSoC5/Quad_1_Cnt16.c ****     #if (Quad_1_Cnt16_UsingFixedFunction)
 147:.\Generated_Source\PSoC5/Quad_1_Cnt16.c ****         Quad_1_Cnt16_GLOBAL_ENABLE |= Quad_1_Cnt16_BLOCK_EN_MASK;
 148:.\Generated_Source\PSoC5/Quad_1_Cnt16.c ****         Quad_1_Cnt16_GLOBAL_STBY_ENABLE |= Quad_1_Cnt16_BLOCK_STBY_EN_MASK;
 149:.\Generated_Source\PSoC5/Quad_1_Cnt16.c ****     #endif /* (Quad_1_Cnt16_UsingFixedFunction) */  
 150:.\Generated_Source\PSoC5/Quad_1_Cnt16.c ****         
 151:.\Generated_Source\PSoC5/Quad_1_Cnt16.c ****     /* Enable the counter from the control register  */
 152:.\Generated_Source\PSoC5/Quad_1_Cnt16.c ****     /* If Fixed Function then make sure Mode is set correctly */
 153:.\Generated_Source\PSoC5/Quad_1_Cnt16.c ****     /* else make sure reset is clear */
 154:.\Generated_Source\PSoC5/Quad_1_Cnt16.c ****     #if(!Quad_1_Cnt16_ControlRegRemoved || Quad_1_Cnt16_UsingFixedFunction)
 155:.\Generated_Source\PSoC5/Quad_1_Cnt16.c ****         Quad_1_Cnt16_CONTROL |= Quad_1_Cnt16_CTRL_ENABLE;                
  32              		.loc 1 155 0
  33 0000 024A     		ldr	r2, .L2
  34 0002 1378     		ldrb	r3, [r2]	@ zero_extendqisi2
  35 0004 43F08003 		orr	r3, r3, #128
  36 0008 1370     		strb	r3, [r2]
  37 000a 7047     		bx	lr
  38              	.L3:
  39              		.align	2
  40              	.L2:
  41 000c 76640040 		.word	1073767542
  42              		.cfi_endproc
  43              	.LFE1:
  44              		.size	Quad_1_Cnt16_Enable, .-Quad_1_Cnt16_Enable
  45              		.section	.text.Quad_1_Cnt16_Stop,"ax",%progbits
  46              		.align	1
  47              		.global	Quad_1_Cnt16_Stop
  48              		.thumb
  49              		.thumb_func
  50              		.type	Quad_1_Cnt16_Stop, %function
  51              	Quad_1_Cnt16_Stop:
  52              	.LFB3:
 156:.\Generated_Source\PSoC5/Quad_1_Cnt16.c ****     #endif /* (!Quad_1_Cnt16_ControlRegRemoved || Quad_1_Cnt16_UsingFixedFunction) */
 157:.\Generated_Source\PSoC5/Quad_1_Cnt16.c ****     
 158:.\Generated_Source\PSoC5/Quad_1_Cnt16.c **** }
 159:.\Generated_Source\PSoC5/Quad_1_Cnt16.c **** 
 160:.\Generated_Source\PSoC5/Quad_1_Cnt16.c **** 
 161:.\Generated_Source\PSoC5/Quad_1_Cnt16.c **** /*******************************************************************************
 162:.\Generated_Source\PSoC5/Quad_1_Cnt16.c **** * Function Name: Quad_1_Cnt16_Start
 163:.\Generated_Source\PSoC5/Quad_1_Cnt16.c **** ********************************************************************************
 164:.\Generated_Source\PSoC5/Quad_1_Cnt16.c **** * Summary:
 165:.\Generated_Source\PSoC5/Quad_1_Cnt16.c **** *  Enables the counter for operation 
 166:.\Generated_Source\PSoC5/Quad_1_Cnt16.c **** *
 167:.\Generated_Source\PSoC5/Quad_1_Cnt16.c **** * Parameters:  
 168:.\Generated_Source\PSoC5/Quad_1_Cnt16.c **** *  void  
 169:.\Generated_Source\PSoC5/Quad_1_Cnt16.c **** *
 170:.\Generated_Source\PSoC5/Quad_1_Cnt16.c **** * Return: 
 171:.\Generated_Source\PSoC5/Quad_1_Cnt16.c **** *  void
 172:.\Generated_Source\PSoC5/Quad_1_Cnt16.c **** *
 173:.\Generated_Source\PSoC5/Quad_1_Cnt16.c **** * Global variables:
 174:.\Generated_Source\PSoC5/Quad_1_Cnt16.c **** *  Quad_1_Cnt16_initVar: Is modified when this function is called for the  
 175:.\Generated_Source\PSoC5/Quad_1_Cnt16.c **** *   first time. Is used to ensure that initialization happens only once.
 176:.\Generated_Source\PSoC5/Quad_1_Cnt16.c **** *
ARM GAS  D:\TEMP\ccxUQlrk.s 			page 5


 177:.\Generated_Source\PSoC5/Quad_1_Cnt16.c **** *******************************************************************************/
 178:.\Generated_Source\PSoC5/Quad_1_Cnt16.c **** void Quad_1_Cnt16_Start(void) 
 179:.\Generated_Source\PSoC5/Quad_1_Cnt16.c **** {
 180:.\Generated_Source\PSoC5/Quad_1_Cnt16.c ****     if(Quad_1_Cnt16_initVar == 0u)
 181:.\Generated_Source\PSoC5/Quad_1_Cnt16.c ****     {
 182:.\Generated_Source\PSoC5/Quad_1_Cnt16.c ****         Quad_1_Cnt16_Init();
 183:.\Generated_Source\PSoC5/Quad_1_Cnt16.c ****         
 184:.\Generated_Source\PSoC5/Quad_1_Cnt16.c ****         Quad_1_Cnt16_initVar = 1u; /* Clear this bit for Initialization */        
 185:.\Generated_Source\PSoC5/Quad_1_Cnt16.c ****     }
 186:.\Generated_Source\PSoC5/Quad_1_Cnt16.c ****     
 187:.\Generated_Source\PSoC5/Quad_1_Cnt16.c ****     /* Enable the Counter */
 188:.\Generated_Source\PSoC5/Quad_1_Cnt16.c ****     Quad_1_Cnt16_Enable();        
 189:.\Generated_Source\PSoC5/Quad_1_Cnt16.c **** }
 190:.\Generated_Source\PSoC5/Quad_1_Cnt16.c **** 
 191:.\Generated_Source\PSoC5/Quad_1_Cnt16.c **** 
 192:.\Generated_Source\PSoC5/Quad_1_Cnt16.c **** /*******************************************************************************
 193:.\Generated_Source\PSoC5/Quad_1_Cnt16.c **** * Function Name: Quad_1_Cnt16_Stop
 194:.\Generated_Source\PSoC5/Quad_1_Cnt16.c **** ********************************************************************************
 195:.\Generated_Source\PSoC5/Quad_1_Cnt16.c **** * Summary:
 196:.\Generated_Source\PSoC5/Quad_1_Cnt16.c **** * Halts the counter, but does not change any modes or disable interrupts.
 197:.\Generated_Source\PSoC5/Quad_1_Cnt16.c **** *
 198:.\Generated_Source\PSoC5/Quad_1_Cnt16.c **** * Parameters:  
 199:.\Generated_Source\PSoC5/Quad_1_Cnt16.c **** *  void  
 200:.\Generated_Source\PSoC5/Quad_1_Cnt16.c **** *
 201:.\Generated_Source\PSoC5/Quad_1_Cnt16.c **** * Return: 
 202:.\Generated_Source\PSoC5/Quad_1_Cnt16.c **** *  void
 203:.\Generated_Source\PSoC5/Quad_1_Cnt16.c **** *
 204:.\Generated_Source\PSoC5/Quad_1_Cnt16.c **** * Side Effects: If the Enable mode is set to Hardware only then this function
 205:.\Generated_Source\PSoC5/Quad_1_Cnt16.c **** *               has no effect on the operation of the counter.
 206:.\Generated_Source\PSoC5/Quad_1_Cnt16.c **** *
 207:.\Generated_Source\PSoC5/Quad_1_Cnt16.c **** *******************************************************************************/
 208:.\Generated_Source\PSoC5/Quad_1_Cnt16.c **** void Quad_1_Cnt16_Stop(void) 
 209:.\Generated_Source\PSoC5/Quad_1_Cnt16.c **** {
  53              		.loc 1 209 0
  54              		.cfi_startproc
  55              		@ args = 0, pretend = 0, frame = 0
  56              		@ frame_needed = 0, uses_anonymous_args = 0
  57              		@ link register save eliminated.
 210:.\Generated_Source\PSoC5/Quad_1_Cnt16.c ****     /* Disable Counter */
 211:.\Generated_Source\PSoC5/Quad_1_Cnt16.c ****     #if(!Quad_1_Cnt16_ControlRegRemoved || Quad_1_Cnt16_UsingFixedFunction)
 212:.\Generated_Source\PSoC5/Quad_1_Cnt16.c ****         Quad_1_Cnt16_CONTROL &= ((uint8)(~Quad_1_Cnt16_CTRL_ENABLE));        
  58              		.loc 1 212 0
  59 0000 024A     		ldr	r2, .L5
  60 0002 1378     		ldrb	r3, [r2]	@ zero_extendqisi2
  61 0004 03F07F03 		and	r3, r3, #127
  62 0008 1370     		strb	r3, [r2]
  63 000a 7047     		bx	lr
  64              	.L6:
  65              		.align	2
  66              	.L5:
  67 000c 76640040 		.word	1073767542
  68              		.cfi_endproc
  69              	.LFE3:
  70              		.size	Quad_1_Cnt16_Stop, .-Quad_1_Cnt16_Stop
  71              		.section	.text.Quad_1_Cnt16_SetInterruptMode,"ax",%progbits
  72              		.align	1
  73              		.global	Quad_1_Cnt16_SetInterruptMode
ARM GAS  D:\TEMP\ccxUQlrk.s 			page 6


  74              		.thumb
  75              		.thumb_func
  76              		.type	Quad_1_Cnt16_SetInterruptMode, %function
  77              	Quad_1_Cnt16_SetInterruptMode:
  78              	.LFB4:
 213:.\Generated_Source\PSoC5/Quad_1_Cnt16.c ****     #endif /* (!Quad_1_Cnt16_ControlRegRemoved || Quad_1_Cnt16_UsingFixedFunction) */
 214:.\Generated_Source\PSoC5/Quad_1_Cnt16.c ****     
 215:.\Generated_Source\PSoC5/Quad_1_Cnt16.c ****     /* Globally disable the Fixed Function Block chosen */
 216:.\Generated_Source\PSoC5/Quad_1_Cnt16.c ****     #if (Quad_1_Cnt16_UsingFixedFunction)
 217:.\Generated_Source\PSoC5/Quad_1_Cnt16.c ****         Quad_1_Cnt16_GLOBAL_ENABLE &= ((uint8)(~Quad_1_Cnt16_BLOCK_EN_MASK));
 218:.\Generated_Source\PSoC5/Quad_1_Cnt16.c ****         Quad_1_Cnt16_GLOBAL_STBY_ENABLE &= ((uint8)(~Quad_1_Cnt16_BLOCK_STBY_EN_MASK));
 219:.\Generated_Source\PSoC5/Quad_1_Cnt16.c ****     #endif /* (Quad_1_Cnt16_UsingFixedFunction) */
 220:.\Generated_Source\PSoC5/Quad_1_Cnt16.c **** }
 221:.\Generated_Source\PSoC5/Quad_1_Cnt16.c **** 
 222:.\Generated_Source\PSoC5/Quad_1_Cnt16.c **** 
 223:.\Generated_Source\PSoC5/Quad_1_Cnt16.c **** /*******************************************************************************
 224:.\Generated_Source\PSoC5/Quad_1_Cnt16.c **** * Function Name: Quad_1_Cnt16_SetInterruptMode
 225:.\Generated_Source\PSoC5/Quad_1_Cnt16.c **** ********************************************************************************
 226:.\Generated_Source\PSoC5/Quad_1_Cnt16.c **** * Summary:
 227:.\Generated_Source\PSoC5/Quad_1_Cnt16.c **** * Configures which interrupt sources are enabled to generate the final interrupt
 228:.\Generated_Source\PSoC5/Quad_1_Cnt16.c **** *
 229:.\Generated_Source\PSoC5/Quad_1_Cnt16.c **** * Parameters:  
 230:.\Generated_Source\PSoC5/Quad_1_Cnt16.c **** *  InterruptsMask: This parameter is an or'd collection of the status bits
 231:.\Generated_Source\PSoC5/Quad_1_Cnt16.c **** *                   which will be allowed to generate the counters interrupt.   
 232:.\Generated_Source\PSoC5/Quad_1_Cnt16.c **** *
 233:.\Generated_Source\PSoC5/Quad_1_Cnt16.c **** * Return: 
 234:.\Generated_Source\PSoC5/Quad_1_Cnt16.c **** *  void
 235:.\Generated_Source\PSoC5/Quad_1_Cnt16.c **** *
 236:.\Generated_Source\PSoC5/Quad_1_Cnt16.c **** *******************************************************************************/
 237:.\Generated_Source\PSoC5/Quad_1_Cnt16.c **** void Quad_1_Cnt16_SetInterruptMode(uint8 interruptsMask) 
 238:.\Generated_Source\PSoC5/Quad_1_Cnt16.c **** {
  79              		.loc 1 238 0
  80              		.cfi_startproc
  81              		@ args = 0, pretend = 0, frame = 0
  82              		@ frame_needed = 0, uses_anonymous_args = 0
  83              		@ link register save eliminated.
  84              	.LVL0:
 239:.\Generated_Source\PSoC5/Quad_1_Cnt16.c ****     Quad_1_Cnt16_STATUS_MASK = interruptsMask;
  85              		.loc 1 239 0
  86 0000 014B     		ldr	r3, .L8
  87 0002 1870     		strb	r0, [r3]
  88 0004 7047     		bx	lr
  89              	.L9:
  90 0006 00BF     		.align	2
  91              	.L8:
  92 0008 84650040 		.word	1073767812
  93              		.cfi_endproc
  94              	.LFE4:
  95              		.size	Quad_1_Cnt16_SetInterruptMode, .-Quad_1_Cnt16_SetInterruptMode
  96              		.section	.text.Quad_1_Cnt16_ReadStatusRegister,"ax",%progbits
  97              		.align	1
  98              		.global	Quad_1_Cnt16_ReadStatusRegister
  99              		.thumb
 100              		.thumb_func
 101              		.type	Quad_1_Cnt16_ReadStatusRegister, %function
 102              	Quad_1_Cnt16_ReadStatusRegister:
 103              	.LFB5:
ARM GAS  D:\TEMP\ccxUQlrk.s 			page 7


 240:.\Generated_Source\PSoC5/Quad_1_Cnt16.c **** }
 241:.\Generated_Source\PSoC5/Quad_1_Cnt16.c **** 
 242:.\Generated_Source\PSoC5/Quad_1_Cnt16.c **** 
 243:.\Generated_Source\PSoC5/Quad_1_Cnt16.c **** /*******************************************************************************
 244:.\Generated_Source\PSoC5/Quad_1_Cnt16.c **** * Function Name: Quad_1_Cnt16_ReadStatusRegister
 245:.\Generated_Source\PSoC5/Quad_1_Cnt16.c **** ********************************************************************************
 246:.\Generated_Source\PSoC5/Quad_1_Cnt16.c **** * Summary:
 247:.\Generated_Source\PSoC5/Quad_1_Cnt16.c **** *   Reads the status register and returns it's state. This function should use
 248:.\Generated_Source\PSoC5/Quad_1_Cnt16.c **** *       defined types for the bit-field information as the bits in this
 249:.\Generated_Source\PSoC5/Quad_1_Cnt16.c **** *       register may be permuteable.
 250:.\Generated_Source\PSoC5/Quad_1_Cnt16.c **** *
 251:.\Generated_Source\PSoC5/Quad_1_Cnt16.c **** * Parameters:  
 252:.\Generated_Source\PSoC5/Quad_1_Cnt16.c **** *  void
 253:.\Generated_Source\PSoC5/Quad_1_Cnt16.c **** *
 254:.\Generated_Source\PSoC5/Quad_1_Cnt16.c **** * Return: 
 255:.\Generated_Source\PSoC5/Quad_1_Cnt16.c **** *  (uint8) The contents of the status register
 256:.\Generated_Source\PSoC5/Quad_1_Cnt16.c **** *
 257:.\Generated_Source\PSoC5/Quad_1_Cnt16.c **** * Side Effects:
 258:.\Generated_Source\PSoC5/Quad_1_Cnt16.c **** *   Status register bits may be clear on read. 
 259:.\Generated_Source\PSoC5/Quad_1_Cnt16.c **** *
 260:.\Generated_Source\PSoC5/Quad_1_Cnt16.c **** *******************************************************************************/
 261:.\Generated_Source\PSoC5/Quad_1_Cnt16.c **** uint8   Quad_1_Cnt16_ReadStatusRegister(void) 
 262:.\Generated_Source\PSoC5/Quad_1_Cnt16.c **** {
 104              		.loc 1 262 0
 105              		.cfi_startproc
 106              		@ args = 0, pretend = 0, frame = 0
 107              		@ frame_needed = 0, uses_anonymous_args = 0
 108              		@ link register save eliminated.
 263:.\Generated_Source\PSoC5/Quad_1_Cnt16.c ****     return Quad_1_Cnt16_STATUS;
 109              		.loc 1 263 0
 110 0000 014B     		ldr	r3, .L11
 111 0002 1878     		ldrb	r0, [r3]	@ zero_extendqisi2
 264:.\Generated_Source\PSoC5/Quad_1_Cnt16.c **** }
 112              		.loc 1 264 0
 113 0004 7047     		bx	lr
 114              	.L12:
 115 0006 00BF     		.align	2
 116              	.L11:
 117 0008 64650040 		.word	1073767780
 118              		.cfi_endproc
 119              	.LFE5:
 120              		.size	Quad_1_Cnt16_ReadStatusRegister, .-Quad_1_Cnt16_ReadStatusRegister
 121              		.section	.text.Quad_1_Cnt16_ReadControlRegister,"ax",%progbits
 122              		.align	1
 123              		.global	Quad_1_Cnt16_ReadControlRegister
 124              		.thumb
 125              		.thumb_func
 126              		.type	Quad_1_Cnt16_ReadControlRegister, %function
 127              	Quad_1_Cnt16_ReadControlRegister:
 128              	.LFB6:
 265:.\Generated_Source\PSoC5/Quad_1_Cnt16.c **** 
 266:.\Generated_Source\PSoC5/Quad_1_Cnt16.c **** 
 267:.\Generated_Source\PSoC5/Quad_1_Cnt16.c **** #if(!Quad_1_Cnt16_ControlRegRemoved)
 268:.\Generated_Source\PSoC5/Quad_1_Cnt16.c **** /*******************************************************************************
 269:.\Generated_Source\PSoC5/Quad_1_Cnt16.c **** * Function Name: Quad_1_Cnt16_ReadControlRegister
 270:.\Generated_Source\PSoC5/Quad_1_Cnt16.c **** ********************************************************************************
 271:.\Generated_Source\PSoC5/Quad_1_Cnt16.c **** * Summary:
ARM GAS  D:\TEMP\ccxUQlrk.s 			page 8


 272:.\Generated_Source\PSoC5/Quad_1_Cnt16.c **** *   Reads the control register and returns it's state. This function should use
 273:.\Generated_Source\PSoC5/Quad_1_Cnt16.c **** *       defined types for the bit-field information as the bits in this
 274:.\Generated_Source\PSoC5/Quad_1_Cnt16.c **** *       register may be permuteable.
 275:.\Generated_Source\PSoC5/Quad_1_Cnt16.c **** *
 276:.\Generated_Source\PSoC5/Quad_1_Cnt16.c **** * Parameters:  
 277:.\Generated_Source\PSoC5/Quad_1_Cnt16.c **** *  void
 278:.\Generated_Source\PSoC5/Quad_1_Cnt16.c **** *
 279:.\Generated_Source\PSoC5/Quad_1_Cnt16.c **** * Return: 
 280:.\Generated_Source\PSoC5/Quad_1_Cnt16.c **** *  (uint8) The contents of the control register
 281:.\Generated_Source\PSoC5/Quad_1_Cnt16.c **** *
 282:.\Generated_Source\PSoC5/Quad_1_Cnt16.c **** *******************************************************************************/
 283:.\Generated_Source\PSoC5/Quad_1_Cnt16.c **** uint8   Quad_1_Cnt16_ReadControlRegister(void) 
 284:.\Generated_Source\PSoC5/Quad_1_Cnt16.c **** {
 129              		.loc 1 284 0
 130              		.cfi_startproc
 131              		@ args = 0, pretend = 0, frame = 0
 132              		@ frame_needed = 0, uses_anonymous_args = 0
 133              		@ link register save eliminated.
 285:.\Generated_Source\PSoC5/Quad_1_Cnt16.c ****     return Quad_1_Cnt16_CONTROL;
 134              		.loc 1 285 0
 135 0000 014B     		ldr	r3, .L14
 136 0002 1878     		ldrb	r0, [r3]	@ zero_extendqisi2
 286:.\Generated_Source\PSoC5/Quad_1_Cnt16.c **** }
 137              		.loc 1 286 0
 138 0004 7047     		bx	lr
 139              	.L15:
 140 0006 00BF     		.align	2
 141              	.L14:
 142 0008 76640040 		.word	1073767542
 143              		.cfi_endproc
 144              	.LFE6:
 145              		.size	Quad_1_Cnt16_ReadControlRegister, .-Quad_1_Cnt16_ReadControlRegister
 146              		.section	.text.Quad_1_Cnt16_WriteControlRegister,"ax",%progbits
 147              		.align	1
 148              		.global	Quad_1_Cnt16_WriteControlRegister
 149              		.thumb
 150              		.thumb_func
 151              		.type	Quad_1_Cnt16_WriteControlRegister, %function
 152              	Quad_1_Cnt16_WriteControlRegister:
 153              	.LFB7:
 287:.\Generated_Source\PSoC5/Quad_1_Cnt16.c **** 
 288:.\Generated_Source\PSoC5/Quad_1_Cnt16.c **** 
 289:.\Generated_Source\PSoC5/Quad_1_Cnt16.c **** /*******************************************************************************
 290:.\Generated_Source\PSoC5/Quad_1_Cnt16.c **** * Function Name: Quad_1_Cnt16_WriteControlRegister
 291:.\Generated_Source\PSoC5/Quad_1_Cnt16.c **** ********************************************************************************
 292:.\Generated_Source\PSoC5/Quad_1_Cnt16.c **** * Summary:
 293:.\Generated_Source\PSoC5/Quad_1_Cnt16.c **** *   Sets the bit-field of the control register.  This function should use
 294:.\Generated_Source\PSoC5/Quad_1_Cnt16.c **** *       defined types for the bit-field information as the bits in this
 295:.\Generated_Source\PSoC5/Quad_1_Cnt16.c **** *       register may be permuteable.
 296:.\Generated_Source\PSoC5/Quad_1_Cnt16.c **** *
 297:.\Generated_Source\PSoC5/Quad_1_Cnt16.c **** * Parameters:  
 298:.\Generated_Source\PSoC5/Quad_1_Cnt16.c **** *  void
 299:.\Generated_Source\PSoC5/Quad_1_Cnt16.c **** *
 300:.\Generated_Source\PSoC5/Quad_1_Cnt16.c **** * Return: 
 301:.\Generated_Source\PSoC5/Quad_1_Cnt16.c **** *  (uint8) The contents of the control register
 302:.\Generated_Source\PSoC5/Quad_1_Cnt16.c **** *
 303:.\Generated_Source\PSoC5/Quad_1_Cnt16.c **** *******************************************************************************/
ARM GAS  D:\TEMP\ccxUQlrk.s 			page 9


 304:.\Generated_Source\PSoC5/Quad_1_Cnt16.c **** void    Quad_1_Cnt16_WriteControlRegister(uint8 control) 
 305:.\Generated_Source\PSoC5/Quad_1_Cnt16.c **** {
 154              		.loc 1 305 0
 155              		.cfi_startproc
 156              		@ args = 0, pretend = 0, frame = 0
 157              		@ frame_needed = 0, uses_anonymous_args = 0
 158              		@ link register save eliminated.
 159              	.LVL1:
 306:.\Generated_Source\PSoC5/Quad_1_Cnt16.c ****     Quad_1_Cnt16_CONTROL = control;
 160              		.loc 1 306 0
 161 0000 014B     		ldr	r3, .L17
 162 0002 1870     		strb	r0, [r3]
 163 0004 7047     		bx	lr
 164              	.L18:
 165 0006 00BF     		.align	2
 166              	.L17:
 167 0008 76640040 		.word	1073767542
 168              		.cfi_endproc
 169              	.LFE7:
 170              		.size	Quad_1_Cnt16_WriteControlRegister, .-Quad_1_Cnt16_WriteControlRegister
 171              		.section	.text.Quad_1_Cnt16_WriteCounter,"ax",%progbits
 172              		.align	1
 173              		.global	Quad_1_Cnt16_WriteCounter
 174              		.thumb
 175              		.thumb_func
 176              		.type	Quad_1_Cnt16_WriteCounter, %function
 177              	Quad_1_Cnt16_WriteCounter:
 178              	.LFB8:
 307:.\Generated_Source\PSoC5/Quad_1_Cnt16.c **** }
 308:.\Generated_Source\PSoC5/Quad_1_Cnt16.c **** 
 309:.\Generated_Source\PSoC5/Quad_1_Cnt16.c **** #endif  /* (!Quad_1_Cnt16_ControlRegRemoved) */
 310:.\Generated_Source\PSoC5/Quad_1_Cnt16.c **** 
 311:.\Generated_Source\PSoC5/Quad_1_Cnt16.c **** 
 312:.\Generated_Source\PSoC5/Quad_1_Cnt16.c **** #if (!(Quad_1_Cnt16_UsingFixedFunction && (CY_PSOC5A)))
 313:.\Generated_Source\PSoC5/Quad_1_Cnt16.c **** /*******************************************************************************
 314:.\Generated_Source\PSoC5/Quad_1_Cnt16.c **** * Function Name: Quad_1_Cnt16_WriteCounter
 315:.\Generated_Source\PSoC5/Quad_1_Cnt16.c **** ********************************************************************************
 316:.\Generated_Source\PSoC5/Quad_1_Cnt16.c **** * Summary:
 317:.\Generated_Source\PSoC5/Quad_1_Cnt16.c **** *   This funtion is used to set the counter to a specific value
 318:.\Generated_Source\PSoC5/Quad_1_Cnt16.c **** *
 319:.\Generated_Source\PSoC5/Quad_1_Cnt16.c **** * Parameters:  
 320:.\Generated_Source\PSoC5/Quad_1_Cnt16.c **** *  counter:  New counter value. 
 321:.\Generated_Source\PSoC5/Quad_1_Cnt16.c **** *
 322:.\Generated_Source\PSoC5/Quad_1_Cnt16.c **** * Return: 
 323:.\Generated_Source\PSoC5/Quad_1_Cnt16.c **** *  void 
 324:.\Generated_Source\PSoC5/Quad_1_Cnt16.c **** *
 325:.\Generated_Source\PSoC5/Quad_1_Cnt16.c **** *******************************************************************************/
 326:.\Generated_Source\PSoC5/Quad_1_Cnt16.c **** void Quad_1_Cnt16_WriteCounter(uint16 counter) \
 327:.\Generated_Source\PSoC5/Quad_1_Cnt16.c ****                                    
 328:.\Generated_Source\PSoC5/Quad_1_Cnt16.c **** {
 179              		.loc 1 328 0
 180              		.cfi_startproc
 181              		@ args = 0, pretend = 0, frame = 0
 182              		@ frame_needed = 0, uses_anonymous_args = 0
 183              		@ link register save eliminated.
 184              	.LVL2:
 329:.\Generated_Source\PSoC5/Quad_1_Cnt16.c ****     #if(Quad_1_Cnt16_UsingFixedFunction)
ARM GAS  D:\TEMP\ccxUQlrk.s 			page 10


 330:.\Generated_Source\PSoC5/Quad_1_Cnt16.c ****         /* assert if block is already enabled */
 331:.\Generated_Source\PSoC5/Quad_1_Cnt16.c ****         CYASSERT (0u == (Quad_1_Cnt16_GLOBAL_ENABLE & Quad_1_Cnt16_BLOCK_EN_MASK));
 332:.\Generated_Source\PSoC5/Quad_1_Cnt16.c ****         /* If block is disabled, enable it and then write the counter */
 333:.\Generated_Source\PSoC5/Quad_1_Cnt16.c ****         Quad_1_Cnt16_GLOBAL_ENABLE |= Quad_1_Cnt16_BLOCK_EN_MASK;
 334:.\Generated_Source\PSoC5/Quad_1_Cnt16.c ****         CY_SET_REG16(Quad_1_Cnt16_COUNTER_LSB_PTR, (uint16)counter);
 335:.\Generated_Source\PSoC5/Quad_1_Cnt16.c ****         Quad_1_Cnt16_GLOBAL_ENABLE &= ((uint8)(~Quad_1_Cnt16_BLOCK_EN_MASK));
 336:.\Generated_Source\PSoC5/Quad_1_Cnt16.c ****     #else
 337:.\Generated_Source\PSoC5/Quad_1_Cnt16.c ****         CY_SET_REG16(Quad_1_Cnt16_COUNTER_LSB_PTR, counter);
 185              		.loc 1 337 0
 186 0000 014B     		ldr	r3, .L20
 187 0002 1880     		strh	r0, [r3]	@ movhi
 188 0004 7047     		bx	lr
 189              	.L21:
 190 0006 00BF     		.align	2
 191              	.L20:
 192 0008 146A0040 		.word	1073768980
 193              		.cfi_endproc
 194              	.LFE8:
 195              		.size	Quad_1_Cnt16_WriteCounter, .-Quad_1_Cnt16_WriteCounter
 196              		.section	.text.Quad_1_Cnt16_ReadCounter,"ax",%progbits
 197              		.align	1
 198              		.global	Quad_1_Cnt16_ReadCounter
 199              		.thumb
 200              		.thumb_func
 201              		.type	Quad_1_Cnt16_ReadCounter, %function
 202              	Quad_1_Cnt16_ReadCounter:
 203              	.LFB9:
 338:.\Generated_Source\PSoC5/Quad_1_Cnt16.c ****     #endif /* (Quad_1_Cnt16_UsingFixedFunction) */
 339:.\Generated_Source\PSoC5/Quad_1_Cnt16.c **** }
 340:.\Generated_Source\PSoC5/Quad_1_Cnt16.c **** #endif /* (!(Quad_1_Cnt16_UsingFixedFunction && (CY_PSOC5A))) */
 341:.\Generated_Source\PSoC5/Quad_1_Cnt16.c **** 
 342:.\Generated_Source\PSoC5/Quad_1_Cnt16.c **** 
 343:.\Generated_Source\PSoC5/Quad_1_Cnt16.c **** /*******************************************************************************
 344:.\Generated_Source\PSoC5/Quad_1_Cnt16.c **** * Function Name: Quad_1_Cnt16_ReadCounter
 345:.\Generated_Source\PSoC5/Quad_1_Cnt16.c **** ********************************************************************************
 346:.\Generated_Source\PSoC5/Quad_1_Cnt16.c **** * Summary:
 347:.\Generated_Source\PSoC5/Quad_1_Cnt16.c **** * Returns the current value of the counter.  It doesn't matter
 348:.\Generated_Source\PSoC5/Quad_1_Cnt16.c **** * if the counter is enabled or running.
 349:.\Generated_Source\PSoC5/Quad_1_Cnt16.c **** *
 350:.\Generated_Source\PSoC5/Quad_1_Cnt16.c **** * Parameters:  
 351:.\Generated_Source\PSoC5/Quad_1_Cnt16.c **** *  void:  
 352:.\Generated_Source\PSoC5/Quad_1_Cnt16.c **** *
 353:.\Generated_Source\PSoC5/Quad_1_Cnt16.c **** * Return: 
 354:.\Generated_Source\PSoC5/Quad_1_Cnt16.c **** *  (uint16) The present value of the counter.
 355:.\Generated_Source\PSoC5/Quad_1_Cnt16.c **** *
 356:.\Generated_Source\PSoC5/Quad_1_Cnt16.c **** *******************************************************************************/
 357:.\Generated_Source\PSoC5/Quad_1_Cnt16.c **** uint16 Quad_1_Cnt16_ReadCounter(void) 
 358:.\Generated_Source\PSoC5/Quad_1_Cnt16.c **** {
 204              		.loc 1 358 0
 205              		.cfi_startproc
 206              		@ args = 0, pretend = 0, frame = 0
 207              		@ frame_needed = 0, uses_anonymous_args = 0
 208              		@ link register save eliminated.
 359:.\Generated_Source\PSoC5/Quad_1_Cnt16.c ****     /* Force capture by reading Accumulator */
 360:.\Generated_Source\PSoC5/Quad_1_Cnt16.c ****     /* Must first do a software capture to be able to read the counter */
 361:.\Generated_Source\PSoC5/Quad_1_Cnt16.c ****     /* It is up to the user code to make sure there isn't already captured data in the FIFO */
 362:.\Generated_Source\PSoC5/Quad_1_Cnt16.c ****     #if(Quad_1_Cnt16_UsingFixedFunction)
ARM GAS  D:\TEMP\ccxUQlrk.s 			page 11


 363:.\Generated_Source\PSoC5/Quad_1_Cnt16.c **** 		(void)CY_GET_REG16(Quad_1_Cnt16_COUNTER_LSB_PTR);
 364:.\Generated_Source\PSoC5/Quad_1_Cnt16.c **** 	#else
 365:.\Generated_Source\PSoC5/Quad_1_Cnt16.c **** 		(void)CY_GET_REG8(Quad_1_Cnt16_COUNTER_LSB_PTR_8BIT);
 209              		.loc 1 365 0
 210 0000 024B     		ldr	r3, .L23
 211 0002 1B78     		ldrb	r3, [r3]	@ zero_extendqisi2
 366:.\Generated_Source\PSoC5/Quad_1_Cnt16.c **** 	#endif/* (Quad_1_Cnt16_UsingFixedFunction) */
 367:.\Generated_Source\PSoC5/Quad_1_Cnt16.c ****     
 368:.\Generated_Source\PSoC5/Quad_1_Cnt16.c ****     /* Read the data from the FIFO (or capture register for Fixed Function)*/
 369:.\Generated_Source\PSoC5/Quad_1_Cnt16.c ****     #if(Quad_1_Cnt16_UsingFixedFunction)
 370:.\Generated_Source\PSoC5/Quad_1_Cnt16.c ****         return ((uint16)CY_GET_REG16(Quad_1_Cnt16_STATICCOUNT_LSB_PTR));
 371:.\Generated_Source\PSoC5/Quad_1_Cnt16.c ****     #else
 372:.\Generated_Source\PSoC5/Quad_1_Cnt16.c ****         return (CY_GET_REG16(Quad_1_Cnt16_STATICCOUNT_LSB_PTR));
 212              		.loc 1 372 0
 213 0004 024B     		ldr	r3, .L23+4
 214 0006 1888     		ldrh	r0, [r3]
 373:.\Generated_Source\PSoC5/Quad_1_Cnt16.c ****     #endif /* (Quad_1_Cnt16_UsingFixedFunction) */
 374:.\Generated_Source\PSoC5/Quad_1_Cnt16.c **** }
 215              		.loc 1 374 0
 216 0008 80B2     		uxth	r0, r0
 217 000a 7047     		bx	lr
 218              	.L24:
 219              		.align	2
 220              	.L23:
 221 000c 0A650040 		.word	1073767690
 222 0010 946A0040 		.word	1073769108
 223              		.cfi_endproc
 224              	.LFE9:
 225              		.size	Quad_1_Cnt16_ReadCounter, .-Quad_1_Cnt16_ReadCounter
 226              		.section	.text.Quad_1_Cnt16_ReadCapture,"ax",%progbits
 227              		.align	1
 228              		.global	Quad_1_Cnt16_ReadCapture
 229              		.thumb
 230              		.thumb_func
 231              		.type	Quad_1_Cnt16_ReadCapture, %function
 232              	Quad_1_Cnt16_ReadCapture:
 233              	.LFB10:
 375:.\Generated_Source\PSoC5/Quad_1_Cnt16.c **** 
 376:.\Generated_Source\PSoC5/Quad_1_Cnt16.c **** 
 377:.\Generated_Source\PSoC5/Quad_1_Cnt16.c **** /*******************************************************************************
 378:.\Generated_Source\PSoC5/Quad_1_Cnt16.c **** * Function Name: Quad_1_Cnt16_ReadCapture
 379:.\Generated_Source\PSoC5/Quad_1_Cnt16.c **** ********************************************************************************
 380:.\Generated_Source\PSoC5/Quad_1_Cnt16.c **** * Summary:
 381:.\Generated_Source\PSoC5/Quad_1_Cnt16.c **** *   This function returns the last value captured.
 382:.\Generated_Source\PSoC5/Quad_1_Cnt16.c **** *
 383:.\Generated_Source\PSoC5/Quad_1_Cnt16.c **** * Parameters:  
 384:.\Generated_Source\PSoC5/Quad_1_Cnt16.c **** *  void
 385:.\Generated_Source\PSoC5/Quad_1_Cnt16.c **** *
 386:.\Generated_Source\PSoC5/Quad_1_Cnt16.c **** * Return: 
 387:.\Generated_Source\PSoC5/Quad_1_Cnt16.c **** *  (uint16) Present Capture value.
 388:.\Generated_Source\PSoC5/Quad_1_Cnt16.c **** *
 389:.\Generated_Source\PSoC5/Quad_1_Cnt16.c **** *******************************************************************************/
 390:.\Generated_Source\PSoC5/Quad_1_Cnt16.c **** uint16 Quad_1_Cnt16_ReadCapture(void) 
 391:.\Generated_Source\PSoC5/Quad_1_Cnt16.c **** {
 234              		.loc 1 391 0
 235              		.cfi_startproc
 236              		@ args = 0, pretend = 0, frame = 0
ARM GAS  D:\TEMP\ccxUQlrk.s 			page 12


 237              		@ frame_needed = 0, uses_anonymous_args = 0
 238              		@ link register save eliminated.
 392:.\Generated_Source\PSoC5/Quad_1_Cnt16.c ****     #if(Quad_1_Cnt16_UsingFixedFunction)
 393:.\Generated_Source\PSoC5/Quad_1_Cnt16.c ****         return ((uint16)CY_GET_REG16(Quad_1_Cnt16_STATICCOUNT_LSB_PTR));
 394:.\Generated_Source\PSoC5/Quad_1_Cnt16.c ****     #else
 395:.\Generated_Source\PSoC5/Quad_1_Cnt16.c ****         return (CY_GET_REG16(Quad_1_Cnt16_STATICCOUNT_LSB_PTR));
 239              		.loc 1 395 0
 240 0000 014B     		ldr	r3, .L26
 241 0002 1888     		ldrh	r0, [r3]
 396:.\Generated_Source\PSoC5/Quad_1_Cnt16.c ****     #endif /* (Quad_1_Cnt16_UsingFixedFunction) */
 397:.\Generated_Source\PSoC5/Quad_1_Cnt16.c **** }
 242              		.loc 1 397 0
 243 0004 80B2     		uxth	r0, r0
 244 0006 7047     		bx	lr
 245              	.L27:
 246              		.align	2
 247              	.L26:
 248 0008 946A0040 		.word	1073769108
 249              		.cfi_endproc
 250              	.LFE10:
 251              		.size	Quad_1_Cnt16_ReadCapture, .-Quad_1_Cnt16_ReadCapture
 252              		.section	.text.Quad_1_Cnt16_WritePeriod,"ax",%progbits
 253              		.align	1
 254              		.global	Quad_1_Cnt16_WritePeriod
 255              		.thumb
 256              		.thumb_func
 257              		.type	Quad_1_Cnt16_WritePeriod, %function
 258              	Quad_1_Cnt16_WritePeriod:
 259              	.LFB11:
 398:.\Generated_Source\PSoC5/Quad_1_Cnt16.c **** 
 399:.\Generated_Source\PSoC5/Quad_1_Cnt16.c **** 
 400:.\Generated_Source\PSoC5/Quad_1_Cnt16.c **** /*******************************************************************************
 401:.\Generated_Source\PSoC5/Quad_1_Cnt16.c **** * Function Name: Quad_1_Cnt16_WritePeriod
 402:.\Generated_Source\PSoC5/Quad_1_Cnt16.c **** ********************************************************************************
 403:.\Generated_Source\PSoC5/Quad_1_Cnt16.c **** * Summary:
 404:.\Generated_Source\PSoC5/Quad_1_Cnt16.c **** * Changes the period of the counter.  The new period 
 405:.\Generated_Source\PSoC5/Quad_1_Cnt16.c **** * will be loaded the next time terminal count is detected.
 406:.\Generated_Source\PSoC5/Quad_1_Cnt16.c **** *
 407:.\Generated_Source\PSoC5/Quad_1_Cnt16.c **** * Parameters:  
 408:.\Generated_Source\PSoC5/Quad_1_Cnt16.c **** *  period: (uint16) A value of 0 will result in
 409:.\Generated_Source\PSoC5/Quad_1_Cnt16.c **** *         the counter remaining at zero.  
 410:.\Generated_Source\PSoC5/Quad_1_Cnt16.c **** *
 411:.\Generated_Source\PSoC5/Quad_1_Cnt16.c **** * Return: 
 412:.\Generated_Source\PSoC5/Quad_1_Cnt16.c **** *  void
 413:.\Generated_Source\PSoC5/Quad_1_Cnt16.c **** *
 414:.\Generated_Source\PSoC5/Quad_1_Cnt16.c **** *******************************************************************************/
 415:.\Generated_Source\PSoC5/Quad_1_Cnt16.c **** void Quad_1_Cnt16_WritePeriod(uint16 period) 
 416:.\Generated_Source\PSoC5/Quad_1_Cnt16.c **** {
 260              		.loc 1 416 0
 261              		.cfi_startproc
 262              		@ args = 0, pretend = 0, frame = 0
 263              		@ frame_needed = 0, uses_anonymous_args = 0
 264              		@ link register save eliminated.
 265              	.LVL3:
 417:.\Generated_Source\PSoC5/Quad_1_Cnt16.c ****     #if(Quad_1_Cnt16_UsingFixedFunction)
 418:.\Generated_Source\PSoC5/Quad_1_Cnt16.c ****         CY_SET_REG16(Quad_1_Cnt16_PERIOD_LSB_PTR,(uint16)period);
 419:.\Generated_Source\PSoC5/Quad_1_Cnt16.c ****     #else
ARM GAS  D:\TEMP\ccxUQlrk.s 			page 13


 420:.\Generated_Source\PSoC5/Quad_1_Cnt16.c ****         CY_SET_REG16(Quad_1_Cnt16_PERIOD_LSB_PTR, period);
 266              		.loc 1 420 0
 267 0000 014B     		ldr	r3, .L29
 268 0002 1880     		strh	r0, [r3]	@ movhi
 269 0004 7047     		bx	lr
 270              	.L30:
 271 0006 00BF     		.align	2
 272              	.L29:
 273 0008 546A0040 		.word	1073769044
 274              		.cfi_endproc
 275              	.LFE11:
 276              		.size	Quad_1_Cnt16_WritePeriod, .-Quad_1_Cnt16_WritePeriod
 277              		.section	.text.Quad_1_Cnt16_ReadPeriod,"ax",%progbits
 278              		.align	1
 279              		.global	Quad_1_Cnt16_ReadPeriod
 280              		.thumb
 281              		.thumb_func
 282              		.type	Quad_1_Cnt16_ReadPeriod, %function
 283              	Quad_1_Cnt16_ReadPeriod:
 284              	.LFB12:
 421:.\Generated_Source\PSoC5/Quad_1_Cnt16.c ****     #endif /* (Quad_1_Cnt16_UsingFixedFunction) */
 422:.\Generated_Source\PSoC5/Quad_1_Cnt16.c **** }
 423:.\Generated_Source\PSoC5/Quad_1_Cnt16.c **** 
 424:.\Generated_Source\PSoC5/Quad_1_Cnt16.c **** 
 425:.\Generated_Source\PSoC5/Quad_1_Cnt16.c **** /*******************************************************************************
 426:.\Generated_Source\PSoC5/Quad_1_Cnt16.c **** * Function Name: Quad_1_Cnt16_ReadPeriod
 427:.\Generated_Source\PSoC5/Quad_1_Cnt16.c **** ********************************************************************************
 428:.\Generated_Source\PSoC5/Quad_1_Cnt16.c **** * Summary:
 429:.\Generated_Source\PSoC5/Quad_1_Cnt16.c **** * Reads the current period value without affecting counter operation.
 430:.\Generated_Source\PSoC5/Quad_1_Cnt16.c **** *
 431:.\Generated_Source\PSoC5/Quad_1_Cnt16.c **** * Parameters:  
 432:.\Generated_Source\PSoC5/Quad_1_Cnt16.c **** *  void:  
 433:.\Generated_Source\PSoC5/Quad_1_Cnt16.c **** *
 434:.\Generated_Source\PSoC5/Quad_1_Cnt16.c **** * Return: 
 435:.\Generated_Source\PSoC5/Quad_1_Cnt16.c **** *  (uint16) Present period value.
 436:.\Generated_Source\PSoC5/Quad_1_Cnt16.c **** *
 437:.\Generated_Source\PSoC5/Quad_1_Cnt16.c **** *******************************************************************************/
 438:.\Generated_Source\PSoC5/Quad_1_Cnt16.c **** uint16 Quad_1_Cnt16_ReadPeriod(void) 
 439:.\Generated_Source\PSoC5/Quad_1_Cnt16.c **** {
 285              		.loc 1 439 0
 286              		.cfi_startproc
 287              		@ args = 0, pretend = 0, frame = 0
 288              		@ frame_needed = 0, uses_anonymous_args = 0
 289              		@ link register save eliminated.
 440:.\Generated_Source\PSoC5/Quad_1_Cnt16.c ****     #if(Quad_1_Cnt16_UsingFixedFunction)
 441:.\Generated_Source\PSoC5/Quad_1_Cnt16.c ****         return ((uint16)CY_GET_REG16(Quad_1_Cnt16_PERIOD_LSB_PTR));
 442:.\Generated_Source\PSoC5/Quad_1_Cnt16.c ****     #else
 443:.\Generated_Source\PSoC5/Quad_1_Cnt16.c ****         return (CY_GET_REG16(Quad_1_Cnt16_PERIOD_LSB_PTR));
 290              		.loc 1 443 0
 291 0000 014B     		ldr	r3, .L32
 292 0002 1888     		ldrh	r0, [r3]
 444:.\Generated_Source\PSoC5/Quad_1_Cnt16.c ****     #endif /* (Quad_1_Cnt16_UsingFixedFunction) */
 445:.\Generated_Source\PSoC5/Quad_1_Cnt16.c **** }
 293              		.loc 1 445 0
 294 0004 80B2     		uxth	r0, r0
 295 0006 7047     		bx	lr
 296              	.L33:
ARM GAS  D:\TEMP\ccxUQlrk.s 			page 14


 297              		.align	2
 298              	.L32:
 299 0008 546A0040 		.word	1073769044
 300              		.cfi_endproc
 301              	.LFE12:
 302              		.size	Quad_1_Cnt16_ReadPeriod, .-Quad_1_Cnt16_ReadPeriod
 303              		.section	.text.Quad_1_Cnt16_WriteCompare,"ax",%progbits
 304              		.align	1
 305              		.global	Quad_1_Cnt16_WriteCompare
 306              		.thumb
 307              		.thumb_func
 308              		.type	Quad_1_Cnt16_WriteCompare, %function
 309              	Quad_1_Cnt16_WriteCompare:
 310              	.LFB13:
 446:.\Generated_Source\PSoC5/Quad_1_Cnt16.c **** 
 447:.\Generated_Source\PSoC5/Quad_1_Cnt16.c **** 
 448:.\Generated_Source\PSoC5/Quad_1_Cnt16.c **** #if (!Quad_1_Cnt16_UsingFixedFunction)
 449:.\Generated_Source\PSoC5/Quad_1_Cnt16.c **** /*******************************************************************************
 450:.\Generated_Source\PSoC5/Quad_1_Cnt16.c **** * Function Name: Quad_1_Cnt16_WriteCompare
 451:.\Generated_Source\PSoC5/Quad_1_Cnt16.c **** ********************************************************************************
 452:.\Generated_Source\PSoC5/Quad_1_Cnt16.c **** * Summary:
 453:.\Generated_Source\PSoC5/Quad_1_Cnt16.c **** * Changes the compare value.  The compare output will 
 454:.\Generated_Source\PSoC5/Quad_1_Cnt16.c **** * reflect the new value on the next UDB clock.  The compare output will be 
 455:.\Generated_Source\PSoC5/Quad_1_Cnt16.c **** * driven high when the present counter value compares true based on the 
 456:.\Generated_Source\PSoC5/Quad_1_Cnt16.c **** * configured compare mode setting. 
 457:.\Generated_Source\PSoC5/Quad_1_Cnt16.c **** *
 458:.\Generated_Source\PSoC5/Quad_1_Cnt16.c **** * Parameters:  
 459:.\Generated_Source\PSoC5/Quad_1_Cnt16.c **** *  Compare:  New compare value. 
 460:.\Generated_Source\PSoC5/Quad_1_Cnt16.c **** *
 461:.\Generated_Source\PSoC5/Quad_1_Cnt16.c **** * Return: 
 462:.\Generated_Source\PSoC5/Quad_1_Cnt16.c **** *  void
 463:.\Generated_Source\PSoC5/Quad_1_Cnt16.c **** *
 464:.\Generated_Source\PSoC5/Quad_1_Cnt16.c **** *******************************************************************************/
 465:.\Generated_Source\PSoC5/Quad_1_Cnt16.c **** void Quad_1_Cnt16_WriteCompare(uint16 compare) \
 466:.\Generated_Source\PSoC5/Quad_1_Cnt16.c ****                                    
 467:.\Generated_Source\PSoC5/Quad_1_Cnt16.c **** {
 311              		.loc 1 467 0
 312              		.cfi_startproc
 313              		@ args = 0, pretend = 0, frame = 0
 314              		@ frame_needed = 0, uses_anonymous_args = 0
 315              		@ link register save eliminated.
 316              	.LVL4:
 468:.\Generated_Source\PSoC5/Quad_1_Cnt16.c ****     #if(Quad_1_Cnt16_UsingFixedFunction)
 469:.\Generated_Source\PSoC5/Quad_1_Cnt16.c ****         CY_SET_REG16(Quad_1_Cnt16_COMPARE_LSB_PTR, (uint16)compare);
 470:.\Generated_Source\PSoC5/Quad_1_Cnt16.c ****     #else
 471:.\Generated_Source\PSoC5/Quad_1_Cnt16.c ****         CY_SET_REG16(Quad_1_Cnt16_COMPARE_LSB_PTR, compare);
 317              		.loc 1 471 0
 318 0000 014B     		ldr	r3, .L35
 319 0002 1880     		strh	r0, [r3]	@ movhi
 320 0004 7047     		bx	lr
 321              	.L36:
 322 0006 00BF     		.align	2
 323              	.L35:
 324 0008 746A0040 		.word	1073769076
 325              		.cfi_endproc
 326              	.LFE13:
 327              		.size	Quad_1_Cnt16_WriteCompare, .-Quad_1_Cnt16_WriteCompare
ARM GAS  D:\TEMP\ccxUQlrk.s 			page 15


 328              		.section	.text.Quad_1_Cnt16_ReadCompare,"ax",%progbits
 329              		.align	1
 330              		.global	Quad_1_Cnt16_ReadCompare
 331              		.thumb
 332              		.thumb_func
 333              		.type	Quad_1_Cnt16_ReadCompare, %function
 334              	Quad_1_Cnt16_ReadCompare:
 335              	.LFB14:
 472:.\Generated_Source\PSoC5/Quad_1_Cnt16.c ****     #endif /* (Quad_1_Cnt16_UsingFixedFunction) */
 473:.\Generated_Source\PSoC5/Quad_1_Cnt16.c **** }
 474:.\Generated_Source\PSoC5/Quad_1_Cnt16.c **** 
 475:.\Generated_Source\PSoC5/Quad_1_Cnt16.c **** 
 476:.\Generated_Source\PSoC5/Quad_1_Cnt16.c **** /*******************************************************************************
 477:.\Generated_Source\PSoC5/Quad_1_Cnt16.c **** * Function Name: Quad_1_Cnt16_ReadCompare
 478:.\Generated_Source\PSoC5/Quad_1_Cnt16.c **** ********************************************************************************
 479:.\Generated_Source\PSoC5/Quad_1_Cnt16.c **** * Summary:
 480:.\Generated_Source\PSoC5/Quad_1_Cnt16.c **** * Returns the compare value.
 481:.\Generated_Source\PSoC5/Quad_1_Cnt16.c **** *
 482:.\Generated_Source\PSoC5/Quad_1_Cnt16.c **** * Parameters:  
 483:.\Generated_Source\PSoC5/Quad_1_Cnt16.c **** *  void:
 484:.\Generated_Source\PSoC5/Quad_1_Cnt16.c **** *
 485:.\Generated_Source\PSoC5/Quad_1_Cnt16.c **** * Return: 
 486:.\Generated_Source\PSoC5/Quad_1_Cnt16.c **** *  (uint16) Present compare value.
 487:.\Generated_Source\PSoC5/Quad_1_Cnt16.c **** *
 488:.\Generated_Source\PSoC5/Quad_1_Cnt16.c **** *******************************************************************************/
 489:.\Generated_Source\PSoC5/Quad_1_Cnt16.c **** uint16 Quad_1_Cnt16_ReadCompare(void) 
 490:.\Generated_Source\PSoC5/Quad_1_Cnt16.c **** {
 336              		.loc 1 490 0
 337              		.cfi_startproc
 338              		@ args = 0, pretend = 0, frame = 0
 339              		@ frame_needed = 0, uses_anonymous_args = 0
 340              		@ link register save eliminated.
 491:.\Generated_Source\PSoC5/Quad_1_Cnt16.c ****     return (CY_GET_REG16(Quad_1_Cnt16_COMPARE_LSB_PTR));
 341              		.loc 1 491 0
 342 0000 014B     		ldr	r3, .L38
 343 0002 1888     		ldrh	r0, [r3]
 492:.\Generated_Source\PSoC5/Quad_1_Cnt16.c **** }
 344              		.loc 1 492 0
 345 0004 80B2     		uxth	r0, r0
 346 0006 7047     		bx	lr
 347              	.L39:
 348              		.align	2
 349              	.L38:
 350 0008 746A0040 		.word	1073769076
 351              		.cfi_endproc
 352              	.LFE14:
 353              		.size	Quad_1_Cnt16_ReadCompare, .-Quad_1_Cnt16_ReadCompare
 354              		.section	.text.Quad_1_Cnt16_ClearFIFO,"ax",%progbits
 355              		.align	1
 356              		.global	Quad_1_Cnt16_ClearFIFO
 357              		.thumb
 358              		.thumb_func
 359              		.type	Quad_1_Cnt16_ClearFIFO, %function
 360              	Quad_1_Cnt16_ClearFIFO:
 361              	.LFB15:
 493:.\Generated_Source\PSoC5/Quad_1_Cnt16.c **** 
 494:.\Generated_Source\PSoC5/Quad_1_Cnt16.c **** 
ARM GAS  D:\TEMP\ccxUQlrk.s 			page 16


 495:.\Generated_Source\PSoC5/Quad_1_Cnt16.c **** #if (Quad_1_Cnt16_COMPARE_MODE_SOFTWARE)
 496:.\Generated_Source\PSoC5/Quad_1_Cnt16.c **** /*******************************************************************************
 497:.\Generated_Source\PSoC5/Quad_1_Cnt16.c **** * Function Name: Quad_1_Cnt16_SetCompareMode
 498:.\Generated_Source\PSoC5/Quad_1_Cnt16.c **** ********************************************************************************
 499:.\Generated_Source\PSoC5/Quad_1_Cnt16.c **** * Summary:
 500:.\Generated_Source\PSoC5/Quad_1_Cnt16.c **** *  Sets the software controlled Compare Mode.
 501:.\Generated_Source\PSoC5/Quad_1_Cnt16.c **** *
 502:.\Generated_Source\PSoC5/Quad_1_Cnt16.c **** * Parameters:
 503:.\Generated_Source\PSoC5/Quad_1_Cnt16.c **** *  compareMode:  Compare Mode Enumerated Type.
 504:.\Generated_Source\PSoC5/Quad_1_Cnt16.c **** *
 505:.\Generated_Source\PSoC5/Quad_1_Cnt16.c **** * Return:
 506:.\Generated_Source\PSoC5/Quad_1_Cnt16.c **** *  void
 507:.\Generated_Source\PSoC5/Quad_1_Cnt16.c **** *
 508:.\Generated_Source\PSoC5/Quad_1_Cnt16.c **** *******************************************************************************/
 509:.\Generated_Source\PSoC5/Quad_1_Cnt16.c **** void Quad_1_Cnt16_SetCompareMode(uint8 compareMode) 
 510:.\Generated_Source\PSoC5/Quad_1_Cnt16.c **** {
 511:.\Generated_Source\PSoC5/Quad_1_Cnt16.c ****     /* Clear the compare mode bits in the control register */
 512:.\Generated_Source\PSoC5/Quad_1_Cnt16.c ****     Quad_1_Cnt16_CONTROL &= ((uint8)(~Quad_1_Cnt16_CTRL_CMPMODE_MASK));
 513:.\Generated_Source\PSoC5/Quad_1_Cnt16.c ****     
 514:.\Generated_Source\PSoC5/Quad_1_Cnt16.c ****     /* Write the new setting */
 515:.\Generated_Source\PSoC5/Quad_1_Cnt16.c ****     Quad_1_Cnt16_CONTROL |= compareMode;
 516:.\Generated_Source\PSoC5/Quad_1_Cnt16.c **** }
 517:.\Generated_Source\PSoC5/Quad_1_Cnt16.c **** #endif  /* (Quad_1_Cnt16_COMPARE_MODE_SOFTWARE) */
 518:.\Generated_Source\PSoC5/Quad_1_Cnt16.c **** 
 519:.\Generated_Source\PSoC5/Quad_1_Cnt16.c **** 
 520:.\Generated_Source\PSoC5/Quad_1_Cnt16.c **** #if (Quad_1_Cnt16_CAPTURE_MODE_SOFTWARE)
 521:.\Generated_Source\PSoC5/Quad_1_Cnt16.c **** /*******************************************************************************
 522:.\Generated_Source\PSoC5/Quad_1_Cnt16.c **** * Function Name: Quad_1_Cnt16_SetCaptureMode
 523:.\Generated_Source\PSoC5/Quad_1_Cnt16.c **** ********************************************************************************
 524:.\Generated_Source\PSoC5/Quad_1_Cnt16.c **** * Summary:
 525:.\Generated_Source\PSoC5/Quad_1_Cnt16.c **** *  Sets the software controlled Capture Mode.
 526:.\Generated_Source\PSoC5/Quad_1_Cnt16.c **** *
 527:.\Generated_Source\PSoC5/Quad_1_Cnt16.c **** * Parameters:
 528:.\Generated_Source\PSoC5/Quad_1_Cnt16.c **** *  captureMode:  Capture Mode Enumerated Type.
 529:.\Generated_Source\PSoC5/Quad_1_Cnt16.c **** *
 530:.\Generated_Source\PSoC5/Quad_1_Cnt16.c **** * Return:
 531:.\Generated_Source\PSoC5/Quad_1_Cnt16.c **** *  void
 532:.\Generated_Source\PSoC5/Quad_1_Cnt16.c **** *
 533:.\Generated_Source\PSoC5/Quad_1_Cnt16.c **** *******************************************************************************/
 534:.\Generated_Source\PSoC5/Quad_1_Cnt16.c **** void Quad_1_Cnt16_SetCaptureMode(uint8 captureMode) 
 535:.\Generated_Source\PSoC5/Quad_1_Cnt16.c **** {
 536:.\Generated_Source\PSoC5/Quad_1_Cnt16.c ****     /* Clear the capture mode bits in the control register */
 537:.\Generated_Source\PSoC5/Quad_1_Cnt16.c ****     Quad_1_Cnt16_CONTROL &= ((uint8)(~Quad_1_Cnt16_CTRL_CAPMODE_MASK));
 538:.\Generated_Source\PSoC5/Quad_1_Cnt16.c ****     
 539:.\Generated_Source\PSoC5/Quad_1_Cnt16.c ****     /* Write the new setting */
 540:.\Generated_Source\PSoC5/Quad_1_Cnt16.c ****     Quad_1_Cnt16_CONTROL |= ((uint8)((uint8)captureMode << Quad_1_Cnt16_CTRL_CAPMODE0_SHIFT));
 541:.\Generated_Source\PSoC5/Quad_1_Cnt16.c **** }
 542:.\Generated_Source\PSoC5/Quad_1_Cnt16.c **** #endif  /* (Quad_1_Cnt16_CAPTURE_MODE_SOFTWARE) */
 543:.\Generated_Source\PSoC5/Quad_1_Cnt16.c **** 
 544:.\Generated_Source\PSoC5/Quad_1_Cnt16.c **** 
 545:.\Generated_Source\PSoC5/Quad_1_Cnt16.c **** /*******************************************************************************
 546:.\Generated_Source\PSoC5/Quad_1_Cnt16.c **** * Function Name: Quad_1_Cnt16_ClearFIFO
 547:.\Generated_Source\PSoC5/Quad_1_Cnt16.c **** ********************************************************************************
 548:.\Generated_Source\PSoC5/Quad_1_Cnt16.c **** * Summary:
 549:.\Generated_Source\PSoC5/Quad_1_Cnt16.c **** *   This function clears all capture data from the capture FIFO
 550:.\Generated_Source\PSoC5/Quad_1_Cnt16.c **** *
 551:.\Generated_Source\PSoC5/Quad_1_Cnt16.c **** * Parameters:  
ARM GAS  D:\TEMP\ccxUQlrk.s 			page 17


 552:.\Generated_Source\PSoC5/Quad_1_Cnt16.c **** *  void:
 553:.\Generated_Source\PSoC5/Quad_1_Cnt16.c **** *
 554:.\Generated_Source\PSoC5/Quad_1_Cnt16.c **** * Return: 
 555:.\Generated_Source\PSoC5/Quad_1_Cnt16.c **** *  None
 556:.\Generated_Source\PSoC5/Quad_1_Cnt16.c **** *
 557:.\Generated_Source\PSoC5/Quad_1_Cnt16.c **** *******************************************************************************/
 558:.\Generated_Source\PSoC5/Quad_1_Cnt16.c **** void Quad_1_Cnt16_ClearFIFO(void) 
 559:.\Generated_Source\PSoC5/Quad_1_Cnt16.c **** {
 362              		.loc 1 559 0
 363              		.cfi_startproc
 364              		@ args = 0, pretend = 0, frame = 0
 365              		@ frame_needed = 0, uses_anonymous_args = 0
 366              		@ link register save eliminated.
 367              	.L41:
 368              	.LBB16:
 369              	.LBB17:
 263:.\Generated_Source\PSoC5/Quad_1_Cnt16.c **** }
 370              		.loc 1 263 0
 371 0000 034B     		ldr	r3, .L45
 372 0002 1B78     		ldrb	r3, [r3]	@ zero_extendqisi2
 373              	.LBE17:
 374              	.LBE16:
 560:.\Generated_Source\PSoC5/Quad_1_Cnt16.c **** 
 561:.\Generated_Source\PSoC5/Quad_1_Cnt16.c ****     while(0u != (Quad_1_Cnt16_ReadStatusRegister() & Quad_1_Cnt16_STATUS_FIFONEMP))
 375              		.loc 1 561 0
 376 0004 5B06     		lsls	r3, r3, #25
 377 0006 02D5     		bpl	.L44
 378              	.LBB18:
 379              	.LBB19:
 395:.\Generated_Source\PSoC5/Quad_1_Cnt16.c ****     #endif /* (Quad_1_Cnt16_UsingFixedFunction) */
 380              		.loc 1 395 0
 381 0008 024B     		ldr	r3, .L45+4
 382 000a 1B88     		ldrh	r3, [r3]
 383 000c F8E7     		b	.L41
 384              	.L44:
 385              	.LBE19:
 386              	.LBE18:
 562:.\Generated_Source\PSoC5/Quad_1_Cnt16.c ****     {
 563:.\Generated_Source\PSoC5/Quad_1_Cnt16.c ****         (void)Quad_1_Cnt16_ReadCapture();
 564:.\Generated_Source\PSoC5/Quad_1_Cnt16.c ****     }
 565:.\Generated_Source\PSoC5/Quad_1_Cnt16.c **** 
 566:.\Generated_Source\PSoC5/Quad_1_Cnt16.c **** }
 387              		.loc 1 566 0
 388 000e 7047     		bx	lr
 389              	.L46:
 390              		.align	2
 391              	.L45:
 392 0010 64650040 		.word	1073767780
 393 0014 946A0040 		.word	1073769108
 394              		.cfi_endproc
 395              	.LFE15:
 396              		.size	Quad_1_Cnt16_ClearFIFO, .-Quad_1_Cnt16_ClearFIFO
 397              		.section	.text.Quad_1_Cnt16_Init,"ax",%progbits
 398              		.align	1
 399              		.global	Quad_1_Cnt16_Init
 400              		.thumb
 401              		.thumb_func
ARM GAS  D:\TEMP\ccxUQlrk.s 			page 18


 402              		.type	Quad_1_Cnt16_Init, %function
 403              	Quad_1_Cnt16_Init:
 404              	.LFB0:
  38:.\Generated_Source\PSoC5/Quad_1_Cnt16.c ****         #if (!Quad_1_Cnt16_UsingFixedFunction && !Quad_1_Cnt16_ControlRegRemoved)
 405              		.loc 1 38 0
 406              		.cfi_startproc
 407              		@ args = 0, pretend = 0, frame = 0
 408              		@ frame_needed = 0, uses_anonymous_args = 0
 409 0000 08B5     		push	{r3, lr}
 410              		.cfi_def_cfa_offset 8
 411              		.cfi_offset 3, -8
 412              		.cfi_offset 14, -4
  79:.\Generated_Source\PSoC5/Quad_1_Cnt16.c ****             Quad_1_Cnt16_CONTROL = ctrl | Quad_1_Cnt16_DEFAULT_COMPARE_MODE;
 413              		.loc 1 79 0
 414 0002 124B     		ldr	r3, .L48
 415 0004 1A78     		ldrb	r2, [r3]	@ zero_extendqisi2
 416 0006 02F0F802 		and	r2, r2, #248
 417              	.LVL5:
  80:.\Generated_Source\PSoC5/Quad_1_Cnt16.c ****             
 418              		.loc 1 80 0
 419 000a 1A70     		strb	r2, [r3]
  83:.\Generated_Source\PSoC5/Quad_1_Cnt16.c ****             
 420              		.loc 1 83 0
 421 000c 1A78     		ldrb	r2, [r3]	@ zero_extendqisi2
 422              	.LVL6:
 423 000e 02F0FC02 		and	r2, r2, #252
 424              	.LVL7:
  88:.\Generated_Source\PSoC5/Quad_1_Cnt16.c ****             #endif /* 0 != Quad_1_Cnt16_CAPTURE_MODE */ 
 425              		.loc 1 88 0
 426 0012 1A70     		strb	r2, [r3]
  96:.\Generated_Source\PSoC5/Quad_1_Cnt16.c ****         #endif /* (!Quad_1_Cnt16_UsingFixedFunction) */
 427              		.loc 1 96 0
 428 0014 FFF7FEFF 		bl	Quad_1_Cnt16_ClearFIFO
 429              	.LVL8:
 430              	.LBB20:
 431              	.LBB21:
 420:.\Generated_Source\PSoC5/Quad_1_Cnt16.c ****     #endif /* (Quad_1_Cnt16_UsingFixedFunction) */
 432              		.loc 1 420 0
 433 0018 0D4A     		ldr	r2, .L48+4
 434 001a 4FF40043 		mov	r3, #32768
 435 001e 1380     		strh	r3, [r2]	@ movhi
 436              	.LVL9:
 437              	.LBE21:
 438              	.LBE20:
 439              	.LBB22:
 440              	.LBB23:
 239:.\Generated_Source\PSoC5/Quad_1_Cnt16.c **** }
 441              		.loc 1 239 0
 442 0020 0021     		movs	r1, #0
 443              	.LBE23:
 444              	.LBE22:
 445              	.LBB25:
 446              	.LBB26:
 337:.\Generated_Source\PSoC5/Quad_1_Cnt16.c ****     #endif /* (Quad_1_Cnt16_UsingFixedFunction) */
 447              		.loc 1 337 0
 448 0022 22F8403C 		strh	r3, [r2, #-64]	@ movhi
 449              	.LVL10:
ARM GAS  D:\TEMP\ccxUQlrk.s 			page 19


 450              	.LBE26:
 451              	.LBE25:
 452              	.LBB27:
 453              	.LBB24:
 239:.\Generated_Source\PSoC5/Quad_1_Cnt16.c **** }
 454              		.loc 1 239 0
 455 0026 A2F59A62 		sub	r2, r2, #1232
 456 002a 1170     		strb	r1, [r2]
 457              	.LBE24:
 458              	.LBE27:
 459              	.LBB28:
 460              	.LBB29:
 263:.\Generated_Source\PSoC5/Quad_1_Cnt16.c **** }
 461              		.loc 1 263 0
 462 002c 203A     		subs	r2, r2, #32
 463 002e 1278     		ldrb	r2, [r2]	@ zero_extendqisi2
 464              	.LVL11:
 465              	.LBE29:
 466              	.LBE28:
 467              	.LBB30:
 468              	.LBB31:
 471:.\Generated_Source\PSoC5/Quad_1_Cnt16.c ****     #endif /* (Quad_1_Cnt16_UsingFixedFunction) */
 469              		.loc 1 471 0
 470 0030 084A     		ldr	r2, .L48+8
 471 0032 1380     		strh	r3, [r2]	@ movhi
 472              	.LBE31:
 473              	.LBE30:
 115:.\Generated_Source\PSoC5/Quad_1_Cnt16.c ****             
 474              		.loc 1 115 0
 475 0034 FFF7FEFF 		bl	CyEnterCriticalSection
 476              	.LVL12:
 117:.\Generated_Source\PSoC5/Quad_1_Cnt16.c ****             
 477              		.loc 1 117 0
 478 0038 074A     		ldr	r2, .L48+12
 479 003a 1378     		ldrb	r3, [r2]	@ zero_extendqisi2
 480 003c 43F01003 		orr	r3, r3, #16
 481 0040 1370     		strb	r3, [r2]
 123:.\Generated_Source\PSoC5/Quad_1_Cnt16.c **** 
 482              		.loc 1 123 0
 483 0042 BDE80840 		pop	{r3, lr}
 484              		.cfi_restore 14
 485              		.cfi_restore 3
 486              		.cfi_def_cfa_offset 0
 120:.\Generated_Source\PSoC5/Quad_1_Cnt16.c ****             
 487              		.loc 1 120 0
 488 0046 FFF7FEBF 		b	CyExitCriticalSection
 489              	.LVL13:
 490              	.L49:
 491 004a 00BF     		.align	2
 492              	.L48:
 493 004c 76640040 		.word	1073767542
 494 0050 546A0040 		.word	1073769044
 495 0054 746A0040 		.word	1073769076
 496 0058 94650040 		.word	1073767828
 497              		.cfi_endproc
 498              	.LFE0:
 499              		.size	Quad_1_Cnt16_Init, .-Quad_1_Cnt16_Init
ARM GAS  D:\TEMP\ccxUQlrk.s 			page 20


 500              		.section	.text.Quad_1_Cnt16_Start,"ax",%progbits
 501              		.align	1
 502              		.global	Quad_1_Cnt16_Start
 503              		.thumb
 504              		.thumb_func
 505              		.type	Quad_1_Cnt16_Start, %function
 506              	Quad_1_Cnt16_Start:
 507              	.LFB2:
 179:.\Generated_Source\PSoC5/Quad_1_Cnt16.c ****     if(Quad_1_Cnt16_initVar == 0u)
 508              		.loc 1 179 0
 509              		.cfi_startproc
 510              		@ args = 0, pretend = 0, frame = 0
 511              		@ frame_needed = 0, uses_anonymous_args = 0
 512 0000 10B5     		push	{r4, lr}
 513              		.cfi_def_cfa_offset 8
 514              		.cfi_offset 4, -8
 515              		.cfi_offset 14, -4
 180:.\Generated_Source\PSoC5/Quad_1_Cnt16.c ****     {
 516              		.loc 1 180 0
 517 0002 054C     		ldr	r4, .L52
 518 0004 2378     		ldrb	r3, [r4]	@ zero_extendqisi2
 519 0006 1BB9     		cbnz	r3, .L51
 182:.\Generated_Source\PSoC5/Quad_1_Cnt16.c ****         
 520              		.loc 1 182 0
 521 0008 FFF7FEFF 		bl	Quad_1_Cnt16_Init
 522              	.LVL14:
 184:.\Generated_Source\PSoC5/Quad_1_Cnt16.c ****     }
 523              		.loc 1 184 0
 524 000c 0123     		movs	r3, #1
 525 000e 2370     		strb	r3, [r4]
 526              	.L51:
 189:.\Generated_Source\PSoC5/Quad_1_Cnt16.c **** 
 527              		.loc 1 189 0
 528 0010 BDE81040 		pop	{r4, lr}
 529              		.cfi_restore 14
 530              		.cfi_restore 4
 531              		.cfi_def_cfa_offset 0
 188:.\Generated_Source\PSoC5/Quad_1_Cnt16.c **** }
 532              		.loc 1 188 0
 533 0014 FFF7FEBF 		b	Quad_1_Cnt16_Enable
 534              	.LVL15:
 535              	.L53:
 536              		.align	2
 537              	.L52:
 538 0018 00000000 		.word	.LANCHOR0
 539              		.cfi_endproc
 540              	.LFE2:
 541              		.size	Quad_1_Cnt16_Start, .-Quad_1_Cnt16_Start
 542              		.global	Quad_1_Cnt16_initVar
 543              		.bss
 544              		.set	.LANCHOR0,. + 0
 545              		.type	Quad_1_Cnt16_initVar, %object
 546              		.size	Quad_1_Cnt16_initVar, 1
 547              	Quad_1_Cnt16_initVar:
 548 0000 00       		.space	1
 549              		.text
 550              	.Letext0:
ARM GAS  D:\TEMP\ccxUQlrk.s 			page 21


 551              		.file 2 ".\\Generated_Source\\PSoC5\\cytypes.h"
 552              		.file 3 ".\\Generated_Source\\PSoC5\\CyLib.h"