ARM GAS  D:\TEMP\ccaqzfrw.s 			page 1


   1              		.syntax unified
   2              		.cpu cortex-m3
   3              		.fpu softvfp
   4              		.eabi_attribute 20, 1
   5              		.eabi_attribute 21, 1
   6              		.eabi_attribute 23, 3
   7              		.eabi_attribute 24, 1
   8              		.eabi_attribute 25, 1
   9              		.eabi_attribute 26, 1
  10              		.eabi_attribute 30, 4
  11              		.eabi_attribute 34, 1
  12              		.eabi_attribute 18, 4
  13              		.thumb
  14              		.file	"SW_DAC.c"
  15              		.text
  16              	.Ltext0:
  17              		.cfi_sections	.debug_frame
  18              		.section	.text.SW_DAC_Enable,"ax",%progbits
  19              		.align	1
  20              		.global	SW_DAC_Enable
  21              		.thumb
  22              		.thumb_func
  23              		.type	SW_DAC_Enable, %function
  24              	SW_DAC_Enable:
  25              	.LFB1:
  26              		.file 1 ".\\Generated_Source\\PSoC5\\SW_DAC.c"
   1:.\Generated_Source\PSoC5/SW_DAC.c **** /*******************************************************************************
   2:.\Generated_Source\PSoC5/SW_DAC.c **** * File Name: SW_DAC.c  
   3:.\Generated_Source\PSoC5/SW_DAC.c **** * Version 1.90
   4:.\Generated_Source\PSoC5/SW_DAC.c **** *
   5:.\Generated_Source\PSoC5/SW_DAC.c **** * Description:
   6:.\Generated_Source\PSoC5/SW_DAC.c **** *  This file provides the source code to the API for the 8-bit Voltage DAC 
   7:.\Generated_Source\PSoC5/SW_DAC.c **** *  (VDAC8) User Module.
   8:.\Generated_Source\PSoC5/SW_DAC.c **** *
   9:.\Generated_Source\PSoC5/SW_DAC.c **** * Note:
  10:.\Generated_Source\PSoC5/SW_DAC.c **** *  Any unusual or non-standard behavior should be noted here. Other-
  11:.\Generated_Source\PSoC5/SW_DAC.c **** *  wise, this section should remain blank.
  12:.\Generated_Source\PSoC5/SW_DAC.c **** *
  13:.\Generated_Source\PSoC5/SW_DAC.c **** ********************************************************************************
  14:.\Generated_Source\PSoC5/SW_DAC.c **** * Copyright 2008-2012, Cypress Semiconductor Corporation.  All rights reserved.
  15:.\Generated_Source\PSoC5/SW_DAC.c **** * You may use this file only in accordance with the license, terms, conditions, 
  16:.\Generated_Source\PSoC5/SW_DAC.c **** * disclaimers, and limitations in the end user license agreement accompanying 
  17:.\Generated_Source\PSoC5/SW_DAC.c **** * the software package with which this file was provided.
  18:.\Generated_Source\PSoC5/SW_DAC.c **** *******************************************************************************/
  19:.\Generated_Source\PSoC5/SW_DAC.c **** 
  20:.\Generated_Source\PSoC5/SW_DAC.c **** #include "cytypes.h"
  21:.\Generated_Source\PSoC5/SW_DAC.c **** #include "SW_DAC.h"
  22:.\Generated_Source\PSoC5/SW_DAC.c **** 
  23:.\Generated_Source\PSoC5/SW_DAC.c **** #if (CY_PSOC5A)
  24:.\Generated_Source\PSoC5/SW_DAC.c **** #include <CyLib.h>
  25:.\Generated_Source\PSoC5/SW_DAC.c **** #endif /* CY_PSOC5A */
  26:.\Generated_Source\PSoC5/SW_DAC.c **** 
  27:.\Generated_Source\PSoC5/SW_DAC.c **** uint8 SW_DAC_initVar = 0u;
  28:.\Generated_Source\PSoC5/SW_DAC.c **** 
  29:.\Generated_Source\PSoC5/SW_DAC.c **** #if (CY_PSOC5A)
  30:.\Generated_Source\PSoC5/SW_DAC.c ****     static uint8 SW_DAC_restoreVal = 0u;
  31:.\Generated_Source\PSoC5/SW_DAC.c **** #endif /* CY_PSOC5A */
ARM GAS  D:\TEMP\ccaqzfrw.s 			page 2


  32:.\Generated_Source\PSoC5/SW_DAC.c **** 
  33:.\Generated_Source\PSoC5/SW_DAC.c **** #if (CY_PSOC5A)
  34:.\Generated_Source\PSoC5/SW_DAC.c ****     static SW_DAC_backupStruct SW_DAC_backup;
  35:.\Generated_Source\PSoC5/SW_DAC.c **** #endif /* CY_PSOC5A */
  36:.\Generated_Source\PSoC5/SW_DAC.c **** 
  37:.\Generated_Source\PSoC5/SW_DAC.c **** 
  38:.\Generated_Source\PSoC5/SW_DAC.c **** /*******************************************************************************
  39:.\Generated_Source\PSoC5/SW_DAC.c **** * Function Name: SW_DAC_Init
  40:.\Generated_Source\PSoC5/SW_DAC.c **** ********************************************************************************
  41:.\Generated_Source\PSoC5/SW_DAC.c **** * Summary:
  42:.\Generated_Source\PSoC5/SW_DAC.c **** *  Initialize to the schematic state.
  43:.\Generated_Source\PSoC5/SW_DAC.c **** * 
  44:.\Generated_Source\PSoC5/SW_DAC.c **** * Parameters:
  45:.\Generated_Source\PSoC5/SW_DAC.c **** *  void:
  46:.\Generated_Source\PSoC5/SW_DAC.c **** *
  47:.\Generated_Source\PSoC5/SW_DAC.c **** * Return:
  48:.\Generated_Source\PSoC5/SW_DAC.c **** *  void
  49:.\Generated_Source\PSoC5/SW_DAC.c **** *
  50:.\Generated_Source\PSoC5/SW_DAC.c **** * Theory:
  51:.\Generated_Source\PSoC5/SW_DAC.c **** *
  52:.\Generated_Source\PSoC5/SW_DAC.c **** * Side Effects:
  53:.\Generated_Source\PSoC5/SW_DAC.c **** *
  54:.\Generated_Source\PSoC5/SW_DAC.c **** *******************************************************************************/
  55:.\Generated_Source\PSoC5/SW_DAC.c **** void SW_DAC_Init(void) 
  56:.\Generated_Source\PSoC5/SW_DAC.c **** {
  57:.\Generated_Source\PSoC5/SW_DAC.c ****     SW_DAC_CR0 = (SW_DAC_MODE_V );
  58:.\Generated_Source\PSoC5/SW_DAC.c **** 
  59:.\Generated_Source\PSoC5/SW_DAC.c ****     /* Set default data source */
  60:.\Generated_Source\PSoC5/SW_DAC.c ****     #if(SW_DAC_DEFAULT_DATA_SRC != 0 )
  61:.\Generated_Source\PSoC5/SW_DAC.c ****         SW_DAC_CR1 = (SW_DAC_DEFAULT_CNTL | SW_DAC_DACBUS_ENABLE) ;
  62:.\Generated_Source\PSoC5/SW_DAC.c ****     #else
  63:.\Generated_Source\PSoC5/SW_DAC.c ****         SW_DAC_CR1 = (SW_DAC_DEFAULT_CNTL | SW_DAC_DACBUS_DISABLE) ;
  64:.\Generated_Source\PSoC5/SW_DAC.c ****     #endif /* (SW_DAC_DEFAULT_DATA_SRC != 0 ) */
  65:.\Generated_Source\PSoC5/SW_DAC.c **** 
  66:.\Generated_Source\PSoC5/SW_DAC.c ****     /* Set default strobe mode */
  67:.\Generated_Source\PSoC5/SW_DAC.c ****     #if(SW_DAC_DEFAULT_STRB != 0)
  68:.\Generated_Source\PSoC5/SW_DAC.c ****         SW_DAC_Strobe |= SW_DAC_STRB_EN ;
  69:.\Generated_Source\PSoC5/SW_DAC.c ****     #endif/* (SW_DAC_DEFAULT_STRB != 0) */
  70:.\Generated_Source\PSoC5/SW_DAC.c **** 
  71:.\Generated_Source\PSoC5/SW_DAC.c ****     /* Set default range */
  72:.\Generated_Source\PSoC5/SW_DAC.c ****     SW_DAC_SetRange(SW_DAC_DEFAULT_RANGE); 
  73:.\Generated_Source\PSoC5/SW_DAC.c **** 
  74:.\Generated_Source\PSoC5/SW_DAC.c ****     /* Set default speed */
  75:.\Generated_Source\PSoC5/SW_DAC.c ****     SW_DAC_SetSpeed(SW_DAC_DEFAULT_SPEED);
  76:.\Generated_Source\PSoC5/SW_DAC.c **** }
  77:.\Generated_Source\PSoC5/SW_DAC.c **** 
  78:.\Generated_Source\PSoC5/SW_DAC.c **** 
  79:.\Generated_Source\PSoC5/SW_DAC.c **** /*******************************************************************************
  80:.\Generated_Source\PSoC5/SW_DAC.c **** * Function Name: SW_DAC_Enable
  81:.\Generated_Source\PSoC5/SW_DAC.c **** ********************************************************************************
  82:.\Generated_Source\PSoC5/SW_DAC.c **** * Summary:
  83:.\Generated_Source\PSoC5/SW_DAC.c **** *  Enable the VDAC8
  84:.\Generated_Source\PSoC5/SW_DAC.c **** * 
  85:.\Generated_Source\PSoC5/SW_DAC.c **** * Parameters:
  86:.\Generated_Source\PSoC5/SW_DAC.c **** *  void
  87:.\Generated_Source\PSoC5/SW_DAC.c **** *
  88:.\Generated_Source\PSoC5/SW_DAC.c **** * Return:
ARM GAS  D:\TEMP\ccaqzfrw.s 			page 3


  89:.\Generated_Source\PSoC5/SW_DAC.c **** *  void
  90:.\Generated_Source\PSoC5/SW_DAC.c **** *
  91:.\Generated_Source\PSoC5/SW_DAC.c **** * Theory:
  92:.\Generated_Source\PSoC5/SW_DAC.c **** *
  93:.\Generated_Source\PSoC5/SW_DAC.c **** * Side Effects:
  94:.\Generated_Source\PSoC5/SW_DAC.c **** *
  95:.\Generated_Source\PSoC5/SW_DAC.c **** *******************************************************************************/
  96:.\Generated_Source\PSoC5/SW_DAC.c **** void SW_DAC_Enable(void) 
  97:.\Generated_Source\PSoC5/SW_DAC.c **** {
  27              		.loc 1 97 0
  28              		.cfi_startproc
  29              		@ args = 0, pretend = 0, frame = 0
  30              		@ frame_needed = 0, uses_anonymous_args = 0
  31              		@ link register save eliminated.
  98:.\Generated_Source\PSoC5/SW_DAC.c ****     SW_DAC_PWRMGR |= SW_DAC_ACT_PWR_EN;
  32              		.loc 1 98 0
  33 0000 044A     		ldr	r2, .L2
  34 0002 1378     		ldrb	r3, [r2]	@ zero_extendqisi2
  35 0004 43F00403 		orr	r3, r3, #4
  36 0008 1370     		strb	r3, [r2]
  99:.\Generated_Source\PSoC5/SW_DAC.c ****     SW_DAC_STBY_PWRMGR |= SW_DAC_STBY_PWR_EN;
  37              		.loc 1 99 0
  38 000a 137C     		ldrb	r3, [r2, #16]	@ zero_extendqisi2
  39 000c 43F00403 		orr	r3, r3, #4
  40 0010 1374     		strb	r3, [r2, #16]
  41 0012 7047     		bx	lr
  42              	.L3:
  43              		.align	2
  44              	.L2:
  45 0014 A8430040 		.word	1073759144
  46              		.cfi_endproc
  47              	.LFE1:
  48              		.size	SW_DAC_Enable, .-SW_DAC_Enable
  49              		.section	.text.SW_DAC_Stop,"ax",%progbits
  50              		.align	1
  51              		.global	SW_DAC_Stop
  52              		.thumb
  53              		.thumb_func
  54              		.type	SW_DAC_Stop, %function
  55              	SW_DAC_Stop:
  56              	.LFB3:
 100:.\Generated_Source\PSoC5/SW_DAC.c **** 
 101:.\Generated_Source\PSoC5/SW_DAC.c ****     /*This is to restore the value of register CR0 ,
 102:.\Generated_Source\PSoC5/SW_DAC.c ****     which is modified  in Stop API , this prevents misbehaviour of VDAC */
 103:.\Generated_Source\PSoC5/SW_DAC.c ****     #if (CY_PSOC5A)
 104:.\Generated_Source\PSoC5/SW_DAC.c ****         if(SW_DAC_restoreVal == 1u) 
 105:.\Generated_Source\PSoC5/SW_DAC.c ****         {
 106:.\Generated_Source\PSoC5/SW_DAC.c ****              SW_DAC_CR0 = SW_DAC_backup.data_value;
 107:.\Generated_Source\PSoC5/SW_DAC.c ****              SW_DAC_restoreVal = 0u;
 108:.\Generated_Source\PSoC5/SW_DAC.c ****         }
 109:.\Generated_Source\PSoC5/SW_DAC.c ****     #endif /* CY_PSOC5A */
 110:.\Generated_Source\PSoC5/SW_DAC.c **** }
 111:.\Generated_Source\PSoC5/SW_DAC.c **** 
 112:.\Generated_Source\PSoC5/SW_DAC.c **** 
 113:.\Generated_Source\PSoC5/SW_DAC.c **** /*******************************************************************************
 114:.\Generated_Source\PSoC5/SW_DAC.c **** * Function Name: SW_DAC_Start
 115:.\Generated_Source\PSoC5/SW_DAC.c **** ********************************************************************************
ARM GAS  D:\TEMP\ccaqzfrw.s 			page 4


 116:.\Generated_Source\PSoC5/SW_DAC.c **** *
 117:.\Generated_Source\PSoC5/SW_DAC.c **** * Summary:
 118:.\Generated_Source\PSoC5/SW_DAC.c **** *  The start function initializes the voltage DAC with the default values, 
 119:.\Generated_Source\PSoC5/SW_DAC.c **** *  and sets the power to the given level.  A power level of 0, is the same as
 120:.\Generated_Source\PSoC5/SW_DAC.c **** *  executing the stop function.
 121:.\Generated_Source\PSoC5/SW_DAC.c **** *
 122:.\Generated_Source\PSoC5/SW_DAC.c **** * Parameters:
 123:.\Generated_Source\PSoC5/SW_DAC.c **** *  Power: Sets power level between off (0) and (3) high power
 124:.\Generated_Source\PSoC5/SW_DAC.c **** *
 125:.\Generated_Source\PSoC5/SW_DAC.c **** * Return:
 126:.\Generated_Source\PSoC5/SW_DAC.c **** *  void 
 127:.\Generated_Source\PSoC5/SW_DAC.c **** *
 128:.\Generated_Source\PSoC5/SW_DAC.c **** * Global variables:
 129:.\Generated_Source\PSoC5/SW_DAC.c **** *  SW_DAC_initVar: Is modified when this function is called for the 
 130:.\Generated_Source\PSoC5/SW_DAC.c **** *  first time. Is used to ensure that initialization happens only once.
 131:.\Generated_Source\PSoC5/SW_DAC.c **** *
 132:.\Generated_Source\PSoC5/SW_DAC.c **** *******************************************************************************/
 133:.\Generated_Source\PSoC5/SW_DAC.c **** void SW_DAC_Start(void)  
 134:.\Generated_Source\PSoC5/SW_DAC.c **** {
 135:.\Generated_Source\PSoC5/SW_DAC.c ****     /* Hardware initiazation only needs to occure the first time */
 136:.\Generated_Source\PSoC5/SW_DAC.c ****     if(SW_DAC_initVar == 0u)
 137:.\Generated_Source\PSoC5/SW_DAC.c ****     { 
 138:.\Generated_Source\PSoC5/SW_DAC.c ****         SW_DAC_Init();
 139:.\Generated_Source\PSoC5/SW_DAC.c ****         SW_DAC_initVar = 1u;
 140:.\Generated_Source\PSoC5/SW_DAC.c ****     }
 141:.\Generated_Source\PSoC5/SW_DAC.c **** 
 142:.\Generated_Source\PSoC5/SW_DAC.c ****     /* Enable power to DAC */
 143:.\Generated_Source\PSoC5/SW_DAC.c ****     SW_DAC_Enable();
 144:.\Generated_Source\PSoC5/SW_DAC.c **** 
 145:.\Generated_Source\PSoC5/SW_DAC.c ****     /* Set default value */
 146:.\Generated_Source\PSoC5/SW_DAC.c ****     SW_DAC_SetValue(SW_DAC_DEFAULT_DATA); 
 147:.\Generated_Source\PSoC5/SW_DAC.c **** }
 148:.\Generated_Source\PSoC5/SW_DAC.c **** 
 149:.\Generated_Source\PSoC5/SW_DAC.c **** 
 150:.\Generated_Source\PSoC5/SW_DAC.c **** /*******************************************************************************
 151:.\Generated_Source\PSoC5/SW_DAC.c **** * Function Name: SW_DAC_Stop
 152:.\Generated_Source\PSoC5/SW_DAC.c **** ********************************************************************************
 153:.\Generated_Source\PSoC5/SW_DAC.c **** *
 154:.\Generated_Source\PSoC5/SW_DAC.c **** * Summary:
 155:.\Generated_Source\PSoC5/SW_DAC.c **** *  Powers down DAC to lowest power state.
 156:.\Generated_Source\PSoC5/SW_DAC.c **** *
 157:.\Generated_Source\PSoC5/SW_DAC.c **** * Parameters:
 158:.\Generated_Source\PSoC5/SW_DAC.c **** *  void
 159:.\Generated_Source\PSoC5/SW_DAC.c **** *
 160:.\Generated_Source\PSoC5/SW_DAC.c **** * Return:
 161:.\Generated_Source\PSoC5/SW_DAC.c **** *  void
 162:.\Generated_Source\PSoC5/SW_DAC.c **** *
 163:.\Generated_Source\PSoC5/SW_DAC.c **** * Theory:
 164:.\Generated_Source\PSoC5/SW_DAC.c **** *
 165:.\Generated_Source\PSoC5/SW_DAC.c **** * Side Effects:
 166:.\Generated_Source\PSoC5/SW_DAC.c **** *
 167:.\Generated_Source\PSoC5/SW_DAC.c **** *******************************************************************************/
 168:.\Generated_Source\PSoC5/SW_DAC.c **** void SW_DAC_Stop(void) 
 169:.\Generated_Source\PSoC5/SW_DAC.c **** {
  57              		.loc 1 169 0
  58              		.cfi_startproc
  59              		@ args = 0, pretend = 0, frame = 0
ARM GAS  D:\TEMP\ccaqzfrw.s 			page 5


  60              		@ frame_needed = 0, uses_anonymous_args = 0
  61              		@ link register save eliminated.
 170:.\Generated_Source\PSoC5/SW_DAC.c ****     /* Disble power to DAC */
 171:.\Generated_Source\PSoC5/SW_DAC.c ****     SW_DAC_PWRMGR &= (uint8)(~SW_DAC_ACT_PWR_EN);
  62              		.loc 1 171 0
  63 0000 044A     		ldr	r2, .L5
  64 0002 1378     		ldrb	r3, [r2]	@ zero_extendqisi2
  65 0004 03F0FB03 		and	r3, r3, #251
  66 0008 1370     		strb	r3, [r2]
 172:.\Generated_Source\PSoC5/SW_DAC.c ****     SW_DAC_STBY_PWRMGR &= (uint8)(~SW_DAC_STBY_PWR_EN);
  67              		.loc 1 172 0
  68 000a 137C     		ldrb	r3, [r2, #16]	@ zero_extendqisi2
  69 000c 03F0FB03 		and	r3, r3, #251
  70 0010 1374     		strb	r3, [r2, #16]
  71 0012 7047     		bx	lr
  72              	.L6:
  73              		.align	2
  74              	.L5:
  75 0014 A8430040 		.word	1073759144
  76              		.cfi_endproc
  77              	.LFE3:
  78              		.size	SW_DAC_Stop, .-SW_DAC_Stop
  79              		.section	.text.SW_DAC_SetSpeed,"ax",%progbits
  80              		.align	1
  81              		.global	SW_DAC_SetSpeed
  82              		.thumb
  83              		.thumb_func
  84              		.type	SW_DAC_SetSpeed, %function
  85              	SW_DAC_SetSpeed:
  86              	.LFB4:
 173:.\Generated_Source\PSoC5/SW_DAC.c **** 
 174:.\Generated_Source\PSoC5/SW_DAC.c ****     /* This is a work around for PSoC5A  ,
 175:.\Generated_Source\PSoC5/SW_DAC.c ****     this sets VDAC to current mode with output off */
 176:.\Generated_Source\PSoC5/SW_DAC.c ****     #if (CY_PSOC5A)
 177:.\Generated_Source\PSoC5/SW_DAC.c ****         SW_DAC_backup.data_value = SW_DAC_CR0;
 178:.\Generated_Source\PSoC5/SW_DAC.c ****         SW_DAC_CR0 = SW_DAC_CUR_MODE_OUT_OFF;
 179:.\Generated_Source\PSoC5/SW_DAC.c ****         SW_DAC_restoreVal = 1u;
 180:.\Generated_Source\PSoC5/SW_DAC.c ****     #endif /* CY_PSOC5A */
 181:.\Generated_Source\PSoC5/SW_DAC.c **** }
 182:.\Generated_Source\PSoC5/SW_DAC.c **** 
 183:.\Generated_Source\PSoC5/SW_DAC.c **** 
 184:.\Generated_Source\PSoC5/SW_DAC.c **** /*******************************************************************************
 185:.\Generated_Source\PSoC5/SW_DAC.c **** * Function Name: SW_DAC_SetSpeed
 186:.\Generated_Source\PSoC5/SW_DAC.c **** ********************************************************************************
 187:.\Generated_Source\PSoC5/SW_DAC.c **** *
 188:.\Generated_Source\PSoC5/SW_DAC.c **** * Summary:
 189:.\Generated_Source\PSoC5/SW_DAC.c **** *  Set DAC speed
 190:.\Generated_Source\PSoC5/SW_DAC.c **** *
 191:.\Generated_Source\PSoC5/SW_DAC.c **** * Parameters:
 192:.\Generated_Source\PSoC5/SW_DAC.c **** *  power: Sets speed value
 193:.\Generated_Source\PSoC5/SW_DAC.c **** *
 194:.\Generated_Source\PSoC5/SW_DAC.c **** * Return:
 195:.\Generated_Source\PSoC5/SW_DAC.c **** *  void
 196:.\Generated_Source\PSoC5/SW_DAC.c **** *
 197:.\Generated_Source\PSoC5/SW_DAC.c **** * Theory:
 198:.\Generated_Source\PSoC5/SW_DAC.c **** *
 199:.\Generated_Source\PSoC5/SW_DAC.c **** * Side Effects:
ARM GAS  D:\TEMP\ccaqzfrw.s 			page 6


 200:.\Generated_Source\PSoC5/SW_DAC.c **** *
 201:.\Generated_Source\PSoC5/SW_DAC.c **** *******************************************************************************/
 202:.\Generated_Source\PSoC5/SW_DAC.c **** void SW_DAC_SetSpeed(uint8 speed) 
 203:.\Generated_Source\PSoC5/SW_DAC.c **** {
  87              		.loc 1 203 0
  88              		.cfi_startproc
  89              		@ args = 0, pretend = 0, frame = 0
  90              		@ frame_needed = 0, uses_anonymous_args = 0
  91              		@ link register save eliminated.
  92              	.LVL0:
 204:.\Generated_Source\PSoC5/SW_DAC.c ****     /* Clear power mask then write in new value */
 205:.\Generated_Source\PSoC5/SW_DAC.c ****     SW_DAC_CR0 &= (uint8)(~SW_DAC_HS_MASK);
  93              		.loc 1 205 0
  94 0000 054B     		ldr	r3, .L8
 206:.\Generated_Source\PSoC5/SW_DAC.c ****     SW_DAC_CR0 |=  (speed & SW_DAC_HS_MASK);
  95              		.loc 1 206 0
  96 0002 00F00200 		and	r0, r0, #2
  97              	.LVL1:
 205:.\Generated_Source\PSoC5/SW_DAC.c ****     SW_DAC_CR0 |=  (speed & SW_DAC_HS_MASK);
  98              		.loc 1 205 0
  99 0006 1A78     		ldrb	r2, [r3]	@ zero_extendqisi2
 100 0008 02F0FD02 		and	r2, r2, #253
 101 000c 1A70     		strb	r2, [r3]
 102              		.loc 1 206 0
 103 000e 1A78     		ldrb	r2, [r3]	@ zero_extendqisi2
 104 0010 1043     		orrs	r0, r0, r2
 105 0012 1870     		strb	r0, [r3]
 106 0014 7047     		bx	lr
 107              	.L9:
 108 0016 00BF     		.align	2
 109              	.L8:
 110 0018 28580040 		.word	1073764392
 111              		.cfi_endproc
 112              	.LFE4:
 113              		.size	SW_DAC_SetSpeed, .-SW_DAC_SetSpeed
 114              		.section	.text.SW_DAC_SetValue,"ax",%progbits
 115              		.align	1
 116              		.global	SW_DAC_SetValue
 117              		.thumb
 118              		.thumb_func
 119              		.type	SW_DAC_SetValue, %function
 120              	SW_DAC_SetValue:
 121              	.LFB6:
 207:.\Generated_Source\PSoC5/SW_DAC.c **** }
 208:.\Generated_Source\PSoC5/SW_DAC.c **** 
 209:.\Generated_Source\PSoC5/SW_DAC.c **** 
 210:.\Generated_Source\PSoC5/SW_DAC.c **** /*******************************************************************************
 211:.\Generated_Source\PSoC5/SW_DAC.c **** * Function Name: SW_DAC_SetRange
 212:.\Generated_Source\PSoC5/SW_DAC.c **** ********************************************************************************
 213:.\Generated_Source\PSoC5/SW_DAC.c **** *
 214:.\Generated_Source\PSoC5/SW_DAC.c **** * Summary:
 215:.\Generated_Source\PSoC5/SW_DAC.c **** *  Set one of three current ranges.
 216:.\Generated_Source\PSoC5/SW_DAC.c **** *
 217:.\Generated_Source\PSoC5/SW_DAC.c **** * Parameters:
 218:.\Generated_Source\PSoC5/SW_DAC.c **** *  Range: Sets one of Three valid ranges.
 219:.\Generated_Source\PSoC5/SW_DAC.c **** *
 220:.\Generated_Source\PSoC5/SW_DAC.c **** * Return:
ARM GAS  D:\TEMP\ccaqzfrw.s 			page 7


 221:.\Generated_Source\PSoC5/SW_DAC.c **** *  void 
 222:.\Generated_Source\PSoC5/SW_DAC.c **** *
 223:.\Generated_Source\PSoC5/SW_DAC.c **** * Theory:
 224:.\Generated_Source\PSoC5/SW_DAC.c **** *
 225:.\Generated_Source\PSoC5/SW_DAC.c **** * Side Effects:
 226:.\Generated_Source\PSoC5/SW_DAC.c **** *
 227:.\Generated_Source\PSoC5/SW_DAC.c **** *******************************************************************************/
 228:.\Generated_Source\PSoC5/SW_DAC.c **** void SW_DAC_SetRange(uint8 range) 
 229:.\Generated_Source\PSoC5/SW_DAC.c **** {
 230:.\Generated_Source\PSoC5/SW_DAC.c ****     SW_DAC_CR0 &= (uint8)(~SW_DAC_RANGE_MASK);      /* Clear existing mode */
 231:.\Generated_Source\PSoC5/SW_DAC.c ****     SW_DAC_CR0 |= (range & SW_DAC_RANGE_MASK);      /*  Set Range  */
 232:.\Generated_Source\PSoC5/SW_DAC.c ****     SW_DAC_DacTrim();
 233:.\Generated_Source\PSoC5/SW_DAC.c **** }
 234:.\Generated_Source\PSoC5/SW_DAC.c **** 
 235:.\Generated_Source\PSoC5/SW_DAC.c **** 
 236:.\Generated_Source\PSoC5/SW_DAC.c **** /*******************************************************************************
 237:.\Generated_Source\PSoC5/SW_DAC.c **** * Function Name: SW_DAC_SetValue
 238:.\Generated_Source\PSoC5/SW_DAC.c **** ********************************************************************************
 239:.\Generated_Source\PSoC5/SW_DAC.c **** *
 240:.\Generated_Source\PSoC5/SW_DAC.c **** * Summary:
 241:.\Generated_Source\PSoC5/SW_DAC.c **** *  Set 8-bit DAC value
 242:.\Generated_Source\PSoC5/SW_DAC.c **** *
 243:.\Generated_Source\PSoC5/SW_DAC.c **** * Parameters:  
 244:.\Generated_Source\PSoC5/SW_DAC.c **** *  value:  Sets DAC value between 0 and 255.
 245:.\Generated_Source\PSoC5/SW_DAC.c **** *
 246:.\Generated_Source\PSoC5/SW_DAC.c **** * Return: 
 247:.\Generated_Source\PSoC5/SW_DAC.c **** *  void 
 248:.\Generated_Source\PSoC5/SW_DAC.c **** *
 249:.\Generated_Source\PSoC5/SW_DAC.c **** * Theory: 
 250:.\Generated_Source\PSoC5/SW_DAC.c **** *
 251:.\Generated_Source\PSoC5/SW_DAC.c **** * Side Effects:
 252:.\Generated_Source\PSoC5/SW_DAC.c **** *
 253:.\Generated_Source\PSoC5/SW_DAC.c **** *******************************************************************************/
 254:.\Generated_Source\PSoC5/SW_DAC.c **** void SW_DAC_SetValue(uint8 value) 
 255:.\Generated_Source\PSoC5/SW_DAC.c **** {
 122              		.loc 1 255 0
 123              		.cfi_startproc
 124              		@ args = 0, pretend = 0, frame = 0
 125              		@ frame_needed = 0, uses_anonymous_args = 0
 126              		@ link register save eliminated.
 127              	.LVL2:
 256:.\Generated_Source\PSoC5/SW_DAC.c ****     #if (CY_PSOC5A)
 257:.\Generated_Source\PSoC5/SW_DAC.c ****         uint8 SW_DAC_intrStatus = CyEnterCriticalSection();
 258:.\Generated_Source\PSoC5/SW_DAC.c ****     #endif /* CY_PSOC5A */
 259:.\Generated_Source\PSoC5/SW_DAC.c **** 
 260:.\Generated_Source\PSoC5/SW_DAC.c ****     SW_DAC_Data = value;                /*  Set Value  */
 128              		.loc 1 260 0
 129 0000 014B     		ldr	r3, .L11
 130 0002 1870     		strb	r0, [r3]
 131 0004 7047     		bx	lr
 132              	.L12:
 133 0006 00BF     		.align	2
 134              	.L11:
 135 0008 825B0040 		.word	1073765250
 136              		.cfi_endproc
 137              	.LFE6:
 138              		.size	SW_DAC_SetValue, .-SW_DAC_SetValue
ARM GAS  D:\TEMP\ccaqzfrw.s 			page 8


 139              		.section	.text.SW_DAC_DacTrim,"ax",%progbits
 140              		.align	1
 141              		.global	SW_DAC_DacTrim
 142              		.thumb
 143              		.thumb_func
 144              		.type	SW_DAC_DacTrim, %function
 145              	SW_DAC_DacTrim:
 146              	.LFB7:
 261:.\Generated_Source\PSoC5/SW_DAC.c **** 
 262:.\Generated_Source\PSoC5/SW_DAC.c ****     /* PSOC5A requires a double write */
 263:.\Generated_Source\PSoC5/SW_DAC.c ****     /* Exit Critical Section */
 264:.\Generated_Source\PSoC5/SW_DAC.c ****     #if (CY_PSOC5A)
 265:.\Generated_Source\PSoC5/SW_DAC.c ****         SW_DAC_Data = value;
 266:.\Generated_Source\PSoC5/SW_DAC.c ****         CyExitCriticalSection(SW_DAC_intrStatus);
 267:.\Generated_Source\PSoC5/SW_DAC.c ****     #endif /* CY_PSOC5A */
 268:.\Generated_Source\PSoC5/SW_DAC.c **** }
 269:.\Generated_Source\PSoC5/SW_DAC.c **** 
 270:.\Generated_Source\PSoC5/SW_DAC.c **** 
 271:.\Generated_Source\PSoC5/SW_DAC.c **** /*******************************************************************************
 272:.\Generated_Source\PSoC5/SW_DAC.c **** * Function Name: SW_DAC_DacTrim
 273:.\Generated_Source\PSoC5/SW_DAC.c **** ********************************************************************************
 274:.\Generated_Source\PSoC5/SW_DAC.c **** *
 275:.\Generated_Source\PSoC5/SW_DAC.c **** * Summary:
 276:.\Generated_Source\PSoC5/SW_DAC.c **** *  Set the trim value for the given range.
 277:.\Generated_Source\PSoC5/SW_DAC.c **** *
 278:.\Generated_Source\PSoC5/SW_DAC.c **** * Parameters:
 279:.\Generated_Source\PSoC5/SW_DAC.c **** *  range:  1V or 4V range.  See constants.
 280:.\Generated_Source\PSoC5/SW_DAC.c **** *
 281:.\Generated_Source\PSoC5/SW_DAC.c **** * Return:
 282:.\Generated_Source\PSoC5/SW_DAC.c **** *  void
 283:.\Generated_Source\PSoC5/SW_DAC.c **** *
 284:.\Generated_Source\PSoC5/SW_DAC.c **** * Theory: 
 285:.\Generated_Source\PSoC5/SW_DAC.c **** *
 286:.\Generated_Source\PSoC5/SW_DAC.c **** * Side Effects:
 287:.\Generated_Source\PSoC5/SW_DAC.c **** *
 288:.\Generated_Source\PSoC5/SW_DAC.c **** *******************************************************************************/
 289:.\Generated_Source\PSoC5/SW_DAC.c **** void SW_DAC_DacTrim(void) 
 290:.\Generated_Source\PSoC5/SW_DAC.c **** {
 147              		.loc 1 290 0
 148              		.cfi_startproc
 149              		@ args = 0, pretend = 0, frame = 0
 150              		@ frame_needed = 0, uses_anonymous_args = 0
 151              		@ link register save eliminated.
 291:.\Generated_Source\PSoC5/SW_DAC.c ****     uint8 mode;
 292:.\Generated_Source\PSoC5/SW_DAC.c **** 
 293:.\Generated_Source\PSoC5/SW_DAC.c ****     mode = (uint8)((SW_DAC_CR0 & SW_DAC_RANGE_MASK) >> 2) + SW_DAC_TRIM_M7_1V_RNG_OFFSET;
 152              		.loc 1 293 0
 153 0000 064B     		ldr	r3, .L14
 294:.\Generated_Source\PSoC5/SW_DAC.c ****     SW_DAC_TR = CY_GET_XTND_REG8((uint8 *)(SW_DAC_DAC_TRIM_BASE + mode));
 154              		.loc 1 294 0
 155 0002 074A     		ldr	r2, .L14+4
 293:.\Generated_Source\PSoC5/SW_DAC.c ****     SW_DAC_TR = CY_GET_XTND_REG8((uint8 *)(SW_DAC_DAC_TRIM_BASE + mode));
 156              		.loc 1 293 0
 157 0004 1B78     		ldrb	r3, [r3]	@ zero_extendqisi2
 158              	.LVL3:
 159 0006 C3F38103 		ubfx	r3, r3, #2, #2
 160              	.LVL4:
ARM GAS  D:\TEMP\ccaqzfrw.s 			page 9


 161              		.loc 1 294 0
 162 000a 03F19243 		add	r3, r3, #1224736768
 163 000e 0633     		adds	r3, r3, #6
 164 0010 93F82831 		ldrb	r3, [r3, #296]	@ zero_extendqisi2
 165 0014 DBB2     		uxtb	r3, r3
 166 0016 1370     		strb	r3, [r2]
 167 0018 7047     		bx	lr
 168              	.L15:
 169 001a 00BF     		.align	2
 170              	.L14:
 171 001c 28580040 		.word	1073764392
 172 0020 0A460040 		.word	1073759754
 173              		.cfi_endproc
 174              	.LFE7:
 175              		.size	SW_DAC_DacTrim, .-SW_DAC_DacTrim
 176              		.section	.text.SW_DAC_SetRange,"ax",%progbits
 177              		.align	1
 178              		.global	SW_DAC_SetRange
 179              		.thumb
 180              		.thumb_func
 181              		.type	SW_DAC_SetRange, %function
 182              	SW_DAC_SetRange:
 183              	.LFB5:
 229:.\Generated_Source\PSoC5/SW_DAC.c ****     SW_DAC_CR0 &= (uint8)(~SW_DAC_RANGE_MASK);      /* Clear existing mode */
 184              		.loc 1 229 0
 185              		.cfi_startproc
 186              		@ args = 0, pretend = 0, frame = 0
 187              		@ frame_needed = 0, uses_anonymous_args = 0
 188              		@ link register save eliminated.
 189              	.LVL5:
 230:.\Generated_Source\PSoC5/SW_DAC.c ****     SW_DAC_CR0 |= (range & SW_DAC_RANGE_MASK);      /*  Set Range  */
 190              		.loc 1 230 0
 191 0000 054B     		ldr	r3, .L17
 231:.\Generated_Source\PSoC5/SW_DAC.c ****     SW_DAC_DacTrim();
 192              		.loc 1 231 0
 193 0002 00F00C00 		and	r0, r0, #12
 194              	.LVL6:
 230:.\Generated_Source\PSoC5/SW_DAC.c ****     SW_DAC_CR0 |= (range & SW_DAC_RANGE_MASK);      /*  Set Range  */
 195              		.loc 1 230 0
 196 0006 1A78     		ldrb	r2, [r3]	@ zero_extendqisi2
 197 0008 02F0F302 		and	r2, r2, #243
 198 000c 1A70     		strb	r2, [r3]
 231:.\Generated_Source\PSoC5/SW_DAC.c ****     SW_DAC_DacTrim();
 199              		.loc 1 231 0
 200 000e 1A78     		ldrb	r2, [r3]	@ zero_extendqisi2
 201 0010 1043     		orrs	r0, r0, r2
 202 0012 1870     		strb	r0, [r3]
 232:.\Generated_Source\PSoC5/SW_DAC.c **** }
 203              		.loc 1 232 0
 204 0014 FFF7FEBF 		b	SW_DAC_DacTrim
 205              	.LVL7:
 206              	.L18:
 207              		.align	2
 208              	.L17:
 209 0018 28580040 		.word	1073764392
 210              		.cfi_endproc
 211              	.LFE5:
ARM GAS  D:\TEMP\ccaqzfrw.s 			page 10


 212              		.size	SW_DAC_SetRange, .-SW_DAC_SetRange
 213              		.section	.text.SW_DAC_Init,"ax",%progbits
 214              		.align	1
 215              		.global	SW_DAC_Init
 216              		.thumb
 217              		.thumb_func
 218              		.type	SW_DAC_Init, %function
 219              	SW_DAC_Init:
 220              	.LFB0:
  56:.\Generated_Source\PSoC5/SW_DAC.c ****     SW_DAC_CR0 = (SW_DAC_MODE_V );
 221              		.loc 1 56 0
 222              		.cfi_startproc
 223              		@ args = 0, pretend = 0, frame = 0
 224              		@ frame_needed = 0, uses_anonymous_args = 0
 225 0000 08B5     		push	{r3, lr}
 226              		.cfi_def_cfa_offset 8
 227              		.cfi_offset 3, -8
 228              		.cfi_offset 14, -4
  57:.\Generated_Source\PSoC5/SW_DAC.c **** 
 229              		.loc 1 57 0
 230 0002 054B     		ldr	r3, .L20
 231 0004 0020     		movs	r0, #0
 232 0006 1870     		strb	r0, [r3]
  63:.\Generated_Source\PSoC5/SW_DAC.c ****     #endif /* (SW_DAC_DEFAULT_DATA_SRC != 0 ) */
 233              		.loc 1 63 0
 234 0008 5870     		strb	r0, [r3, #1]
  72:.\Generated_Source\PSoC5/SW_DAC.c **** 
 235              		.loc 1 72 0
 236 000a FFF7FEFF 		bl	SW_DAC_SetRange
 237              	.LVL8:
  76:.\Generated_Source\PSoC5/SW_DAC.c **** 
 238              		.loc 1 76 0
 239 000e BDE80840 		pop	{r3, lr}
 240              		.cfi_restore 14
 241              		.cfi_restore 3
 242              		.cfi_def_cfa_offset 0
  75:.\Generated_Source\PSoC5/SW_DAC.c **** }
 243              		.loc 1 75 0
 244 0012 0220     		movs	r0, #2
 245 0014 FFF7FEBF 		b	SW_DAC_SetSpeed
 246              	.LVL9:
 247              	.L21:
 248              		.align	2
 249              	.L20:
 250 0018 28580040 		.word	1073764392
 251              		.cfi_endproc
 252              	.LFE0:
 253              		.size	SW_DAC_Init, .-SW_DAC_Init
 254              		.section	.text.SW_DAC_Start,"ax",%progbits
 255              		.align	1
 256              		.global	SW_DAC_Start
 257              		.thumb
 258              		.thumb_func
 259              		.type	SW_DAC_Start, %function
 260              	SW_DAC_Start:
 261              	.LFB2:
 134:.\Generated_Source\PSoC5/SW_DAC.c ****     /* Hardware initiazation only needs to occure the first time */
ARM GAS  D:\TEMP\ccaqzfrw.s 			page 11


 262              		.loc 1 134 0
 263              		.cfi_startproc
 264              		@ args = 0, pretend = 0, frame = 0
 265              		@ frame_needed = 0, uses_anonymous_args = 0
 266 0000 10B5     		push	{r4, lr}
 267              		.cfi_def_cfa_offset 8
 268              		.cfi_offset 4, -8
 269              		.cfi_offset 14, -4
 136:.\Generated_Source\PSoC5/SW_DAC.c ****     { 
 270              		.loc 1 136 0
 271 0002 064C     		ldr	r4, .L25
 272 0004 2378     		ldrb	r3, [r4]	@ zero_extendqisi2
 273 0006 1BB9     		cbnz	r3, .L23
 138:.\Generated_Source\PSoC5/SW_DAC.c ****         SW_DAC_initVar = 1u;
 274              		.loc 1 138 0
 275 0008 FFF7FEFF 		bl	SW_DAC_Init
 276              	.LVL10:
 139:.\Generated_Source\PSoC5/SW_DAC.c ****     }
 277              		.loc 1 139 0
 278 000c 0123     		movs	r3, #1
 279 000e 2370     		strb	r3, [r4]
 280              	.L23:
 143:.\Generated_Source\PSoC5/SW_DAC.c **** 
 281              		.loc 1 143 0
 282 0010 FFF7FEFF 		bl	SW_DAC_Enable
 283              	.LVL11:
 284              	.LBB4:
 285              	.LBB5:
 260:.\Generated_Source\PSoC5/SW_DAC.c **** 
 286              		.loc 1 260 0
 287 0014 024B     		ldr	r3, .L25+4
 288 0016 4B22     		movs	r2, #75
 289 0018 1A70     		strb	r2, [r3]
 290 001a 10BD     		pop	{r4, pc}
 291              	.L26:
 292              		.align	2
 293              	.L25:
 294 001c 00000000 		.word	.LANCHOR0
 295 0020 825B0040 		.word	1073765250
 296              	.LBE5:
 297              	.LBE4:
 298              		.cfi_endproc
 299              	.LFE2:
 300              		.size	SW_DAC_Start, .-SW_DAC_Start
 301              		.global	SW_DAC_initVar
 302              		.bss
 303              		.set	.LANCHOR0,. + 0
 304              		.type	SW_DAC_initVar, %object
 305              		.size	SW_DAC_initVar, 1
 306              	SW_DAC_initVar:
 307 0000 00       		.space	1
 308              		.text
 309              	.Letext0:
 310              		.file 2 ".\\Generated_Source\\PSoC5\\cytypes.h"