ARM GAS  C:\Users\Daniel\AppData\Local\Temp\ccWzh9Ld.s 			page 1


   1              		.syntax unified
   2              		.cpu cortex-m3
   3              		.fpu softvfp
   4              		.eabi_attribute 20, 1
   5              		.eabi_attribute 21, 1
   6              		.eabi_attribute 23, 3
   7              		.eabi_attribute 24, 1
   8              		.eabi_attribute 25, 1
   9              		.eabi_attribute 26, 1
  10              		.eabi_attribute 30, 1
  11              		.eabi_attribute 34, 1
  12              		.eabi_attribute 18, 4
  13              		.thumb
  14              		.file	"camera_display.c"
  15              		.text
  16              	.Ltext0:
  17              		.cfi_sections	.debug_frame
  18              		.section	.ram,"ax",%progbits
  19              		.align	2
  20              		.thumb
  21              		.thumb_func
  22              		.type	convert_line, %function
  23              	convert_line:
  24              	.LFB63:
  25              		.file 1 ".\\camera_display.c"
   1:.\camera_display.c **** /*
   2:.\camera_display.c ****  * Copyright @Pucktacular, 2016
   3:.\camera_display.c ****  * @Matt Gebert, Daniel Hranilovic & Kevin Duxbury
   4:.\camera_display.c ****  * All Rights Reserved
   5:.\camera_display.c ****  * UNPUBLISHED, LICENSED SOFTWARE.
   6:.\camera_display.c ****  *
   7:.\camera_display.c ****  * CONFIDENTIAL AND PROPRIETARY INFORMATION
   8:.\camera_display.c ****  * WHICH IS THE PROPERTY OF your company.
   9:.\camera_display.c ****  *
  10:.\camera_display.c ****  * ========================================
  11:.\camera_display.c **** */
  12:.\camera_display.c **** #include<project.h>
  13:.\camera_display.c **** #include "camera_display.h"
  14:.\camera_display.c **** 
  15:.\camera_display.c **** static uint8 LCD_linebuffer[320*3];
  16:.\camera_display.c **** 
  17:.\camera_display.c **** static uint16 hist[32][32];
  18:.\camera_display.c **** 
  19:.\camera_display.c **** __attribute__((section(".ram")))
  20:.\camera_display.c **** static void convert_line()
  21:.\camera_display.c **** {
  26              		.loc 1 21 0
  27              		.cfi_startproc
  28              		@ args = 0, pretend = 0, frame = 0
  29              		@ frame_needed = 0, uses_anonymous_args = 0
  30              		@ link register save eliminated.
  31 0000 F0B4     		push	{r4, r5, r6, r7}
  32              		.cfi_def_cfa_offset 16
  33              		.cfi_offset 4, -16
  34              		.cfi_offset 5, -12
  35              		.cfi_offset 6, -8
  36              		.cfi_offset 7, -4
ARM GAS  C:\Users\Daniel\AppData\Local\Temp\ccWzh9Ld.s 			page 2


  37              	.LVL0:
  22:.\camera_display.c ****     uint32 *p=Camera_linebuffer;
  23:.\camera_display.c ****     uint8 *o=LCD_linebuffer;
  38              		.loc 1 23 0
  39 0002 2448     		ldr	r0, .L17
  22:.\camera_display.c ****     uint32 *p=Camera_linebuffer;
  40              		.loc 1 22 0
  41 0004 244B     		ldr	r3, .L17+4
  24:.\camera_display.c ****     while(p<Camera_linebuffer+160)
  42              		.loc 1 24 0
  43 0006 3FE0     		b	.L2
  44              	.LVL1:
  45              	.L9:
  46              	.LBB2:
  25:.\camera_display.c ****     {
  26:.\camera_display.c ****         union
  27:.\camera_display.c ****         {
  28:.\camera_display.c ****             uint32 packed;
  29:.\camera_display.c ****             struct
  30:.\camera_display.c ****             {
  31:.\camera_display.c ****                 int8 U;
  32:.\camera_display.c ****                 uint8 Y0;
  33:.\camera_display.c ****                 int8 V;
  34:.\camera_display.c ****                 uint8 Y1;
  35:.\camera_display.c ****             } data;
  36:.\camera_display.c ****         } pix;
  37:.\camera_display.c ****         pix.packed=*p++; //read pixel from Camera_linebuffer
  47              		.loc 1 37 0
  48 0008 1D1D     		adds	r5, r3, #4
  49              	.LVL2:
  50 000a 1C68     		ldr	r4, [r3]
  38:.\camera_display.c ****         int U=pix.data.U;
  51              		.loc 1 38 0
  52 000c 62B2     		sxtb	r2, r4
  53              	.LVL3:
  39:.\camera_display.c ****         int Y0=pix.data.Y0;
  54              		.loc 1 39 0
  55 000e C4F30721 		ubfx	r1, r4, #8, #8
  56              	.LVL4:
  40:.\camera_display.c ****         int V=pix.data.V;
  57              		.loc 1 40 0
  58 0012 44F30746 		sbfx	r6, r4, #16, #8
  59              	.LVL5:
  41:.\camera_display.c ****         int Y1=pix.data.Y1;
  60              		.loc 1 41 0
  61 0016 230E     		lsrs	r3, r4, #24
  62              	.LVL6:
  42:.\camera_display.c ****                 
  43:.\camera_display.c ****         //convert YUV to RGB (left pixel in pair)
  44:.\camera_display.c ****         int R=Y0+V;
  45:.\camera_display.c ****         int G=Y0-U-V;
  63              		.loc 1 45 0
  64 0018 8C1A     		subs	r4, r1, r2
  65 001a A41B     		subs	r4, r4, r6
  66              	.LVL7:
  46:.\camera_display.c ****         int B=Y0+U;
  67              		.loc 1 46 0
ARM GAS  C:\Users\Daniel\AppData\Local\Temp\ccWzh9Ld.s 			page 3


  68 001c 8F18     		adds	r7, r1, r2
  69              	.LVL8:
  47:.\camera_display.c ****         
  48:.\camera_display.c ****         //saturate to 0-255 range; should compile to single unsigned saturate (USAT) instruction ea
  49:.\camera_display.c ****         R=R<0?0:R>0xff?0xff:R;
  70              		.loc 1 49 0
  71 001e 8919     		adds	r1, r1, r6
  72              	.LVL9:
  73 0020 03D4     		bmi	.L10
  74              		.loc 1 49 0 is_stmt 0 discriminator 1
  75 0022 FF29     		cmp	r1, #255
  76 0024 A8BF     		it	ge
  77 0026 FF21     		movge	r1, #255
  78              	.LVL10:
  79 0028 00E0     		b	.L3
  80              	.LVL11:
  81              	.L10:
  82              		.loc 1 49 0
  83 002a 0021     		movs	r1, #0
  84              	.LVL12:
  85              	.L3:
  50:.\camera_display.c ****         G=G<0?0:G>0xff?0xff:G;
  86              		.loc 1 50 0 is_stmt 1 discriminator 4
  87 002c 002C     		cmp	r4, #0
  88 002e 03DB     		blt	.L11
  89              		.loc 1 50 0 is_stmt 0 discriminator 1
  90 0030 FF2C     		cmp	r4, #255
  91 0032 A8BF     		it	ge
  92 0034 FF24     		movge	r4, #255
  93              	.LVL13:
  94 0036 00E0     		b	.L4
  95              	.LVL14:
  96              	.L11:
  97              		.loc 1 50 0
  98 0038 0024     		movs	r4, #0
  99              	.LVL15:
 100              	.L4:
  51:.\camera_display.c ****         B=B<0?0:B>0xff?0xff:B;
 101              		.loc 1 51 0 is_stmt 1 discriminator 4
 102 003a 002F     		cmp	r7, #0
 103 003c 03DB     		blt	.L12
 104              		.loc 1 51 0 is_stmt 0 discriminator 1
 105 003e FF2F     		cmp	r7, #255
 106 0040 A8BF     		it	ge
 107 0042 FF27     		movge	r7, #255
 108              	.LVL16:
 109 0044 00E0     		b	.L5
 110              	.LVL17:
 111              	.L12:
 112              		.loc 1 51 0
 113 0046 0027     		movs	r7, #0
 114              	.LVL18:
 115              	.L5:
  52:.\camera_display.c ****         
  53:.\camera_display.c ****         //write out to LCD_linebuffer
  54:.\camera_display.c ****         *o++=R;
 116              		.loc 1 54 0 is_stmt 1 discriminator 4
ARM GAS  C:\Users\Daniel\AppData\Local\Temp\ccWzh9Ld.s 			page 4


 117 0048 0170     		strb	r1, [r0]
 118              	.LVL19:
  55:.\camera_display.c ****         *o++=G;
 119              		.loc 1 55 0 discriminator 4
 120 004a 4470     		strb	r4, [r0, #1]
 121              	.LVL20:
  56:.\camera_display.c ****         *o++=B;
 122              		.loc 1 56 0 discriminator 4
 123 004c 8770     		strb	r7, [r0, #2]
 124              	.LVL21:
  57:.\camera_display.c ****         
  58:.\camera_display.c ****          //convert YUV to RGB (right pixel in pair)
  59:.\camera_display.c ****         R=Y1+V;
  60:.\camera_display.c ****         G=Y1-U-V;
 125              		.loc 1 60 0 discriminator 4
 126 004e 991A     		subs	r1, r3, r2
 127 0050 891B     		subs	r1, r1, r6
 128              	.LVL22:
  61:.\camera_display.c ****         B=Y1+U;
 129              		.loc 1 61 0 discriminator 4
 130 0052 1A44     		add	r2, r2, r3
 131              	.LVL23:
  62:.\camera_display.c ****         
  63:.\camera_display.c ****         //saturate to 0-255 range; should compile to single unsigned saturate (USAT) instruction ea
  64:.\camera_display.c ****         R=R<0?0:R>0xff?0xff:R;
 132              		.loc 1 64 0 discriminator 4
 133 0054 9B19     		adds	r3, r3, r6
 134              	.LVL24:
 135 0056 03D4     		bmi	.L13
 136              		.loc 1 64 0 is_stmt 0 discriminator 1
 137 0058 FF2B     		cmp	r3, #255
 138 005a A8BF     		it	ge
 139 005c FF23     		movge	r3, #255
 140              	.LVL25:
 141 005e 00E0     		b	.L6
 142              	.LVL26:
 143              	.L13:
 144              		.loc 1 64 0
 145 0060 0023     		movs	r3, #0
 146              	.LVL27:
 147              	.L6:
  65:.\camera_display.c ****         G=G<0?0:G>0xff?0xff:G;
 148              		.loc 1 65 0 is_stmt 1 discriminator 4
 149 0062 0029     		cmp	r1, #0
 150 0064 03DB     		blt	.L14
 151              		.loc 1 65 0 is_stmt 0 discriminator 1
 152 0066 FF29     		cmp	r1, #255
 153 0068 A8BF     		it	ge
 154 006a FF21     		movge	r1, #255
 155              	.LVL28:
 156 006c 00E0     		b	.L7
 157              	.LVL29:
 158              	.L14:
 159              		.loc 1 65 0
 160 006e 0021     		movs	r1, #0
 161              	.LVL30:
 162              	.L7:
ARM GAS  C:\Users\Daniel\AppData\Local\Temp\ccWzh9Ld.s 			page 5


  66:.\camera_display.c ****         B=B<0?0:B>0xff?0xff:B;
 163              		.loc 1 66 0 is_stmt 1 discriminator 4
 164 0070 002A     		cmp	r2, #0
 165 0072 03DB     		blt	.L15
 166              		.loc 1 66 0 is_stmt 0 discriminator 1
 167 0074 FF2A     		cmp	r2, #255
 168 0076 A8BF     		it	ge
 169 0078 FF22     		movge	r2, #255
 170              	.LVL31:
 171 007a 00E0     		b	.L8
 172              	.LVL32:
 173              	.L15:
 174              		.loc 1 66 0
 175 007c 0022     		movs	r2, #0
 176              	.LVL33:
 177              	.L8:
  67:.\camera_display.c ****         
  68:.\camera_display.c ****         //write out to LCD_linebuffer
  69:.\camera_display.c ****         *o++=R;
 178              		.loc 1 69 0 is_stmt 1 discriminator 4
 179 007e C370     		strb	r3, [r0, #3]
 180              	.LVL34:
  70:.\camera_display.c ****         *o++=G;
 181              		.loc 1 70 0 discriminator 4
 182 0080 0171     		strb	r1, [r0, #4]
 183              	.LVL35:
  71:.\camera_display.c ****         *o++=B;
 184              		.loc 1 71 0 discriminator 4
 185 0082 4271     		strb	r2, [r0, #5]
 186 0084 0630     		adds	r0, r0, #6
 187              	.LVL36:
  37:.\camera_display.c ****         int U=pix.data.U;
 188              		.loc 1 37 0 discriminator 4
 189 0086 2B46     		mov	r3, r5
 190              	.LVL37:
 191              	.L2:
 192              	.LBE2:
  24:.\camera_display.c ****     {
 193              		.loc 1 24 0
 194 0088 044A     		ldr	r2, .L17+8
 195 008a 9342     		cmp	r3, r2
 196 008c BCD3     		bcc	.L9
  72:.\camera_display.c ****     }
  73:.\camera_display.c **** }
 197              		.loc 1 73 0
 198 008e F0BC     		pop	{r4, r5, r6, r7}
 199              		.cfi_restore 7
 200              		.cfi_restore 6
 201              		.cfi_restore 5
 202              		.cfi_restore 4
 203              		.cfi_def_cfa_offset 0
 204 0090 7047     		bx	lr
 205              	.L18:
 206 0092 00BF     		.align	2
 207              	.L17:
 208 0094 00000000 		.word	.LANCHOR0
 209 0098 00000000 		.word	Camera_linebuffer
ARM GAS  C:\Users\Daniel\AppData\Local\Temp\ccWzh9Ld.s 			page 6


 210 009c 80020000 		.word	Camera_linebuffer+640
 211              		.cfi_endproc
 212              	.LFE63:
 213              		.size	convert_line, .-convert_line
 214              		.align	2
 215              		.thumb
 216              		.thumb_func
 217              		.type	threshold_line, %function
 218              	threshold_line:
 219              	.LFB64:
  74:.\camera_display.c **** 
  75:.\camera_display.c **** __attribute__((section(".ram")))
  76:.\camera_display.c **** static void threshold_line()
  77:.\camera_display.c **** {
 220              		.loc 1 77 0
 221              		.cfi_startproc
 222              		@ args = 0, pretend = 0, frame = 0
 223              		@ frame_needed = 0, uses_anonymous_args = 0
 224              		@ link register save eliminated.
 225 00a0 10B4     		push	{r4}
 226              		.cfi_def_cfa_offset 4
 227              		.cfi_offset 4, -4
 228              	.LVL38:
  78:.\camera_display.c ****     uint8 *p=(uint8*)Camera_linebuffer;
  79:.\camera_display.c ****     uint8 *o=LCD_linebuffer;
 229              		.loc 1 79 0
 230 00a2 124B     		ldr	r3, .L29
  78:.\camera_display.c ****     uint8 *p=(uint8*)Camera_linebuffer;
 231              		.loc 1 78 0
 232 00a4 124A     		ldr	r2, .L29+4
  80:.\camera_display.c ****     while(p<(uint8*)Camera_linebuffer+160)
 233              		.loc 1 80 0
 234 00a6 1BE0     		b	.L20
 235              	.LVL39:
 236              	.L24:
 237              	.LBB3:
  81:.\camera_display.c ****     {
  82:.\camera_display.c ****         uint8 c=*p++;
 238              		.loc 1 82 0
 239 00a8 541C     		adds	r4, r2, #1
 240              	.LVL40:
 241 00aa 1278     		ldrb	r2, [r2]	@ zero_extendqisi2
 242              	.LVL41:
  83:.\camera_display.c ****         
  84:.\camera_display.c ****         //convert YUV to RGB (left pixel in pair)
  85:.\camera_display.c ****         uint8 R=c&9?255:0;
 243              		.loc 1 85 0
 244 00ac 12F0090F 		tst	r2, #9
 245 00b0 01D0     		beq	.L25
 246 00b2 FF20     		movs	r0, #255
 247 00b4 00E0     		b	.L21
 248              	.L25:
 249 00b6 0020     		movs	r0, #0
 250              	.L21:
 251              	.LVL42:
  86:.\camera_display.c ****         uint8 G=c&2?255:0;
 252              		.loc 1 86 0 discriminator 4
ARM GAS  C:\Users\Daniel\AppData\Local\Temp\ccWzh9Ld.s 			page 7


 253 00b8 12F0020F 		tst	r2, #2
 254 00bc 01D0     		beq	.L26
 255              		.loc 1 86 0 is_stmt 0
 256 00be FF21     		movs	r1, #255
 257 00c0 00E0     		b	.L22
 258              	.L26:
 259 00c2 0021     		movs	r1, #0
 260              	.L22:
 261              	.LVL43:
  87:.\camera_display.c ****         uint8 B=c&0xc?255:0;
 262              		.loc 1 87 0 is_stmt 1 discriminator 4
 263 00c4 12F00C0F 		tst	r2, #12
 264 00c8 01D0     		beq	.L27
 265              		.loc 1 87 0 is_stmt 0
 266 00ca FF22     		movs	r2, #255
 267              	.LVL44:
 268 00cc 00E0     		b	.L23
 269              	.LVL45:
 270              	.L27:
 271 00ce 0022     		movs	r2, #0
 272              	.LVL46:
 273              	.L23:
  88:.\camera_display.c ****         
  89:.\camera_display.c ****         //write out to LCD_linebuffer
  90:.\camera_display.c ****         *o++=R;
 274              		.loc 1 90 0 is_stmt 1 discriminator 4
 275 00d0 1870     		strb	r0, [r3]
 276              	.LVL47:
  91:.\camera_display.c ****         *o++=G;
 277              		.loc 1 91 0 discriminator 4
 278 00d2 5970     		strb	r1, [r3, #1]
 279              	.LVL48:
  92:.\camera_display.c ****         *o++=B;
 280              		.loc 1 92 0 discriminator 4
 281 00d4 9A70     		strb	r2, [r3, #2]
 282              	.LVL49:
  93:.\camera_display.c ****         
  94:.\camera_display.c ****         *o++=R;
 283              		.loc 1 94 0 discriminator 4
 284 00d6 D870     		strb	r0, [r3, #3]
 285              	.LVL50:
  95:.\camera_display.c ****         *o++=G;
 286              		.loc 1 95 0 discriminator 4
 287 00d8 1971     		strb	r1, [r3, #4]
 288              	.LVL51:
  96:.\camera_display.c ****         *o++=B;
 289              		.loc 1 96 0 discriminator 4
 290 00da 5A71     		strb	r2, [r3, #5]
 291 00dc 0633     		adds	r3, r3, #6
 292              	.LVL52:
  82:.\camera_display.c ****         
 293              		.loc 1 82 0 discriminator 4
 294 00de 2246     		mov	r2, r4
 295              	.LVL53:
 296              	.L20:
 297              	.LBE3:
  80:.\camera_display.c ****     {
ARM GAS  C:\Users\Daniel\AppData\Local\Temp\ccWzh9Ld.s 			page 8


 298              		.loc 1 80 0
 299 00e0 0449     		ldr	r1, .L29+8
 300 00e2 8A42     		cmp	r2, r1
 301 00e4 E0D3     		bcc	.L24
  97:.\camera_display.c ****     }
  98:.\camera_display.c **** }
 302              		.loc 1 98 0
 303 00e6 5DF8044B 		ldr	r4, [sp], #4
 304              		.cfi_restore 4
 305              		.cfi_def_cfa_offset 0
 306 00ea 7047     		bx	lr
 307              	.L30:
 308              		.align	2
 309              	.L29:
 310 00ec 00000000 		.word	.LANCHOR0
 311 00f0 00000000 		.word	Camera_linebuffer
 312 00f4 A0000000 		.word	Camera_linebuffer+160
 313              		.cfi_endproc
 314              	.LFE64:
 315              		.size	threshold_line, .-threshold_line
 316              		.align	2
 317              		.thumb
 318              		.thumb_func
 319              		.type	disp_line, %function
 320              	disp_line:
 321              	.LFB65:
  99:.\camera_display.c **** 
 100:.\camera_display.c **** static uint8 LCD_DMA_ch,LCD_DMA_TD;
 101:.\camera_display.c **** 
 102:.\camera_display.c **** __attribute__((section(".ram")))
 103:.\camera_display.c **** static void disp_line()
 104:.\camera_display.c **** {
 322              		.loc 1 104 0
 323              		.cfi_startproc
 324              		@ args = 0, pretend = 0, frame = 8
 325              		@ frame_needed = 0, uses_anonymous_args = 0
 326 00f8 30B5     		push	{r4, r5, lr}
 327              		.cfi_def_cfa_offset 12
 328              		.cfi_offset 4, -12
 329              		.cfi_offset 5, -8
 330              		.cfi_offset 14, -4
 331 00fa 83B0     		sub	sp, sp, #12
 332              		.cfi_def_cfa_offset 24
 105:.\camera_display.c ****     CS_Write(3);
 333              		.loc 1 105 0
 334 00fc 0320     		movs	r0, #3
 335 00fe FFF7FEFF 		bl	CS_Write
 336              	.LVL54:
 106:.\camera_display.c ****     OE_Control=1;
 337              		.loc 1 106 0
 338 0102 0124     		movs	r4, #1
 339 0104 144B     		ldr	r3, .L36
 340 0106 1C70     		strb	r4, [r3]
 107:.\camera_display.c ****     
 108:.\camera_display.c ****     CyDmaChSetInitialTd(LCD_DMA_ch,LCD_DMA_TD); //set initial TD
 341              		.loc 1 108 0
 342 0108 144D     		ldr	r5, .L36+4
ARM GAS  C:\Users\Daniel\AppData\Local\Temp\ccWzh9Ld.s 			page 9


 343 010a 95F8C003 		ldrb	r0, [r5, #960]	@ zero_extendqisi2
 344 010e 95F8C113 		ldrb	r1, [r5, #961]	@ zero_extendqisi2
 345 0112 FFF7FEFF 		bl	CyDmaChSetInitialTd
 346              	.LVL55:
 109:.\camera_display.c **** 	CyDmaChEnable(LCD_DMA_ch,1); //enable channel (start streaming)
 347              		.loc 1 109 0
 348 0116 95F8C003 		ldrb	r0, [r5, #960]	@ zero_extendqisi2
 349 011a 2146     		mov	r1, r4
 350 011c FFF7FEFF 		bl	CyDmaChEnable
 351              	.LVL56:
 110:.\camera_display.c ****     
 111:.\camera_display.c ****     uint8 state=1;
 352              		.loc 1 111 0
 353 0120 8DF80740 		strb	r4, [sp, #7]
 112:.\camera_display.c ****     while(state&1) CyDmaChStatus(LCD_DMA_ch,NULL,&state); //wait until DMA is finished
 354              		.loc 1 112 0
 355 0124 07E0     		b	.L32
 356              	.L33:
 357              		.loc 1 112 0 is_stmt 0 discriminator 2
 358 0126 0D4B     		ldr	r3, .L36+4
 359 0128 93F8C003 		ldrb	r0, [r3, #960]	@ zero_extendqisi2
 360 012c 0021     		movs	r1, #0
 361 012e 0DF10702 		add	r2, sp, #7
 362 0132 FFF7FEFF 		bl	CyDmaChStatus
 363              	.LVL57:
 364              	.L32:
 365              		.loc 1 112 0 discriminator 1
 366 0136 9DF80730 		ldrb	r3, [sp, #7]	@ zero_extendqisi2
 367 013a 13F0010F 		tst	r3, #1
 368 013e F2D1     		bne	.L33
 369              	.L34:
 113:.\camera_display.c ****     while(!LCD_Empty); //make sure FIFO has been emptied
 370              		.loc 1 113 0 is_stmt 1 discriminator 1
 371 0140 074B     		ldr	r3, .L36+8
 372 0142 1B78     		ldrb	r3, [r3]	@ zero_extendqisi2
 373 0144 13F0020F 		tst	r3, #2
 374 0148 FAD0     		beq	.L34
 114:.\camera_display.c ****     
 115:.\camera_display.c ****     OE_Control=0;
 375              		.loc 1 115 0
 376 014a 0020     		movs	r0, #0
 377 014c 024B     		ldr	r3, .L36
 378 014e 1870     		strb	r0, [r3]
 116:.\camera_display.c ****     CS_Write(0);
 379              		.loc 1 116 0
 380 0150 FFF7FEFF 		bl	CS_Write
 381              	.LVL58:
 117:.\camera_display.c **** }
 382              		.loc 1 117 0
 383 0154 03B0     		add	sp, sp, #12
 384              		.cfi_def_cfa_offset 12
 385              		@ sp needed
 386 0156 30BD     		pop	{r4, r5, pc}
 387              	.L37:
 388              		.align	2
 389              	.L36:
 390 0158 7D640040 		.word	1073767549
ARM GAS  C:\Users\Daniel\AppData\Local\Temp\ccWzh9Ld.s 			page 10


 391 015c 00000000 		.word	.LANCHOR0
 392 0160 67640040 		.word	1073767527
 393              		.cfi_endproc
 394              	.LFE65:
 395              		.size	disp_line, .-disp_line
 396              		.align	2
 397              		.global	Camera_end_line
 398              		.thumb
 399              		.thumb_func
 400              		.type	Camera_end_line, %function
 401              	Camera_end_line:
 402              	.LFB66:
 118:.\camera_display.c **** 
 119:.\camera_display.c **** __attribute__((section(".ram")))
 120:.\camera_display.c **** void Camera_end_line()
 121:.\camera_display.c **** {
 403              		.loc 1 121 0
 404              		.cfi_startproc
 405              		@ args = 0, pretend = 0, frame = 0
 406              		@ frame_needed = 0, uses_anonymous_args = 0
 407 0164 08B5     		push	{r3, lr}
 408              		.cfi_def_cfa_offset 8
 409              		.cfi_offset 3, -8
 410              		.cfi_offset 14, -4
 122:.\camera_display.c ****     if(display_mode==HISTOGRAM)
 411              		.loc 1 122 0
 412 0166 1E4B     		ldr	r3, .L49
 413 0168 1B78     		ldrb	r3, [r3]	@ zero_extendqisi2
 414 016a 012B     		cmp	r3, #1
 415 016c 19D1     		bne	.L47
 416 016e 13E0     		b	.L46
 417              	.LVL59:
 418              	.L41:
 419              	.LBB4:
 420              	.LBB5:
 123:.\camera_display.c ****     {
 124:.\camera_display.c ****         uint32 *p=Camera_linebuffer;
 125:.\camera_display.c ****         while(p<Camera_linebuffer+160)
 126:.\camera_display.c ****         {
 127:.\camera_display.c ****             union
 128:.\camera_display.c ****             {
 129:.\camera_display.c ****                 uint32 packed;
 130:.\camera_display.c ****                 struct
 131:.\camera_display.c ****                 {
 132:.\camera_display.c ****                     int8 U;
 133:.\camera_display.c ****                     uint8 Y0;
 134:.\camera_display.c ****                     int8 V;
 135:.\camera_display.c ****                     uint8 Y1;
 136:.\camera_display.c ****                 } data;
 137:.\camera_display.c ****             } pix;
 138:.\camera_display.c ****             pix.packed=*p++; //read pixel from Camera_linebuffer
 421              		.loc 1 138 0
 422 0170 0A68     		ldr	r2, [r1]
 139:.\camera_display.c ****             int U=pix.data.U;
 423              		.loc 1 139 0
 424 0172 53B2     		sxtb	r3, r2
 425              	.LVL60:
ARM GAS  C:\Users\Daniel\AppData\Local\Temp\ccWzh9Ld.s 			page 11


 140:.\camera_display.c ****             int V=pix.data.V;
 426              		.loc 1 140 0
 427 0174 42F30742 		sbfx	r2, r2, #16, #8
 428              	.LVL61:
 141:.\camera_display.c ****             
 142:.\camera_display.c ****             hist[(U+128)>>3][(V+128)>>3]++;
 429              		.loc 1 142 0
 430 0178 8033     		adds	r3, r3, #128
 431              	.LVL62:
 432 017a DB10     		asrs	r3, r3, #3
 433              	.LVL63:
 434 017c 8032     		adds	r2, r2, #128
 435              	.LVL64:
 436 017e 5B01     		lsls	r3, r3, #5
 437 0180 03EBE203 		add	r3, r3, r2, asr #3
 438 0184 174A     		ldr	r2, .L49+4
 439              	.LVL65:
 440 0186 02EB4303 		add	r3, r2, r3, lsl #1
 441 018a B3F8C423 		ldrh	r2, [r3, #964]
 442 018e 0132     		adds	r2, r2, #1
 443 0190 A3F8C423 		strh	r2, [r3, #964]	@ movhi
 444              	.LVL66:
 138:.\camera_display.c ****             int U=pix.data.U;
 445              		.loc 1 138 0
 446 0194 0431     		adds	r1, r1, #4
 447              	.LVL67:
 448 0196 00E0     		b	.L39
 449              	.LVL68:
 450              	.L46:
 451              	.LBE5:
 452              	.LBE4:
 453 0198 1349     		ldr	r1, .L49+8
 454              	.L39:
 455              	.LVL69:
 456              	.LBB6:
 125:.\camera_display.c ****         {
 457              		.loc 1 125 0
 458 019a 144B     		ldr	r3, .L49+12
 459 019c 9942     		cmp	r1, r3
 460 019e E7D3     		bcc	.L41
 461 01a0 08BD     		pop	{r3, pc}
 462              	.LVL70:
 463              	.L47:
 464              	.LBE6:
 143:.\camera_display.c ****         }
 144:.\camera_display.c ****         
 145:.\camera_display.c ****         return;
 146:.\camera_display.c ****     }
 147:.\camera_display.c ****     
 148:.\camera_display.c ****     static uint32 y=0;
 149:.\camera_display.c ****     if(y++) disp_line(); //don't display first line (not converted yet)
 465              		.loc 1 149 0
 466 01a2 104A     		ldr	r2, .L49+4
 467 01a4 D2F8C43B 		ldr	r3, [r2, #3012]
 468 01a8 591C     		adds	r1, r3, #1
 469 01aa C2F8C41B 		str	r1, [r2, #3012]
 470 01ae 0BB1     		cbz	r3, .L43
ARM GAS  C:\Users\Daniel\AppData\Local\Temp\ccWzh9Ld.s 			page 12


 471              		.loc 1 149 0 is_stmt 0 discriminator 1
 472 01b0 FFF7A2FF 		bl	disp_line
 473              	.LVL71:
 474              	.L43:
 150:.\camera_display.c ****     
 151:.\camera_display.c ****     if(display_mode==THRESHOLDED) threshold_line();
 475              		.loc 1 151 0 is_stmt 1
 476 01b4 0A4B     		ldr	r3, .L49
 477 01b6 1B78     		ldrb	r3, [r3]	@ zero_extendqisi2
 478 01b8 022B     		cmp	r3, #2
 479 01ba 02D1     		bne	.L44
 480              		.loc 1 151 0 is_stmt 0 discriminator 1
 481 01bc FFF770FF 		bl	threshold_line
 482              	.LVL72:
 483 01c0 01E0     		b	.L45
 484              	.L44:
 152:.\camera_display.c ****     else convert_line(); //conversion starts before start of next line (DMA won't catch up if conve
 485              		.loc 1 152 0 is_stmt 1
 486 01c2 FFF71DFF 		bl	convert_line
 487              	.LVL73:
 488              	.L45:
 153:.\camera_display.c ****     
 154:.\camera_display.c ****     if(y==240) y=0,disp_line(); //display last line (just converted)
 489              		.loc 1 154 0
 490 01c6 074B     		ldr	r3, .L49+4
 491 01c8 D3F8C43B 		ldr	r3, [r3, #3012]
 492 01cc F02B     		cmp	r3, #240
 493 01ce 05D1     		bne	.L38
 494              		.loc 1 154 0 is_stmt 0 discriminator 1
 495 01d0 0022     		movs	r2, #0
 496 01d2 044B     		ldr	r3, .L49+4
 497 01d4 C3F8C42B 		str	r2, [r3, #3012]
 498 01d8 FFF78EFF 		bl	disp_line
 499              	.LVL74:
 500              	.L38:
 501 01dc 08BD     		pop	{r3, pc}
 502              	.L50:
 503 01de 00BF     		.align	2
 504              	.L49:
 505 01e0 00000000 		.word	display_mode
 506 01e4 00000000 		.word	.LANCHOR0
 507 01e8 00000000 		.word	Camera_linebuffer
 508 01ec 80020000 		.word	Camera_linebuffer+640
 509              		.cfi_endproc
 510              	.LFE66:
 511              		.size	Camera_end_line, .-Camera_end_line
 512              		.section	.text.LCD_DMA_Start,"ax",%progbits
 513              		.align	2
 514              		.global	LCD_DMA_Start
 515              		.thumb
 516              		.thumb_func
 517              		.type	LCD_DMA_Start, %function
 518              	LCD_DMA_Start:
 519              	.LFB67:
 155:.\camera_display.c **** }
 156:.\camera_display.c **** 
 157:.\camera_display.c **** void LCD_DMA_Start()
ARM GAS  C:\Users\Daniel\AppData\Local\Temp\ccWzh9Ld.s 			page 13


 158:.\camera_display.c **** {
 520              		.loc 1 158 0 is_stmt 1
 521              		.cfi_startproc
 522              		@ args = 0, pretend = 0, frame = 0
 523              		@ frame_needed = 0, uses_anonymous_args = 0
 524 0000 10B5     		push	{r4, lr}
 525              		.cfi_def_cfa_offset 8
 526              		.cfi_offset 4, -8
 527              		.cfi_offset 14, -4
 159:.\camera_display.c ****     LCD_DMA_ch=LCD_DMA_DmaInitialize(1,1,HI16(CYDEV_SRAM_BASE),HI16(CYDEV_PERIPH_BASE)); //SRAM->pe
 528              		.loc 1 159 0
 529 0002 0120     		movs	r0, #1
 530 0004 0146     		mov	r1, r0
 531 0006 41F6FF72 		movw	r2, #8191
 532 000a 4FF48043 		mov	r3, #16384
 533 000e FFF7FEFF 		bl	LCD_DMA_DmaInitialize
 534              	.LVL75:
 535 0012 0D4C     		ldr	r4, .L53
 536 0014 84F8C003 		strb	r0, [r4, #960]
 160:.\camera_display.c **** 	LCD_DMA_TD=CyDmaTdAllocate();
 537              		.loc 1 160 0
 538 0018 FFF7FEFF 		bl	CyDmaTdAllocate
 539              	.LVL76:
 540 001c 84F8C103 		strb	r0, [r4, #961]
 161:.\camera_display.c ****     CyDmaTdSetAddress(LCD_DMA_TD,LO16((uint32)LCD_linebuffer),LO16(LCD_dp__F0_REG)); //from LCD_lin
 541              		.loc 1 161 0
 542 0020 A1B2     		uxth	r1, r4
 543 0022 46F24952 		movw	r2, #25929
 544 0026 FFF7FEFF 		bl	CyDmaTdSetAddress
 545              	.LVL77:
 162:.\camera_display.c ****     CyDmaTdSetConfiguration(LCD_DMA_TD,sizeof LCD_linebuffer,CY_DMA_DISABLE_TD,TD_INC_SRC_ADR); //d
 546              		.loc 1 162 0
 547 002a 94F8C103 		ldrb	r0, [r4, #961]	@ zero_extendqisi2
 548 002e 4FF47071 		mov	r1, #960
 549 0032 FE22     		movs	r2, #254
 550 0034 0123     		movs	r3, #1
 551 0036 FFF7FEFF 		bl	CyDmaTdSetConfiguration
 552              	.LVL78:
 163:.\camera_display.c **** 	CyDmaChPriority(LCD_DMA_ch,0); //ensure highest DMA priority (cannot intefere with camera's DMA si
 553              		.loc 1 163 0
 554 003a 94F8C003 		ldrb	r0, [r4, #960]	@ zero_extendqisi2
 555 003e 0021     		movs	r1, #0
 556 0040 FFF7FEFF 		bl	CyDmaChPriority
 557              	.LVL79:
 558 0044 10BD     		pop	{r4, pc}
 559              	.L54:
 560 0046 00BF     		.align	2
 561              	.L53:
 562 0048 00000000 		.word	.LANCHOR0
 563              		.cfi_endproc
 564              	.LFE67:
 565              		.size	LCD_DMA_Start, .-LCD_DMA_Start
 566              		.section	.text.CaptureFrame,"ax",%progbits
 567              		.align	2
 568              		.global	CaptureFrame
 569              		.thumb
 570              		.thumb_func
ARM GAS  C:\Users\Daniel\AppData\Local\Temp\ccWzh9Ld.s 			page 14


 571              		.type	CaptureFrame, %function
 572              	CaptureFrame:
 573              	.LFB68:
 164:.\camera_display.c **** }
 165:.\camera_display.c **** 
 166:.\camera_display.c **** void CaptureFrame()
 167:.\camera_display.c **** {
 574              		.loc 1 167 0
 575              		.cfi_startproc
 576              		@ args = 0, pretend = 0, frame = 8
 577              		@ frame_needed = 0, uses_anonymous_args = 0
 578 0000 2DE9F043 		push	{r4, r5, r6, r7, r8, r9, lr}
 579              		.cfi_def_cfa_offset 28
 580              		.cfi_offset 4, -28
 581              		.cfi_offset 5, -24
 582              		.cfi_offset 6, -20
 583              		.cfi_offset 7, -16
 584              		.cfi_offset 8, -12
 585              		.cfi_offset 9, -8
 586              		.cfi_offset 14, -4
 587 0004 83B0     		sub	sp, sp, #12
 588              		.cfi_def_cfa_offset 40
 168:.\camera_display.c ****     uint8 cs=CS_Read();
 589              		.loc 1 168 0
 590 0006 FFF7FEFF 		bl	CS_Read
 591              	.LVL80:
 592 000a 8046     		mov	r8, r0
 593              	.LVL81:
 169:.\camera_display.c ****     uint8 oe=OE_Read();
 594              		.loc 1 169 0
 595 000c FFF7FEFF 		bl	OE_Read
 596              	.LVL82:
 597 0010 8146     		mov	r9, r0
 598              	.LVL83:
 170:.\camera_display.c ****     
 171:.\camera_display.c ****     Camera_Threshold_Control=display_mode==THRESHOLDED; //control reg chooses whether image data or
 599              		.loc 1 171 0
 600 0012 574A     		ldr	r2, .L74
 601 0014 1378     		ldrb	r3, [r2]	@ zero_extendqisi2
 602 0016 022B     		cmp	r3, #2
 603 0018 14BF     		ite	ne
 604 001a 0023     		movne	r3, #0
 605 001c 0123     		moveq	r3, #1
 606 001e 5549     		ldr	r1, .L74+4
 607 0020 0B70     		strb	r3, [r1]
 172:.\camera_display.c ****     
 173:.\camera_display.c ****     if(display_mode==HISTOGRAM)
 608              		.loc 1 173 0
 609 0022 1378     		ldrb	r3, [r2]	@ zero_extendqisi2
 610 0024 012B     		cmp	r3, #1
 611 0026 0CD1     		bne	.L56
 174:.\camera_display.c ****     {
 175:.\camera_display.c ****         memset(hist,0,sizeof hist); //clear histogram before capturing
 612              		.loc 1 175 0
 613 0028 5348     		ldr	r0, .L74+8
 614 002a 0021     		movs	r1, #0
 615 002c 4FF40062 		mov	r2, #2048
ARM GAS  C:\Users\Daniel\AppData\Local\Temp\ccWzh9Ld.s 			page 15


 616 0030 FFF7FEFF 		bl	memset
 617              	.LVL84:
 176:.\camera_display.c ****         LCD_SetWindowWrite(0,0,223,223); //histogram uses a 224x224 window (32x32 histogram; each b
 618              		.loc 1 176 0
 619 0034 0020     		movs	r0, #0
 620 0036 0146     		mov	r1, r0
 621 0038 DF22     		movs	r2, #223
 622 003a 1346     		mov	r3, r2
 623 003c FFF7FEFF 		bl	LCD_SetWindowWrite
 624              	.LVL85:
 625 0040 06E0     		b	.L58
 626              	.L56:
 177:.\camera_display.c ****     }
 178:.\camera_display.c ****     else LCD_SetWindowWrite(0,0,319,239); //set window to full frame 320x240
 627              		.loc 1 178 0
 628 0042 0020     		movs	r0, #0
 629 0044 0146     		mov	r1, r0
 630 0046 40F23F12 		movw	r2, #319
 631 004a EF23     		movs	r3, #239
 632 004c FFF7FEFF 		bl	LCD_SetWindowWrite
 633              	.LVL86:
 634              	.L58:
 179:.\camera_display.c ****     
 180:.\camera_display.c ****     while(!LCD_Empty); //wait until command has finished before disabling bus output
 635              		.loc 1 180 0 discriminator 1
 636 0050 4A4B     		ldr	r3, .L74+12
 637 0052 1B78     		ldrb	r3, [r3]	@ zero_extendqisi2
 638 0054 13F0020F 		tst	r3, #2
 639 0058 FAD0     		beq	.L58
 181:.\camera_display.c ****     OE_Control=0;
 640              		.loc 1 181 0
 641 005a 0022     		movs	r2, #0
 642 005c 484B     		ldr	r3, .L74+16
 643 005e 1A70     		strb	r2, [r3]
 644              	.L59:
 182:.\camera_display.c ****     
 183:.\camera_display.c ****     while(!Camera_VSYNC_Read());
 645              		.loc 1 183 0 discriminator 1
 646 0060 FFF7FEFF 		bl	Camera_VSYNC_Read
 647              	.LVL87:
 648 0064 0028     		cmp	r0, #0
 649 0066 FBD0     		beq	.L59
 184:.\camera_display.c ****     //Camera_SyncFrame(); //wait until start of next frame before capturing
 185:.\camera_display.c ****     
 186:.\camera_display.c ****     CS_Write(0); //selecting camera will automatically enable its interrupts
 650              		.loc 1 186 0
 651 0068 0020     		movs	r0, #0
 652 006a FFF7FEFF 		bl	CS_Write
 653              	.LVL88:
 187:.\camera_display.c ****     Camera_SyncFrame(); //block until frame is fully captured
 654              		.loc 1 187 0
 655 006e FFF7FEFF 		bl	Camera_SyncFrame
 656              	.LVL89:
 188:.\camera_display.c ****     CS_Write(3); //select LCD
 657              		.loc 1 188 0
 658 0072 0320     		movs	r0, #3
 659 0074 FFF7FEFF 		bl	CS_Write
ARM GAS  C:\Users\Daniel\AppData\Local\Temp\ccWzh9Ld.s 			page 16


 660              	.LVL90:
 189:.\camera_display.c ****     
 190:.\camera_display.c ****     if(display_mode==HISTOGRAM) //display histogram on the LCD
 661              		.loc 1 190 0
 662 0078 3D4B     		ldr	r3, .L74
 663 007a 1B78     		ldrb	r3, [r3]	@ zero_extendqisi2
 664 007c 012B     		cmp	r3, #1
 665 007e 6BD1     		bne	.L60
 666              	.LBB7:
 191:.\camera_display.c ****     {
 192:.\camera_display.c ****         OE_Control=1;
 667              		.loc 1 192 0
 668 0080 0122     		movs	r2, #1
 669 0082 3F4B     		ldr	r3, .L74+16
 670 0084 1A70     		strb	r2, [r3]
 671              	.LVL91:
 193:.\camera_display.c ****         int U,V,a,b;
 194:.\camera_display.c ****         for(V=0;V<32;V++) for(a=0;a<7;a++) for(U=0;U<32;U++) for(b=0;b<7;b++)
 672              		.loc 1 194 0
 673 0086 0024     		movs	r4, #0
 674 0088 64E0     		b	.L61
 675              	.LVL92:
 676              	.L66:
 677              	.LBB8:
 195:.\camera_display.c ****         {
 196:.\camera_display.c ****             pixel p;
 197:.\camera_display.c ****             int h=hist[U][V];
 678              		.loc 1 197 0
 679 008a 04EB4512 		add	r2, r4, r5, lsl #5
 680 008e 3D4B     		ldr	r3, .L74+20
 681 0090 03EB4203 		add	r3, r3, r2, lsl #1
 682 0094 B3F8C433 		ldrh	r3, [r3, #964]
 683              	.LVL93:
 198:.\camera_display.c ****             //h*=2; //optional scaling
 199:.\camera_display.c ****             h=h>0xff?0xff:h; //saturate to 255
 684              		.loc 1 199 0
 685 0098 FF2B     		cmp	r3, #255
 686 009a A8BF     		it	ge
 687 009c FF23     		movge	r3, #255
 688              	.LVL94:
 200:.\camera_display.c ****             p.R=p.G=p.B=h;
 689              		.loc 1 200 0
 690 009e DBB2     		uxtb	r3, r3
 691              	.LVL95:
 692 00a0 8DF80630 		strb	r3, [sp, #6]
 693 00a4 8DF80530 		strb	r3, [sp, #5]
 694 00a8 8DF80430 		strb	r3, [sp, #4]
 695              	.LVL96:
 201:.\camera_display.c ****             
 202:.\camera_display.c ****             //colour in regions that would be thresholded
 203:.\camera_display.c ****             U<<=3;
 204:.\camera_display.c ****             V<<=3;
 696              		.loc 1 204 0
 697 00ac E400     		lsls	r4, r4, #3
 698              	.LVL97:
 205:.\camera_display.c ****             if(U<Camera_R_U&&V>=Camera_R_V) p.G=p.B=0;
 699              		.loc 1 205 0
ARM GAS  C:\Users\Daniel\AppData\Local\Temp\ccWzh9Ld.s 			page 17


 700 00ae 364B     		ldr	r3, .L74+24
 701 00b0 1A78     		ldrb	r2, [r3]	@ zero_extendqisi2
 702              	.LVL98:
 703 00b2 EB00     		lsls	r3, r5, #3
 704              	.LVL99:
 705 00b4 B2EBC50F 		cmp	r2, r5, lsl #3
 706 00b8 0ADD     		ble	.L62
 707              		.loc 1 205 0 is_stmt 0 discriminator 1
 708 00ba 344A     		ldr	r2, .L74+28
 709 00bc 1278     		ldrb	r2, [r2]	@ zero_extendqisi2
 710 00be D2B2     		uxtb	r2, r2
 711 00c0 A242     		cmp	r2, r4
 712 00c2 05DC     		bgt	.L62
 713              		.loc 1 205 0 discriminator 2
 714 00c4 0022     		movs	r2, #0
 715 00c6 8DF80620 		strb	r2, [sp, #6]
 716 00ca 8DF80520 		strb	r2, [sp, #5]
 717 00ce 2CE0     		b	.L63
 718              	.L62:
 206:.\camera_display.c ****             else if(U<Camera_G_U&&V<Camera_G_V) p.R=p.B=0;
 719              		.loc 1 206 0 is_stmt 1
 720 00d0 2F4A     		ldr	r2, .L74+32
 721 00d2 1278     		ldrb	r2, [r2]	@ zero_extendqisi2
 722 00d4 D2B2     		uxtb	r2, r2
 723 00d6 9A42     		cmp	r2, r3
 724 00d8 0ADD     		ble	.L64
 725              		.loc 1 206 0 is_stmt 0 discriminator 1
 726 00da 2E4A     		ldr	r2, .L74+36
 727 00dc 1278     		ldrb	r2, [r2]	@ zero_extendqisi2
 728 00de D2B2     		uxtb	r2, r2
 729 00e0 A242     		cmp	r2, r4
 730 00e2 05DD     		ble	.L64
 731              		.loc 1 206 0 discriminator 2
 732 00e4 0022     		movs	r2, #0
 733 00e6 8DF80620 		strb	r2, [sp, #6]
 734 00ea 8DF80420 		strb	r2, [sp, #4]
 735 00ee 1CE0     		b	.L63
 736              	.L64:
 207:.\camera_display.c ****             else if(U>=Camera_B_U&&V<Camera_B_V) p.R=p.G=0;
 737              		.loc 1 207 0 is_stmt 1
 738 00f0 294A     		ldr	r2, .L74+40
 739 00f2 1278     		ldrb	r2, [r2]	@ zero_extendqisi2
 740 00f4 D2B2     		uxtb	r2, r2
 741 00f6 9A42     		cmp	r2, r3
 742 00f8 0ADC     		bgt	.L65
 743              		.loc 1 207 0 is_stmt 0 discriminator 1
 744 00fa 284A     		ldr	r2, .L74+44
 745 00fc 1278     		ldrb	r2, [r2]	@ zero_extendqisi2
 746 00fe D2B2     		uxtb	r2, r2
 747 0100 A242     		cmp	r2, r4
 748 0102 05DD     		ble	.L65
 749              		.loc 1 207 0 discriminator 2
 750 0104 0022     		movs	r2, #0
 751 0106 8DF80520 		strb	r2, [sp, #5]
 752 010a 8DF80420 		strb	r2, [sp, #4]
 753 010e 0CE0     		b	.L63
 754              	.L65:
ARM GAS  C:\Users\Daniel\AppData\Local\Temp\ccWzh9Ld.s 			page 18


 208:.\camera_display.c ****             else if(U>=Camera_M_U&&V>=Camera_M_V) p.G=0;
 755              		.loc 1 208 0 is_stmt 1
 756 0110 234A     		ldr	r2, .L74+48
 757 0112 1278     		ldrb	r2, [r2]	@ zero_extendqisi2
 758 0114 D2B2     		uxtb	r2, r2
 759 0116 9A42     		cmp	r2, r3
 760 0118 07DC     		bgt	.L63
 761              		.loc 1 208 0 is_stmt 0 discriminator 1
 762 011a 224A     		ldr	r2, .L74+52
 763 011c 1278     		ldrb	r2, [r2]	@ zero_extendqisi2
 764 011e D2B2     		uxtb	r2, r2
 765 0120 A242     		cmp	r2, r4
 766 0122 02DC     		bgt	.L63
 767              		.loc 1 208 0 discriminator 2
 768 0124 0022     		movs	r2, #0
 769 0126 8DF80520 		strb	r2, [sp, #5]
 770              	.L63:
 209:.\camera_display.c ****             U>>=3;
 771              		.loc 1 209 0 is_stmt 1 discriminator 5
 772 012a DD10     		asrs	r5, r3, #3
 773              	.LVL100:
 210:.\camera_display.c ****             V>>=3;
 774              		.loc 1 210 0 discriminator 5
 775 012c E410     		asrs	r4, r4, #3
 776              	.LVL101:
 211:.\camera_display.c ****             
 212:.\camera_display.c ****             LCD_WritePixel(p);
 777              		.loc 1 212 0 discriminator 5
 778 012e 0198     		ldr	r0, [sp, #4]
 779 0130 FFF7FEFF 		bl	LCD_WritePixel
 780              	.LVL102:
 781              	.LBE8:
 194:.\camera_display.c ****         {
 782              		.loc 1 194 0 discriminator 5
 783 0134 0136     		adds	r6, r6, #1
 784              	.LVL103:
 785 0136 00E0     		b	.L67
 786              	.LVL104:
 787              	.L70:
 788 0138 0026     		movs	r6, #0
 789              	.L67:
 790              	.LVL105:
 194:.\camera_display.c ****         {
 791              		.loc 1 194 0 is_stmt 0 discriminator 4
 792 013a 062E     		cmp	r6, #6
 793 013c A5DD     		ble	.L66
 194:.\camera_display.c ****         {
 794              		.loc 1 194 0 discriminator 6
 795 013e 0135     		adds	r5, r5, #1
 796              	.LVL106:
 797 0140 00E0     		b	.L68
 798              	.LVL107:
 799              	.L71:
 800 0142 0025     		movs	r5, #0
 801              	.L68:
 802              	.LVL108:
 194:.\camera_display.c ****         {
ARM GAS  C:\Users\Daniel\AppData\Local\Temp\ccWzh9Ld.s 			page 19


 803              		.loc 1 194 0 discriminator 7
 804 0144 1F2D     		cmp	r5, #31
 805 0146 F7DD     		ble	.L70
 194:.\camera_display.c ****         {
 806              		.loc 1 194 0 discriminator 9
 807 0148 0137     		adds	r7, r7, #1
 808              	.LVL109:
 809 014a 00E0     		b	.L69
 810              	.LVL110:
 811              	.L72:
 812 014c 0027     		movs	r7, #0
 813              	.L69:
 814              	.LVL111:
 194:.\camera_display.c ****         {
 815              		.loc 1 194 0 discriminator 10
 816 014e 062F     		cmp	r7, #6
 817 0150 F7DD     		ble	.L71
 194:.\camera_display.c ****         {
 818              		.loc 1 194 0 discriminator 12
 819 0152 0134     		adds	r4, r4, #1
 820              	.LVL112:
 821              	.L61:
 194:.\camera_display.c ****         {
 822              		.loc 1 194 0 discriminator 13
 823 0154 1F2C     		cmp	r4, #31
 824 0156 F9DD     		ble	.L72
 825              	.LVL113:
 826              	.L60:
 827              	.LBE7:
 213:.\camera_display.c ****         }
 214:.\camera_display.c ****     }
 215:.\camera_display.c ****     
 216:.\camera_display.c ****     LCD_StopReadWrite();
 828              		.loc 1 216 0 is_stmt 1
 829 0158 FFF7FEFF 		bl	LCD_StopReadWrite
 830              	.LVL114:
 217:.\camera_display.c ****     
 218:.\camera_display.c ****     OE_Control=oe; //restore original output enable
 831              		.loc 1 218 0
 832 015c 084B     		ldr	r3, .L74+16
 833 015e 83F80090 		strb	r9, [r3]
 219:.\camera_display.c ****     CS_Write(cs); //restore original chip select
 834              		.loc 1 219 0
 835 0162 4046     		mov	r0, r8
 836 0164 FFF7FEFF 		bl	CS_Write
 837              	.LVL115:
 220:.\camera_display.c **** }
 838              		.loc 1 220 0
 839 0168 03B0     		add	sp, sp, #12
 840              		.cfi_def_cfa_offset 28
 841              		@ sp needed
 842 016a BDE8F083 		pop	{r4, r5, r6, r7, r8, r9, pc}
 843              	.LVL116:
 844              	.L75:
 845 016e 00BF     		.align	2
 846              	.L74:
 847 0170 00000000 		.word	display_mode
ARM GAS  C:\Users\Daniel\AppData\Local\Temp\ccWzh9Ld.s 			page 20


 848 0174 77650040 		.word	1073767799
 849 0178 C4030000 		.word	.LANCHOR0+964
 850 017c 67640040 		.word	1073767527
 851 0180 7D640040 		.word	1073767549
 852 0184 00000000 		.word	.LANCHOR0
 853 0188 27650040 		.word	1073767719
 854 018c 37650040 		.word	1073767735
 855 0190 23640040 		.word	1073767459
 856 0194 33640040 		.word	1073767475
 857 0198 2B650040 		.word	1073767723
 858 019c 3B650040 		.word	1073767739
 859 01a0 2A650040 		.word	1073767722
 860 01a4 3A650040 		.word	1073767738
 861              		.cfi_endproc
 862              	.LFE68:
 863              		.size	CaptureFrame, .-CaptureFrame
 864              		.section	.text.Camera_SetBlankTime,"ax",%progbits
 865              		.align	2
 866              		.global	Camera_SetBlankTime
 867              		.thumb
 868              		.thumb_func
 869              		.type	Camera_SetBlankTime, %function
 870              	Camera_SetBlankTime:
 871              	.LFB69:
 221:.\camera_display.c **** 
 222:.\camera_display.c **** void Camera_SetBlankTime(uint16 time)
 223:.\camera_display.c **** {
 872              		.loc 1 223 0
 873              		.cfi_startproc
 874              		@ args = 0, pretend = 0, frame = 0
 875              		@ frame_needed = 0, uses_anonymous_args = 0
 876              	.LVL117:
 877 0000 10B5     		push	{r4, lr}
 878              		.cfi_def_cfa_offset 8
 879              		.cfi_offset 4, -8
 880              		.cfi_offset 14, -4
 224:.\camera_display.c ****     time&=0x7ff; //limit to 11 bits
 881              		.loc 1 224 0
 882 0002 C0F30A04 		ubfx	r4, r0, #0, #11
 883              	.LVL118:
 225:.\camera_display.c ****     Camera_WriteReg(0x2a,time>>8<<4);
 884              		.loc 1 225 0
 885 0006 210A     		lsrs	r1, r4, #8
 886 0008 2A20     		movs	r0, #42
 887 000a 0901     		lsls	r1, r1, #4
 888 000c FFF7FEFF 		bl	Camera_WriteReg
 889              	.LVL119:
 226:.\camera_display.c ****     Camera_WriteReg(0x2b,time);
 890              		.loc 1 226 0
 891 0010 2B20     		movs	r0, #43
 892 0012 E1B2     		uxtb	r1, r4
 893 0014 FFF7FEFF 		bl	Camera_WriteReg
 894              	.LVL120:
 895 0018 10BD     		pop	{r4, pc}
 896              		.cfi_endproc
 897              	.LFE69:
 898              		.size	Camera_SetBlankTime, .-Camera_SetBlankTime
ARM GAS  C:\Users\Daniel\AppData\Local\Temp\ccWzh9Ld.s 			page 21


 899 001a 00BF     		.section	.text.Camera_SetThresholds,"ax",%progbits
 900              		.align	2
 901              		.global	Camera_SetThresholds
 902              		.thumb
 903              		.thumb_func
 904              		.type	Camera_SetThresholds, %function
 905              	Camera_SetThresholds:
 906              	.LFB70:
 227:.\camera_display.c **** }
 228:.\camera_display.c **** 
 229:.\camera_display.c **** void Camera_SetThresholds(int8 redU,int8 redV,int8 greenU,int8 greenV,int8 blueU,int8 blueV,int8 ma
 230:.\camera_display.c **** {
 907              		.loc 1 230 0
 908              		.cfi_startproc
 909              		@ args = 16, pretend = 0, frame = 0
 910              		@ frame_needed = 0, uses_anonymous_args = 0
 911              		@ link register save eliminated.
 912              	.LVL121:
 913 0000 10B4     		push	{r4}
 914              		.cfi_def_cfa_offset 4
 915              		.cfi_offset 4, -4
 231:.\camera_display.c ****     //Inputs are signed, but camera gives unsigned U and V (offset by 128)
 232:.\camera_display.c ****     Camera_R_SetThresholds(redU+128,redV+128);
 916              		.loc 1 232 0
 917 0002 8038     		subs	r0, r0, #128
 918              	.LVL122:
 919 0004 C0B2     		uxtb	r0, r0
 920 0006 144C     		ldr	r4, .L80
 921 0008 2070     		strb	r0, [r4]
 922              	.LVL123:
 923 000a 8039     		subs	r1, r1, #128
 924              	.LVL124:
 925 000c C9B2     		uxtb	r1, r1
 926 000e 1348     		ldr	r0, .L80+4
 927 0010 0170     		strb	r1, [r0]
 233:.\camera_display.c ****     Camera_G_SetThresholds(greenU+128,greenV+128);
 928              		.loc 1 233 0
 929 0012 803A     		subs	r2, r2, #128
 930              	.LVL125:
 931 0014 D2B2     		uxtb	r2, r2
 932 0016 1249     		ldr	r1, .L80+8
 933 0018 0A70     		strb	r2, [r1]
 934 001a 803B     		subs	r3, r3, #128
 935              	.LVL126:
 936 001c DBB2     		uxtb	r3, r3
 937 001e 114A     		ldr	r2, .L80+12
 938 0020 1370     		strb	r3, [r2]
 234:.\camera_display.c ****     Camera_B_SetThresholds(blueU+128,blueV+128);
 939              		.loc 1 234 0
 940 0022 9DF90430 		ldrsb	r3, [sp, #4]
 941 0026 803B     		subs	r3, r3, #128
 942 0028 DBB2     		uxtb	r3, r3
 943 002a F832     		adds	r2, r2, #248
 944 002c 1370     		strb	r3, [r2]
 945 002e 9DF90830 		ldrsb	r3, [sp, #8]
 946 0032 803B     		subs	r3, r3, #128
 947 0034 DBB2     		uxtb	r3, r3
ARM GAS  C:\Users\Daniel\AppData\Local\Temp\ccWzh9Ld.s 			page 22


 948 0036 1032     		adds	r2, r2, #16
 949 0038 1370     		strb	r3, [r2]
 235:.\camera_display.c ****     Camera_M_SetThresholds(magentaU+128,magentaV+128);
 950              		.loc 1 235 0
 951 003a 9DF90C30 		ldrsb	r3, [sp, #12]
 952 003e 803B     		subs	r3, r3, #128
 953 0040 DBB2     		uxtb	r3, r3
 954 0042 113A     		subs	r2, r2, #17
 955 0044 1370     		strb	r3, [r2]
 956 0046 9DF91030 		ldrsb	r3, [sp, #16]
 957 004a 803B     		subs	r3, r3, #128
 958 004c DBB2     		uxtb	r3, r3
 959 004e 1032     		adds	r2, r2, #16
 960 0050 1370     		strb	r3, [r2]
 236:.\camera_display.c **** }
 961              		.loc 1 236 0
 962 0052 5DF8044B 		ldr	r4, [sp], #4
 963              		.cfi_restore 4
 964              		.cfi_def_cfa_offset 0
 965 0056 7047     		bx	lr
 966              	.L81:
 967              		.align	2
 968              	.L80:
 969 0058 27650040 		.word	1073767719
 970 005c 37650040 		.word	1073767735
 971 0060 23640040 		.word	1073767459
 972 0064 33640040 		.word	1073767475
 973              		.cfi_endproc
 974              	.LFE70:
 975              		.size	Camera_SetThresholds, .-Camera_SetThresholds
 976              		.section	.text.Camera_AutoEGWB,"ax",%progbits
 977              		.align	2
 978              		.global	Camera_AutoEGWB
 979              		.thumb
 980              		.thumb_func
 981              		.type	Camera_AutoEGWB, %function
 982              	Camera_AutoEGWB:
 983              	.LFB71:
 237:.\camera_display.c **** 
 238:.\camera_display.c **** void Camera_AutoEGWB()
 239:.\camera_display.c **** {
 984              		.loc 1 239 0
 985              		.cfi_startproc
 986              		@ args = 0, pretend = 0, frame = 0
 987              		@ frame_needed = 0, uses_anonymous_args = 0
 988 0000 08B5     		push	{r3, lr}
 989              		.cfi_def_cfa_offset 8
 990              		.cfi_offset 3, -8
 991              		.cfi_offset 14, -4
 240:.\camera_display.c ****     Camera_WriteReg(0x13,0xe7);
 992              		.loc 1 240 0
 993 0002 1320     		movs	r0, #19
 994 0004 E721     		movs	r1, #231
 995 0006 FFF7FEFF 		bl	Camera_WriteReg
 996              	.LVL127:
 997 000a 08BD     		pop	{r3, pc}
 998              		.cfi_endproc
ARM GAS  C:\Users\Daniel\AppData\Local\Temp\ccWzh9Ld.s 			page 23


 999              	.LFE71:
 1000              		.size	Camera_AutoEGWB, .-Camera_AutoEGWB
 1001              		.section	.text.Camera_SetEGWB,"ax",%progbits
 1002              		.align	2
 1003              		.global	Camera_SetEGWB
 1004              		.thumb
 1005              		.thumb_func
 1006              		.type	Camera_SetEGWB, %function
 1007              	Camera_SetEGWB:
 1008              	.LFB72:
 241:.\camera_display.c **** }
 242:.\camera_display.c **** 
 243:.\camera_display.c **** void Camera_SetEGWB(uint16 exposure,uint8 gain,uint8 red_gain,uint8 blue_gain)
 244:.\camera_display.c **** {
 1009              		.loc 1 244 0
 1010              		.cfi_startproc
 1011              		@ args = 0, pretend = 0, frame = 0
 1012              		@ frame_needed = 0, uses_anonymous_args = 0
 1013              	.LVL128:
 1014 0000 F8B5     		push	{r3, r4, r5, r6, r7, lr}
 1015              		.cfi_def_cfa_offset 24
 1016              		.cfi_offset 3, -24
 1017              		.cfi_offset 4, -20
 1018              		.cfi_offset 5, -16
 1019              		.cfi_offset 6, -12
 1020              		.cfi_offset 7, -8
 1021              		.cfi_offset 14, -4
 1022 0002 0446     		mov	r4, r0
 1023 0004 0F46     		mov	r7, r1
 1024 0006 1546     		mov	r5, r2
 1025 0008 1E46     		mov	r6, r3
 245:.\camera_display.c ****     Camera_WriteReg(0x13,0xe0);
 1026              		.loc 1 245 0
 1027 000a 1320     		movs	r0, #19
 1028              	.LVL129:
 1029 000c E021     		movs	r1, #224
 1030              	.LVL130:
 1031 000e FFF7FEFF 		bl	Camera_WriteReg
 1032              	.LVL131:
 246:.\camera_display.c ****     
 247:.\camera_display.c ****     Camera_WriteReg(0,gain);
 1033              		.loc 1 247 0
 1034 0012 0020     		movs	r0, #0
 1035 0014 3946     		mov	r1, r7
 1036 0016 FFF7FEFF 		bl	Camera_WriteReg
 1037              	.LVL132:
 248:.\camera_display.c ****     Camera_WriteReg(1,blue_gain);
 1038              		.loc 1 248 0
 1039 001a 0120     		movs	r0, #1
 1040 001c 3146     		mov	r1, r6
 1041 001e FFF7FEFF 		bl	Camera_WriteReg
 1042              	.LVL133:
 249:.\camera_display.c ****     Camera_WriteReg(2,red_gain);
 1043              		.loc 1 249 0
 1044 0022 0220     		movs	r0, #2
 1045 0024 2946     		mov	r1, r5
 1046 0026 FFF7FEFF 		bl	Camera_WriteReg
ARM GAS  C:\Users\Daniel\AppData\Local\Temp\ccWzh9Ld.s 			page 24


 1047              	.LVL134:
 250:.\camera_display.c ****     Camera_WriteReg(4,exposure&3);
 1048              		.loc 1 250 0
 1049 002a 0420     		movs	r0, #4
 1050 002c 04F00301 		and	r1, r4, #3
 1051 0030 FFF7FEFF 		bl	Camera_WriteReg
 1052              	.LVL135:
 251:.\camera_display.c ****     Camera_WriteReg(0x10,exposure>>2);
 1053              		.loc 1 251 0
 1054 0034 1020     		movs	r0, #16
 1055 0036 C4F38701 		ubfx	r1, r4, #2, #8
 1056 003a FFF7FEFF 		bl	Camera_WriteReg
 1057              	.LVL136:
 252:.\camera_display.c ****     Camera_WriteReg(0xa1,0x40|exposure>>10);
 1058              		.loc 1 252 0
 1059 003e A10A     		lsrs	r1, r4, #10
 1060 0040 A120     		movs	r0, #161
 1061 0042 41F04001 		orr	r1, r1, #64
 1062 0046 FFF7FEFF 		bl	Camera_WriteReg
 1063              	.LVL137:
 1064 004a F8BD     		pop	{r3, r4, r5, r6, r7, pc}
 1065              		.cfi_endproc
 1066              	.LFE72:
 1067              		.size	Camera_SetEGWB, .-Camera_SetEGWB
 1068              		.comm	display_mode,1,1
 1069              		.comm	Camera_linebuffer,640,4
 1070              		.bss
 1071              		.align	2
 1072              		.set	.LANCHOR0,. + 0
 1073              		.type	LCD_linebuffer, %object
 1074              		.size	LCD_linebuffer, 960
 1075              	LCD_linebuffer:
 1076 0000 00000000 		.space	960
 1076      00000000 
 1076      00000000 
 1076      00000000 
 1076      00000000 
 1077              		.type	LCD_DMA_ch, %object
 1078              		.size	LCD_DMA_ch, 1
 1079              	LCD_DMA_ch:
 1080 03c0 00       		.space	1
 1081              		.type	LCD_DMA_TD, %object
 1082              		.size	LCD_DMA_TD, 1
 1083              	LCD_DMA_TD:
 1084 03c1 00       		.space	1
 1085 03c2 0000     		.space	2
 1086              		.type	hist, %object
 1087              		.size	hist, 2048
 1088              	hist:
 1089 03c4 00000000 		.space	2048
 1089      00000000 
 1089      00000000 
 1089      00000000 
 1089      00000000 
 1090              		.type	y.6728, %object
 1091              		.size	y.6728, 4
 1092              	y.6728:
ARM GAS  C:\Users\Daniel\AppData\Local\Temp\ccWzh9Ld.s 			page 25


 1093 0bc4 00000000 		.space	4
 1094              		.text
 1095              	.Letext0:
 1096              		.file 2 "c:\\program files (x86)\\cypress\\psoc creator\\3.3\\psoc creator\\import\\gnu\\arm\\4.9.
 1097              		.file 3 "c:\\program files (x86)\\cypress\\psoc creator\\3.3\\psoc creator\\import\\gnu\\arm\\4.9.
 1098              		.file 4 "Generated_Source\\PSoC5/cytypes.h"
 1099              		.file 5 "Generated_Source\\PSoC5/LCD.h"
 1100              		.file 6 "Generated_Source\\PSoC5/core_cm3.h"
 1101              		.file 7 "Generated_Source\\PSoC5/Camera.h"
 1102              		.file 8 ".\\camera_display.h"
 1103              		.file 9 "Generated_Source\\PSoC5/CYDMAC.H"
 1104              		.file 10 "Generated_Source\\PSoC5/LCD_DMA_dma.h"
 1105              		.file 11 "Generated_Source\\PSoC5/CS.h"
 1106              		.file 12 "Generated_Source\\PSoC5/OE.h"
 1107              		.file 13 "Generated_Source\\PSoC5/Camera_VSYNC.h"