ARM GAS  C:\Users\Tim\AppData\Local\Temp\ccEfwZD8.s 			page 1


   1              		.syntax unified
   2              		.cpu cortex-m3
   3              		.fpu softvfp
   4              		.eabi_attribute 20, 1
   5              		.eabi_attribute 21, 1
   6              		.eabi_attribute 23, 3
   7              		.eabi_attribute 24, 1
   8              		.eabi_attribute 25, 1
   9              		.eabi_attribute 26, 1
  10              		.eabi_attribute 30, 1
  11              		.eabi_attribute 34, 1
  12              		.eabi_attribute 18, 4
  13              		.thumb
  14              		.file	"Camera.c"
  15              		.text
  16              	.Ltext0:
  17              		.cfi_sections	.debug_frame
  18              		.section	.text.Camera_WriteReg,"ax",%progbits
  19              		.align	2
  20              		.global	Camera_WriteReg
  21              		.thumb
  22              		.thumb_func
  23              		.type	Camera_WriteReg, %function
  24              	Camera_WriteReg:
  25              	.LFB63:
  26              		.file 1 ".\\Generated_Source\\PSoC5\\Camera.c"
   1:.\Generated_Source\PSoC5/Camera.c **** #include "Camera.h"
   2:.\Generated_Source\PSoC5/Camera.c **** 
   3:.\Generated_Source\PSoC5/Camera.c **** extern const uint8 Camera_settings[][2];
   4:.\Generated_Source\PSoC5/Camera.c **** extern const uint8 Camera_format[];
   5:.\Generated_Source\PSoC5/Camera.c **** extern const uint8 Camera_sxga[];
   6:.\Generated_Source\PSoC5/Camera.c **** extern const uint8 Camera_vga[];
   7:.\Generated_Source\PSoC5/Camera.c **** extern const uint8 Camera_qvga[];
   8:.\Generated_Source\PSoC5/Camera.c **** extern const uint8 Camera_cif[];
   9:.\Generated_Source\PSoC5/Camera.c **** extern const uint8 Camera_qcif[];
  10:.\Generated_Source\PSoC5/Camera.c **** 
  11:.\Generated_Source\PSoC5/Camera.c **** static uint8 DMA_channel,DMA_TD;
  12:.\Generated_Source\PSoC5/Camera.c **** 
  13:.\Generated_Source\PSoC5/Camera.c **** void Camera_WriteReg(const uint8 reg,const uint8 value)
  14:.\Generated_Source\PSoC5/Camera.c **** {
  27              		.loc 1 14 0
  28              		.cfi_startproc
  29              		@ args = 0, pretend = 0, frame = 0
  30              		@ frame_needed = 0, uses_anonymous_args = 0
  31              	.LVL0:
  32 0000 38B5     		push	{r3, r4, r5, lr}
  33              		.cfi_def_cfa_offset 16
  34              		.cfi_offset 3, -16
  35              		.cfi_offset 4, -12
  36              		.cfi_offset 5, -8
  37              		.cfi_offset 14, -4
  38 0002 0546     		mov	r5, r0
  39 0004 0C46     		mov	r4, r1
  40              	.LVL1:
  41              	.L2:
  15:.\Generated_Source\PSoC5/Camera.c **** 	while(Camera_I2C_MasterSendStart(0x30,0)!=Camera_I2C_MSTR_NO_ERROR);
  42              		.loc 1 15 0 discriminator 1
ARM GAS  C:\Users\Tim\AppData\Local\Temp\ccEfwZD8.s 			page 2


  43 0006 3020     		movs	r0, #48
  44 0008 0021     		movs	r1, #0
  45 000a FFF7FEFF 		bl	Camera_I2C_MasterSendStart
  46              	.LVL2:
  47 000e 0028     		cmp	r0, #0
  48 0010 F9D1     		bne	.L2
  16:.\Generated_Source\PSoC5/Camera.c ****     Camera_I2C_MasterWriteByte(reg);
  49              		.loc 1 16 0
  50 0012 2846     		mov	r0, r5
  51 0014 FFF7FEFF 		bl	Camera_I2C_MasterWriteByte
  52              	.LVL3:
  17:.\Generated_Source\PSoC5/Camera.c ****     Camera_I2C_MasterWriteByte(value);
  53              		.loc 1 17 0
  54 0018 2046     		mov	r0, r4
  55 001a FFF7FEFF 		bl	Camera_I2C_MasterWriteByte
  56              	.LVL4:
  18:.\Generated_Source\PSoC5/Camera.c ****     Camera_I2C_MasterSendStop();
  57              		.loc 1 18 0
  58 001e FFF7FEFF 		bl	Camera_I2C_MasterSendStop
  59              	.LVL5:
  60 0022 38BD     		pop	{r3, r4, r5, pc}
  61              		.cfi_endproc
  62              	.LFE63:
  63              		.size	Camera_WriteReg, .-Camera_WriteReg
  64              		.section	.text.Camera_ReadReg,"ax",%progbits
  65              		.align	2
  66              		.global	Camera_ReadReg
  67              		.thumb
  68              		.thumb_func
  69              		.type	Camera_ReadReg, %function
  70              	Camera_ReadReg:
  71              	.LFB64:
  19:.\Generated_Source\PSoC5/Camera.c **** }
  20:.\Generated_Source\PSoC5/Camera.c **** 
  21:.\Generated_Source\PSoC5/Camera.c **** uint8 Camera_ReadReg(const uint8 reg)
  22:.\Generated_Source\PSoC5/Camera.c **** {
  72              		.loc 1 22 0
  73              		.cfi_startproc
  74              		@ args = 0, pretend = 0, frame = 0
  75              		@ frame_needed = 0, uses_anonymous_args = 0
  76              	.LVL6:
  77 0000 10B5     		push	{r4, lr}
  78              		.cfi_def_cfa_offset 8
  79              		.cfi_offset 4, -8
  80              		.cfi_offset 14, -4
  81 0002 0446     		mov	r4, r0
  82              	.LVL7:
  83              	.L5:
  23:.\Generated_Source\PSoC5/Camera.c **** 	while(Camera_I2C_MasterSendStart(0x30,0)!=Camera_I2C_MSTR_NO_ERROR);
  84              		.loc 1 23 0 discriminator 1
  85 0004 3020     		movs	r0, #48
  86 0006 0021     		movs	r1, #0
  87 0008 FFF7FEFF 		bl	Camera_I2C_MasterSendStart
  88              	.LVL8:
  89 000c 0028     		cmp	r0, #0
  90 000e F9D1     		bne	.L5
  24:.\Generated_Source\PSoC5/Camera.c ****     Camera_I2C_MasterWriteByte(reg);
ARM GAS  C:\Users\Tim\AppData\Local\Temp\ccEfwZD8.s 			page 3


  91              		.loc 1 24 0
  92 0010 2046     		mov	r0, r4
  93 0012 FFF7FEFF 		bl	Camera_I2C_MasterWriteByte
  94              	.LVL9:
  25:.\Generated_Source\PSoC5/Camera.c ****     Camera_I2C_MasterSendStop();
  95              		.loc 1 25 0
  96 0016 FFF7FEFF 		bl	Camera_I2C_MasterSendStop
  97              	.LVL10:
  98              	.L6:
  26:.\Generated_Source\PSoC5/Camera.c **** 	
  27:.\Generated_Source\PSoC5/Camera.c **** 	while(Camera_I2C_MasterSendStart(0x30,1)!=Camera_I2C_MSTR_NO_ERROR);
  99              		.loc 1 27 0 discriminator 1
 100 001a 3020     		movs	r0, #48
 101 001c 0121     		movs	r1, #1
 102 001e FFF7FEFF 		bl	Camera_I2C_MasterSendStart
 103              	.LVL11:
 104 0022 0028     		cmp	r0, #0
 105 0024 F9D1     		bne	.L6
  28:.\Generated_Source\PSoC5/Camera.c ****     uint8 value=Camera_I2C_MasterReadByte(Camera_I2C_NAK_DATA);
 106              		.loc 1 28 0
 107 0026 FFF7FEFF 		bl	Camera_I2C_MasterReadByte
 108              	.LVL12:
 109 002a 0446     		mov	r4, r0
 110              	.LVL13:
  29:.\Generated_Source\PSoC5/Camera.c ****     Camera_I2C_MasterSendStop();
 111              		.loc 1 29 0
 112 002c FFF7FEFF 		bl	Camera_I2C_MasterSendStop
 113              	.LVL14:
  30:.\Generated_Source\PSoC5/Camera.c **** 	return value;
  31:.\Generated_Source\PSoC5/Camera.c **** }
 114              		.loc 1 31 0
 115 0030 2046     		mov	r0, r4
 116 0032 10BD     		pop	{r4, pc}
 117              		.cfi_endproc
 118              	.LFE64:
 119              		.size	Camera_ReadReg, .-Camera_ReadReg
 120              		.section	.text.Camera_SyncFrame,"ax",%progbits
 121              		.align	2
 122              		.global	Camera_SyncFrame
 123              		.thumb
 124              		.thumb_func
 125              		.type	Camera_SyncFrame, %function
 126              	Camera_SyncFrame:
 127              	.LFB65:
  32:.\Generated_Source\PSoC5/Camera.c **** 
  33:.\Generated_Source\PSoC5/Camera.c **** void Camera_SyncFrame()
  34:.\Generated_Source\PSoC5/Camera.c **** {
 128              		.loc 1 34 0
 129              		.cfi_startproc
 130              		@ args = 0, pretend = 0, frame = 0
 131              		@ frame_needed = 0, uses_anonymous_args = 0
 132 0000 08B5     		push	{r3, lr}
 133              		.cfi_def_cfa_offset 8
 134              		.cfi_offset 3, -8
 135              		.cfi_offset 14, -4
 136              	.L9:
  35:.\Generated_Source\PSoC5/Camera.c **** 	while(Camera_VSYNC_Read());
ARM GAS  C:\Users\Tim\AppData\Local\Temp\ccEfwZD8.s 			page 4


 137              		.loc 1 35 0 discriminator 1
 138 0002 FFF7FEFF 		bl	Camera_VSYNC_Read
 139              	.LVL15:
 140 0006 0028     		cmp	r0, #0
 141 0008 FBD1     		bne	.L9
 142              	.L10:
  36:.\Generated_Source\PSoC5/Camera.c **** 	while(!Camera_VSYNC_Read());
 143              		.loc 1 36 0 discriminator 1
 144 000a FFF7FEFF 		bl	Camera_VSYNC_Read
 145              	.LVL16:
 146 000e 0028     		cmp	r0, #0
 147 0010 FBD0     		beq	.L10
  37:.\Generated_Source\PSoC5/Camera.c **** }
 148              		.loc 1 37 0
 149 0012 08BD     		pop	{r3, pc}
 150              		.cfi_endproc
 151              	.LFE65:
 152              		.size	Camera_SyncFrame, .-Camera_SyncFrame
 153              		.section	.text.Camera_Start,"ax",%progbits
 154              		.align	2
 155              		.global	Camera_Start
 156              		.thumb
 157              		.thumb_func
 158              		.type	Camera_Start, %function
 159              	Camera_Start:
 160              	.LFB66:
  38:.\Generated_Source\PSoC5/Camera.c **** 
  39:.\Generated_Source\PSoC5/Camera.c **** void Camera_Start()
  40:.\Generated_Source\PSoC5/Camera.c **** {
 161              		.loc 1 40 0
 162              		.cfi_startproc
 163              		@ args = 0, pretend = 0, frame = 0
 164              		@ frame_needed = 0, uses_anonymous_args = 0
 165 0000 70B5     		push	{r4, r5, r6, lr}
 166              		.cfi_def_cfa_offset 16
 167              		.cfi_offset 4, -16
 168              		.cfi_offset 5, -12
 169              		.cfi_offset 6, -8
 170              		.cfi_offset 14, -4
  41:.\Generated_Source\PSoC5/Camera.c **** 	//Camera_SIOD_SetDriveMode(Camera_SIOD_DM_RES_UP); //turn on pull-up resistors on I2C pins
  42:.\Generated_Source\PSoC5/Camera.c **** 	//Camera_SIOC_SetDriveMode(Camera_SIOC_DM_RES_UP);
  43:.\Generated_Source\PSoC5/Camera.c **** 	Camera_I2C_Start();
 171              		.loc 1 43 0
 172 0002 FFF7FEFF 		bl	Camera_I2C_Start
 173              	.LVL17:
  44:.\Generated_Source\PSoC5/Camera.c **** 	
  45:.\Generated_Source\PSoC5/Camera.c **** 	Camera_WriteReg(0x12,0x80); //reset
 174              		.loc 1 45 0
 175 0006 1220     		movs	r0, #18
 176 0008 8021     		movs	r1, #128
 177 000a FFF7FEFF 		bl	Camera_WriteReg
 178              	.LVL18:
  46:.\Generated_Source\PSoC5/Camera.c **** 	CyDelay(1);
 179              		.loc 1 46 0
 180 000e 0120     		movs	r0, #1
 181 0010 FFF7FEFF 		bl	CyDelay
 182              	.LVL19:
ARM GAS  C:\Users\Tim\AppData\Local\Temp\ccEfwZD8.s 			page 5


  47:.\Generated_Source\PSoC5/Camera.c **** 	uint16 i;
  48:.\Generated_Source\PSoC5/Camera.c **** 	for(i=0;Camera_settings[i][0]!=0xff;i++) Camera_WriteReg(Camera_settings[i][0],Camera_settings[i][
 183              		.loc 1 48 0
 184 0014 0024     		movs	r4, #0
 185 0016 07E0     		b	.L13
 186              	.LVL20:
 187              	.L14:
 188              		.loc 1 48 0 is_stmt 0 discriminator 3
 189 0018 474B     		ldr	r3, .L18
 190 001a 03EB4403 		add	r3, r3, r4, lsl #1
 191 001e 5978     		ldrb	r1, [r3, #1]	@ zero_extendqisi2
 192 0020 FFF7FEFF 		bl	Camera_WriteReg
 193              	.LVL21:
 194 0024 0134     		adds	r4, r4, #1
 195              	.LVL22:
 196 0026 A4B2     		uxth	r4, r4
 197              	.LVL23:
 198              	.L13:
 199              		.loc 1 48 0 discriminator 1
 200 0028 434B     		ldr	r3, .L18
 201 002a 13F81400 		ldrb	r0, [r3, r4, lsl #1]	@ zero_extendqisi2
 202 002e FF28     		cmp	r0, #255
 203 0030 F2D1     		bne	.L14
 204 0032 0024     		movs	r4, #0
 205              	.LVL24:
 206 0034 05E0     		b	.L15
 207              	.LVL25:
 208              	.L16:
  49:.\Generated_Source\PSoC5/Camera.c **** 	for(i=0;Camera_format[i]!=0xff;i++) Camera_WriteReg(Camera_format[i],Camera_qvga[i]); //qvga forma
 209              		.loc 1 49 0 is_stmt 1 discriminator 3
 210 0036 414B     		ldr	r3, .L18+4
 211 0038 195D     		ldrb	r1, [r3, r4]	@ zero_extendqisi2
 212 003a FFF7FEFF 		bl	Camera_WriteReg
 213              	.LVL26:
 214 003e 0134     		adds	r4, r4, #1
 215              	.LVL27:
 216 0040 A4B2     		uxth	r4, r4
 217              	.LVL28:
 218              	.L15:
 219              		.loc 1 49 0 is_stmt 0 discriminator 1
 220 0042 3F4B     		ldr	r3, .L18+8
 221 0044 185D     		ldrb	r0, [r3, r4]	@ zero_extendqisi2
 222 0046 FF28     		cmp	r0, #255
 223 0048 F5D1     		bne	.L16
  50:.\Generated_Source\PSoC5/Camera.c **** 	
  51:.\Generated_Source\PSoC5/Camera.c **** 	DMA_channel=Camera_DMA_DmaInitialize(1,1,HI16(CYDEV_PERIPH_BASE),HI16(CYDEV_SRAM_BASE)); //periphe
 224              		.loc 1 51 0 is_stmt 1
 225 004a 0120     		movs	r0, #1
 226 004c 0146     		mov	r1, r0
 227 004e 4FF48042 		mov	r2, #16384
 228 0052 41F6FF73 		movw	r3, #8191
 229 0056 FFF7FEFF 		bl	Camera_DMA_DmaInitialize
 230              	.LVL29:
 231 005a 3A4C     		ldr	r4, .L18+12
 232              	.LVL30:
 233 005c 2070     		strb	r0, [r4]
  52:.\Generated_Source\PSoC5/Camera.c **** 	DMA_TD=CyDmaTdAllocate();
ARM GAS  C:\Users\Tim\AppData\Local\Temp\ccEfwZD8.s 			page 6


 234              		.loc 1 52 0
 235 005e FFF7FEFF 		bl	CyDmaTdAllocate
 236              	.LVL31:
 237 0062 6070     		strb	r0, [r4, #1]
  53:.\Generated_Source\PSoC5/Camera.c ****     CyDmaTdSetAddress(DMA_TD,LO16(Camera_FIFO_dp__F0_REG),LO16((uint32)Camera_linebuffer));
 238              		.loc 1 53 0
 239 0064 384D     		ldr	r5, .L18+16
 240 0066 ADB2     		uxth	r5, r5
 241 0068 46F24441 		movw	r1, #25668
 242 006c 2A46     		mov	r2, r5
 243 006e FFF7FEFF 		bl	CyDmaTdSetAddress
 244              	.LVL32:
  54:.\Generated_Source\PSoC5/Camera.c ****     CyDmaTdSetConfiguration(DMA_TD,sizeof(Camera_linebuffer),DMA_TD,TD_INC_DST_ADR|Camera_DMA__TD_T
 245              		.loc 1 54 0
 246 0072 6278     		ldrb	r2, [r4, #1]	@ zero_extendqisi2
 247 0074 1046     		mov	r0, r2
 248 0076 4FF42071 		mov	r1, #640
 249 007a 0623     		movs	r3, #6
 250 007c FFF7FEFF 		bl	CyDmaTdSetConfiguration
 251              	.LVL33:
  55:.\Generated_Source\PSoC5/Camera.c **** 	CyDmaChPriority(DMA_channel,0); //ensure highest priority for DMA channel
 252              		.loc 1 55 0
 253 0080 2078     		ldrb	r0, [r4]	@ zero_extendqisi2
 254 0082 0021     		movs	r1, #0
 255 0084 FFF7FEFF 		bl	CyDmaChPriority
 256              	.LVL34:
  56:.\Generated_Source\PSoC5/Camera.c **** 
  57:.\Generated_Source\PSoC5/Camera.c ****     Camera_end_line_StartEx(Camera_end_line);
 257              		.loc 1 57 0
 258 0088 304E     		ldr	r6, .L18+20
 259 008a 3046     		mov	r0, r6
 260 008c FFF7FEFF 		bl	Camera_end_line_StartEx
 261              	.LVL35:
  58:.\Generated_Source\PSoC5/Camera.c ****     
  59:.\Generated_Source\PSoC5/Camera.c **** 	*(reg8*)Camera_FIFO_dp__F0_REG;
 262              		.loc 1 59 0
 263 0090 2F4B     		ldr	r3, .L18+24
 264 0092 1A78     		ldrb	r2, [r3]	@ zero_extendqisi2
  60:.\Generated_Source\PSoC5/Camera.c **** 	*(reg8*)Camera_FIFO_dp__F0_REG;
 265              		.loc 1 60 0
 266 0094 1A78     		ldrb	r2, [r3]	@ zero_extendqisi2
  61:.\Generated_Source\PSoC5/Camera.c **** 	*(reg8*)Camera_FIFO_dp__F0_REG;
 267              		.loc 1 61 0
 268 0096 1A78     		ldrb	r2, [r3]	@ zero_extendqisi2
  62:.\Generated_Source\PSoC5/Camera.c **** 	*(reg8*)Camera_FIFO_dp__F0_REG; //clear fifo
 269              		.loc 1 62 0
 270 0098 1B78     		ldrb	r3, [r3]	@ zero_extendqisi2
  63:.\Generated_Source\PSoC5/Camera.c **** 	CyDmaClearPendingDrq(DMA_channel); //invalidate pending requests
 271              		.loc 1 63 0
 272 009a 2078     		ldrb	r0, [r4]	@ zero_extendqisi2
 273 009c FFF7FEFF 		bl	CyDmaClearPendingDrq
 274              	.LVL36:
  64:.\Generated_Source\PSoC5/Camera.c **** 	CyDmaChSetInitialTd(DMA_channel,DMA_TD); //set initial TD
 275              		.loc 1 64 0
 276 00a0 2078     		ldrb	r0, [r4]	@ zero_extendqisi2
 277 00a2 6178     		ldrb	r1, [r4, #1]	@ zero_extendqisi2
 278 00a4 FFF7FEFF 		bl	CyDmaChSetInitialTd
ARM GAS  C:\Users\Tim\AppData\Local\Temp\ccEfwZD8.s 			page 7


 279              	.LVL37:
  65:.\Generated_Source\PSoC5/Camera.c **** 	CyDmaChEnable(DMA_channel,1); //enable channel (start streaming)
 280              		.loc 1 65 0
 281 00a8 2078     		ldrb	r0, [r4]	@ zero_extendqisi2
 282 00aa 0121     		movs	r1, #1
 283 00ac FFF7FEFF 		bl	CyDmaChEnable
 284              	.LVL38:
  66:.\Generated_Source\PSoC5/Camera.c ****     
  67:.\Generated_Source\PSoC5/Camera.c ****     
  68:.\Generated_Source\PSoC5/Camera.c ****     
  69:.\Generated_Source\PSoC5/Camera.c ****     Camera_R_Start();
 285              		.loc 1 69 0
 286 00b0 284A     		ldr	r2, .L18+28
 287 00b2 1378     		ldrb	r3, [r2]	@ zero_extendqisi2
 288 00b4 43F00103 		orr	r3, r3, #1
 289 00b8 1370     		strb	r3, [r2]
  70:.\Generated_Source\PSoC5/Camera.c ****     Camera_G_Start();
 290              		.loc 1 70 0
 291 00ba 023A     		subs	r2, r2, #2
 292 00bc 1378     		ldrb	r3, [r2]	@ zero_extendqisi2
 293 00be 43F00103 		orr	r3, r3, #1
 294 00c2 1370     		strb	r3, [r2]
  71:.\Generated_Source\PSoC5/Camera.c ****     Camera_B_Start();
 295              		.loc 1 71 0
 296 00c4 023A     		subs	r2, r2, #2
 297 00c6 1378     		ldrb	r3, [r2]	@ zero_extendqisi2
 298 00c8 43F00103 		orr	r3, r3, #1
 299 00cc 1370     		strb	r3, [r2]
  72:.\Generated_Source\PSoC5/Camera.c ****     Camera_M_Start();
 300              		.loc 1 72 0
 301 00ce 013A     		subs	r2, r2, #1
 302 00d0 1378     		ldrb	r3, [r2]	@ zero_extendqisi2
 303 00d2 43F00103 		orr	r3, r3, #1
 304 00d6 1370     		strb	r3, [r2]
  73:.\Generated_Source\PSoC5/Camera.c ****     
  74:.\Generated_Source\PSoC5/Camera.c ****     DMA_channel=Camera_DMA_Colours_DmaInitialize(1,1,HI16(CYDEV_PERIPH_BASE),HI16(CYDEV_SRAM_BASE))
 305              		.loc 1 74 0
 306 00d8 0120     		movs	r0, #1
 307 00da 0146     		mov	r1, r0
 308 00dc 4FF48042 		mov	r2, #16384
 309 00e0 41F6FF73 		movw	r3, #8191
 310 00e4 FFF7FEFF 		bl	Camera_DMA_Colours_DmaInitialize
 311              	.LVL39:
 312 00e8 2070     		strb	r0, [r4]
  75:.\Generated_Source\PSoC5/Camera.c **** 	DMA_TD=CyDmaTdAllocate();
 313              		.loc 1 75 0
 314 00ea FFF7FEFF 		bl	CyDmaTdAllocate
 315              	.LVL40:
 316 00ee 6070     		strb	r0, [r4, #1]
  76:.\Generated_Source\PSoC5/Camera.c ****     CyDmaTdSetAddress(DMA_TD,LO16(Camera_FIFO_Colours_dp__F0_REG),LO16((uint32)Camera_linebuffer));
 317              		.loc 1 76 0
 318 00f0 46F24241 		movw	r1, #25666
 319 00f4 2A46     		mov	r2, r5
 320 00f6 FFF7FEFF 		bl	CyDmaTdSetAddress
 321              	.LVL41:
  77:.\Generated_Source\PSoC5/Camera.c ****     CyDmaTdSetConfiguration(DMA_TD,sizeof(Camera_linebuffer)/4,DMA_TD,TD_INC_DST_ADR|Camera_DMA__TD
 322              		.loc 1 77 0
ARM GAS  C:\Users\Tim\AppData\Local\Temp\ccEfwZD8.s 			page 8


 323 00fa 6278     		ldrb	r2, [r4, #1]	@ zero_extendqisi2
 324 00fc 1046     		mov	r0, r2
 325 00fe A021     		movs	r1, #160
 326 0100 0623     		movs	r3, #6
 327 0102 FFF7FEFF 		bl	CyDmaTdSetConfiguration
 328              	.LVL42:
  78:.\Generated_Source\PSoC5/Camera.c **** 	CyDmaChPriority(DMA_channel,0); //ensure highest priority for DMA channel
 329              		.loc 1 78 0
 330 0106 2078     		ldrb	r0, [r4]	@ zero_extendqisi2
 331 0108 0021     		movs	r1, #0
 332 010a FFF7FEFF 		bl	CyDmaChPriority
 333              	.LVL43:
  79:.\Generated_Source\PSoC5/Camera.c **** 
  80:.\Generated_Source\PSoC5/Camera.c ****     Camera_end_line_colours_StartEx(Camera_end_line);
 334              		.loc 1 80 0
 335 010e 3046     		mov	r0, r6
 336 0110 FFF7FEFF 		bl	Camera_end_line_colours_StartEx
 337              	.LVL44:
  81:.\Generated_Source\PSoC5/Camera.c ****     
  82:.\Generated_Source\PSoC5/Camera.c **** 	*(reg8*)Camera_FIFO_Colours_dp__F0_REG;
 338              		.loc 1 82 0
 339 0114 104B     		ldr	r3, .L18+32
 340 0116 1A78     		ldrb	r2, [r3]	@ zero_extendqisi2
  83:.\Generated_Source\PSoC5/Camera.c **** 	*(reg8*)Camera_FIFO_Colours_dp__F0_REG;
 341              		.loc 1 83 0
 342 0118 1A78     		ldrb	r2, [r3]	@ zero_extendqisi2
  84:.\Generated_Source\PSoC5/Camera.c ****     *(reg8*)Camera_FIFO_Colours_dp__F0_REG;
 343              		.loc 1 84 0
 344 011a 1A78     		ldrb	r2, [r3]	@ zero_extendqisi2
  85:.\Generated_Source\PSoC5/Camera.c ****     *(reg8*)Camera_FIFO_Colours_dp__F0_REG; //clear fifo
 345              		.loc 1 85 0
 346 011c 1B78     		ldrb	r3, [r3]	@ zero_extendqisi2
  86:.\Generated_Source\PSoC5/Camera.c **** 	CyDmaClearPendingDrq(DMA_channel); //invalidate pending requests
 347              		.loc 1 86 0
 348 011e 2078     		ldrb	r0, [r4]	@ zero_extendqisi2
 349 0120 FFF7FEFF 		bl	CyDmaClearPendingDrq
 350              	.LVL45:
  87:.\Generated_Source\PSoC5/Camera.c **** 	CyDmaChSetInitialTd(DMA_channel,DMA_TD); //set initial TD
 351              		.loc 1 87 0
 352 0124 2078     		ldrb	r0, [r4]	@ zero_extendqisi2
 353 0126 6178     		ldrb	r1, [r4, #1]	@ zero_extendqisi2
 354 0128 FFF7FEFF 		bl	CyDmaChSetInitialTd
 355              	.LVL46:
  88:.\Generated_Source\PSoC5/Camera.c **** 	CyDmaChEnable(DMA_channel,1); //enable channel (start streaming)
 356              		.loc 1 88 0
 357 012c 2078     		ldrb	r0, [r4]	@ zero_extendqisi2
 358 012e 0121     		movs	r1, #1
 359 0130 FFF7FEFF 		bl	CyDmaChEnable
 360              	.LVL47:
 361 0134 70BD     		pop	{r4, r5, r6, pc}
 362              	.L19:
 363 0136 00BF     		.align	2
 364              	.L18:
 365 0138 00000000 		.word	Camera_settings
 366 013c 00000000 		.word	Camera_qvga
 367 0140 00000000 		.word	Camera_format
 368 0144 00000000 		.word	.LANCHOR0
ARM GAS  C:\Users\Tim\AppData\Local\Temp\ccEfwZD8.s 			page 9


 369 0148 00000000 		.word	Camera_linebuffer
 370 014c 00000000 		.word	Camera_end_line
 371 0150 44640040 		.word	1073767492
 372 0154 95640040 		.word	1073767573
 373 0158 42640040 		.word	1073767490
 374              		.cfi_endproc
 375              	.LFE66:
 376              		.size	Camera_Start, .-Camera_Start
 377              		.comm	Camera_linebuffer,640,4
 378              		.bss
 379              		.set	.LANCHOR0,. + 0
 380              		.type	DMA_channel, %object
 381              		.size	DMA_channel, 1
 382              	DMA_channel:
 383 0000 00       		.space	1
 384              		.type	DMA_TD, %object
 385              		.size	DMA_TD, 1
 386              	DMA_TD:
 387 0001 00       		.space	1
 388              		.text
 389              	.Letext0:
 390              		.file 2 "c:\\program files (x86)\\cypress\\psoc creator\\3.3\\psoc creator\\import\\gnu\\arm\\4.9.
 391              		.file 3 "c:\\program files (x86)\\cypress\\psoc creator\\3.3\\psoc creator\\import\\gnu\\arm\\4.9.
 392              		.file 4 "Generated_Source\\PSoC5/cytypes.h"
 393              		.file 5 "Generated_Source\\PSoC5/core_cm3.h"
 394              		.file 6 ".\\Generated_Source\\PSoC5\\Camera.h"
 395              		.file 7 "Generated_Source\\PSoC5/Camera_I2C.h"
 396              		.file 8 "Generated_Source\\PSoC5/Camera_VSYNC.h"
 397              		.file 9 "Generated_Source\\PSoC5/Camera_DMA_dma.h"
 398              		.file 10 "Generated_Source\\PSoC5/CYDMAC.H"
 399              		.file 11 "Generated_Source\\PSoC5/CyLib.h"
 400              		.file 12 "Generated_Source\\PSoC5/Camera_end_line.h"
 401              		.file 13 "Generated_Source\\PSoC5/Camera_DMA_Colours_dma.h"
 402              		.file 14 "Generated_Source\\PSoC5/Camera_end_line_colours.h"