ARM GAS  D:\TEMP\cc4lw5kW.s 			page 1


   1              		.syntax unified
   2              		.cpu cortex-m3
   3              		.fpu softvfp
   4              		.eabi_attribute 20, 1
   5              		.eabi_attribute 21, 1
   6              		.eabi_attribute 23, 3
   7              		.eabi_attribute 24, 1
   8              		.eabi_attribute 25, 1
   9              		.eabi_attribute 26, 1
  10              		.eabi_attribute 30, 1
  11              		.eabi_attribute 34, 1
  12              		.eabi_attribute 18, 4
  13              		.thumb
  14              		.file	"claw_functions.c"
  15              		.text
  16              	.Ltext0:
  17              		.cfi_sections	.debug_frame
  18              		.section	.text.ClawOpen,"ax",%progbits
  19              		.align	2
  20              		.global	ClawOpen
  21              		.thumb
  22              		.thumb_func
  23              		.type	ClawOpen, %function
  24              	ClawOpen:
  25              	.LFB63:
  26              		.file 1 ".\\claw_functions.c"
   1:.\claw_functions.c **** /* ========================================
   2:.\claw_functions.c ****  *
   3:.\claw_functions.c ****  * Copyright YOUR COMPANY, THE YEAR
   4:.\claw_functions.c ****  * All Rights Reserved
   5:.\claw_functions.c ****  * UNPUBLISHED, LICENSED SOFTWARE.
   6:.\claw_functions.c ****  *
   7:.\claw_functions.c ****  * CONFIDENTIAL AND PROPRIETARY INFORMATION
   8:.\claw_functions.c ****  * WHICH IS THE PROPERTY OF your company.
   9:.\claw_functions.c ****  *
  10:.\claw_functions.c ****  * ========================================
  11:.\claw_functions.c **** */
  12:.\claw_functions.c **** #include <project.h>
  13:.\claw_functions.c **** /*
  14:.\claw_functions.c **** Important information
  15:.\claw_functions.c ****     The PWM Channels to the Microservers run on a 20ms period.
  16:.\claw_functions.c ****     To Achieve accuracy in the pwm duty width, we use a freq much higher than this.
  17:.\claw_functions.c ****     Thereby we have 2000 counts at 100kHz.
  18:.\claw_functions.c ****     Cycles:
  19:.\claw_functions.c ****         max = 200;  eg cam left (bot perspective) or tilt face down
  20:.\claw_functions.c ****         halfway = 125;
  21:.\claw_functions.c ****         zerodegrees = 50;  eg cam right (bot perspective) or tilt face up
  22:.\claw_functions.c **** */
  23:.\claw_functions.c ****         
  24:.\claw_functions.c **** uint8 max = 200;
  25:.\claw_functions.c **** uint8 halfway = 125;
  26:.\claw_functions.c **** uint8 zerodegrees = 50;
  27:.\claw_functions.c **** 
  28:.\claw_functions.c **** void ClawOpen() {
  27              		.loc 1 28 0
  28              		.cfi_startproc
  29              		@ args = 0, pretend = 0, frame = 0
ARM GAS  D:\TEMP\cc4lw5kW.s 			page 2


  30              		@ frame_needed = 0, uses_anonymous_args = 0
  31 0000 08B5     		push	{r3, lr}
  32              		.cfi_def_cfa_offset 8
  33              		.cfi_offset 3, -8
  34              		.cfi_offset 14, -4
  29:.\claw_functions.c ****    PWM_Claw_WriteCompare(80);
  35              		.loc 1 29 0
  36 0002 5020     		movs	r0, #80
  37 0004 FFF7FEFF 		bl	PWM_Claw_WriteCompare
  38              	.LVL0:
  39 0008 08BD     		pop	{r3, pc}
  40              		.cfi_endproc
  41              	.LFE63:
  42              		.size	ClawOpen, .-ClawOpen
  43 000a 00BF     		.section	.text.ClawClose,"ax",%progbits
  44              		.align	2
  45              		.global	ClawClose
  46              		.thumb
  47              		.thumb_func
  48              		.type	ClawClose, %function
  49              	ClawClose:
  50              	.LFB64:
  30:.\claw_functions.c **** }
  31:.\claw_functions.c **** 
  32:.\claw_functions.c **** void ClawClose() {
  51              		.loc 1 32 0
  52              		.cfi_startproc
  53              		@ args = 0, pretend = 0, frame = 0
  54              		@ frame_needed = 0, uses_anonymous_args = 0
  55 0000 08B5     		push	{r3, lr}
  56              		.cfi_def_cfa_offset 8
  57              		.cfi_offset 3, -8
  58              		.cfi_offset 14, -4
  33:.\claw_functions.c ****    PWM_Claw_WriteCompare(50);
  59              		.loc 1 33 0
  60 0002 3220     		movs	r0, #50
  61 0004 FFF7FEFF 		bl	PWM_Claw_WriteCompare
  62              	.LVL1:
  63 0008 08BD     		pop	{r3, pc}
  64              		.cfi_endproc
  65              	.LFE64:
  66              		.size	ClawClose, .-ClawClose
  67 000a 00BF     		.section	.text.TiltUp,"ax",%progbits
  68              		.align	2
  69              		.global	TiltUp
  70              		.thumb
  71              		.thumb_func
  72              		.type	TiltUp, %function
  73              	TiltUp:
  74              	.LFB65:
  34:.\claw_functions.c **** }
  35:.\claw_functions.c **** 
  36:.\claw_functions.c **** void TiltUp(){
  75              		.loc 1 36 0
  76              		.cfi_startproc
  77              		@ args = 0, pretend = 0, frame = 0
  78              		@ frame_needed = 0, uses_anonymous_args = 0
ARM GAS  D:\TEMP\cc4lw5kW.s 			page 3


  79 0000 08B5     		push	{r3, lr}
  80              		.cfi_def_cfa_offset 8
  81              		.cfi_offset 3, -8
  82              		.cfi_offset 14, -4
  37:.\claw_functions.c ****     PWM_Tilt_WriteCompare(zerodegrees);
  83              		.loc 1 37 0
  84 0002 024B     		ldr	r3, .L7
  85 0004 1878     		ldrb	r0, [r3]	@ zero_extendqisi2
  86 0006 FFF7FEFF 		bl	PWM_Tilt_WriteCompare
  87              	.LVL2:
  88 000a 08BD     		pop	{r3, pc}
  89              	.L8:
  90              		.align	2
  91              	.L7:
  92 000c 00000000 		.word	.LANCHOR0
  93              		.cfi_endproc
  94              	.LFE65:
  95              		.size	TiltUp, .-TiltUp
  96              		.section	.text.TiltStraight,"ax",%progbits
  97              		.align	2
  98              		.global	TiltStraight
  99              		.thumb
 100              		.thumb_func
 101              		.type	TiltStraight, %function
 102              	TiltStraight:
 103              	.LFB66:
  38:.\claw_functions.c **** }
  39:.\claw_functions.c **** void TiltStraight(){
 104              		.loc 1 39 0
 105              		.cfi_startproc
 106              		@ args = 0, pretend = 0, frame = 0
 107              		@ frame_needed = 0, uses_anonymous_args = 0
 108 0000 08B5     		push	{r3, lr}
 109              		.cfi_def_cfa_offset 8
 110              		.cfi_offset 3, -8
 111              		.cfi_offset 14, -4
  40:.\claw_functions.c ****     PWM_Tilt_WriteCompare(halfway);
 112              		.loc 1 40 0
 113 0002 024B     		ldr	r3, .L11
 114 0004 5878     		ldrb	r0, [r3, #1]	@ zero_extendqisi2
 115 0006 FFF7FEFF 		bl	PWM_Tilt_WriteCompare
 116              	.LVL3:
 117 000a 08BD     		pop	{r3, pc}
 118              	.L12:
 119              		.align	2
 120              	.L11:
 121 000c 00000000 		.word	.LANCHOR0
 122              		.cfi_endproc
 123              	.LFE66:
 124              		.size	TiltStraight, .-TiltStraight
 125              		.section	.text.TiltDown,"ax",%progbits
 126              		.align	2
 127              		.global	TiltDown
 128              		.thumb
 129              		.thumb_func
 130              		.type	TiltDown, %function
 131              	TiltDown:
ARM GAS  D:\TEMP\cc4lw5kW.s 			page 4


 132              	.LFB67:
  41:.\claw_functions.c **** }
  42:.\claw_functions.c **** void TiltDown(){
 133              		.loc 1 42 0
 134              		.cfi_startproc
 135              		@ args = 0, pretend = 0, frame = 0
 136              		@ frame_needed = 0, uses_anonymous_args = 0
 137 0000 08B5     		push	{r3, lr}
 138              		.cfi_def_cfa_offset 8
 139              		.cfi_offset 3, -8
 140              		.cfi_offset 14, -4
  43:.\claw_functions.c ****     PWM_Tilt_WriteCompare(max);
 141              		.loc 1 43 0
 142 0002 024B     		ldr	r3, .L15
 143 0004 9878     		ldrb	r0, [r3, #2]	@ zero_extendqisi2
 144 0006 FFF7FEFF 		bl	PWM_Tilt_WriteCompare
 145              	.LVL4:
 146 000a 08BD     		pop	{r3, pc}
 147              	.L16:
 148              		.align	2
 149              	.L15:
 150 000c 00000000 		.word	.LANCHOR0
 151              		.cfi_endproc
 152              	.LFE67:
 153              		.size	TiltDown, .-TiltDown
 154              		.section	.text.TiltDown45,"ax",%progbits
 155              		.align	2
 156              		.global	TiltDown45
 157              		.thumb
 158              		.thumb_func
 159              		.type	TiltDown45, %function
 160              	TiltDown45:
 161              	.LFB68:
  44:.\claw_functions.c **** }
  45:.\claw_functions.c **** void TiltDown45(){
 162              		.loc 1 45 0
 163              		.cfi_startproc
 164              		@ args = 0, pretend = 0, frame = 0
 165              		@ frame_needed = 0, uses_anonymous_args = 0
 166 0000 08B5     		push	{r3, lr}
 167              		.cfi_def_cfa_offset 8
 168              		.cfi_offset 3, -8
 169              		.cfi_offset 14, -4
  46:.\claw_functions.c ****     PWM_Tilt_WriteCompare(162);
 170              		.loc 1 46 0
 171 0002 A220     		movs	r0, #162
 172 0004 FFF7FEFF 		bl	PWM_Tilt_WriteCompare
 173              	.LVL5:
 174 0008 08BD     		pop	{r3, pc}
 175              		.cfi_endproc
 176              	.LFE68:
 177              		.size	TiltDown45, .-TiltDown45
 178 000a 00BF     		.section	.text.PanRight,"ax",%progbits
 179              		.align	2
 180              		.global	PanRight
 181              		.thumb
 182              		.thumb_func
ARM GAS  D:\TEMP\cc4lw5kW.s 			page 5


 183              		.type	PanRight, %function
 184              	PanRight:
 185              	.LFB69:
  47:.\claw_functions.c **** }
  48:.\claw_functions.c **** 
  49:.\claw_functions.c **** void PanRight(){
 186              		.loc 1 49 0
 187              		.cfi_startproc
 188              		@ args = 0, pretend = 0, frame = 0
 189              		@ frame_needed = 0, uses_anonymous_args = 0
 190 0000 08B5     		push	{r3, lr}
 191              		.cfi_def_cfa_offset 8
 192              		.cfi_offset 3, -8
 193              		.cfi_offset 14, -4
  50:.\claw_functions.c ****     TiltUp();   // good logic Dan
 194              		.loc 1 50 0
 195 0002 FFF7FEFF 		bl	TiltUp
 196              	.LVL6:
  51:.\claw_functions.c ****     CyDelay(100);
 197              		.loc 1 51 0
 198 0006 6420     		movs	r0, #100
 199 0008 FFF7FEFF 		bl	CyDelay
 200              	.LVL7:
  52:.\claw_functions.c ****     PWM_Pan_WriteCompare(zerodegrees);
 201              		.loc 1 52 0
 202 000c 024B     		ldr	r3, .L21
 203 000e 1878     		ldrb	r0, [r3]	@ zero_extendqisi2
 204 0010 FFF7FEFF 		bl	PWM_Pan_WriteCompare
 205              	.LVL8:
 206 0014 08BD     		pop	{r3, pc}
 207              	.L22:
 208 0016 00BF     		.align	2
 209              	.L21:
 210 0018 00000000 		.word	.LANCHOR0
 211              		.cfi_endproc
 212              	.LFE69:
 213              		.size	PanRight, .-PanRight
 214              		.section	.text.PanMid,"ax",%progbits
 215              		.align	2
 216              		.global	PanMid
 217              		.thumb
 218              		.thumb_func
 219              		.type	PanMid, %function
 220              	PanMid:
 221              	.LFB70:
  53:.\claw_functions.c **** }
  54:.\claw_functions.c **** void PanMid(){
 222              		.loc 1 54 0
 223              		.cfi_startproc
 224              		@ args = 0, pretend = 0, frame = 0
 225              		@ frame_needed = 0, uses_anonymous_args = 0
 226 0000 08B5     		push	{r3, lr}
 227              		.cfi_def_cfa_offset 8
 228              		.cfi_offset 3, -8
 229              		.cfi_offset 14, -4
  55:.\claw_functions.c ****     PWM_Pan_WriteCompare(halfway);
 230              		.loc 1 55 0
ARM GAS  D:\TEMP\cc4lw5kW.s 			page 6


 231 0002 024B     		ldr	r3, .L25
 232 0004 5878     		ldrb	r0, [r3, #1]	@ zero_extendqisi2
 233 0006 FFF7FEFF 		bl	PWM_Pan_WriteCompare
 234              	.LVL9:
 235 000a 08BD     		pop	{r3, pc}
 236              	.L26:
 237              		.align	2
 238              	.L25:
 239 000c 00000000 		.word	.LANCHOR0
 240              		.cfi_endproc
 241              	.LFE70:
 242              		.size	PanMid, .-PanMid
 243              		.section	.text.LiftGround,"ax",%progbits
 244              		.align	2
 245              		.global	LiftGround
 246              		.thumb
 247              		.thumb_func
 248              		.type	LiftGround, %function
 249              	LiftGround:
 250              	.LFB71:
  56:.\claw_functions.c **** }
  57:.\claw_functions.c **** 
  58:.\claw_functions.c **** void LiftGround(){
 251              		.loc 1 58 0
 252              		.cfi_startproc
 253              		@ args = 0, pretend = 0, frame = 0
 254              		@ frame_needed = 0, uses_anonymous_args = 0
 255 0000 08B5     		push	{r3, lr}
 256              		.cfi_def_cfa_offset 8
 257              		.cfi_offset 3, -8
 258              		.cfi_offset 14, -4
  59:.\claw_functions.c ****      PWM_Lift_WriteCompare(65);
 259              		.loc 1 59 0
 260 0002 4120     		movs	r0, #65
 261 0004 FFF7FEFF 		bl	PWM_Lift_WriteCompare
 262              	.LVL10:
 263 0008 08BD     		pop	{r3, pc}
 264              		.cfi_endproc
 265              	.LFE71:
 266              		.size	LiftGround, .-LiftGround
 267 000a 00BF     		.section	.text.LiftHalf,"ax",%progbits
 268              		.align	2
 269              		.global	LiftHalf
 270              		.thumb
 271              		.thumb_func
 272              		.type	LiftHalf, %function
 273              	LiftHalf:
 274              	.LFB72:
  60:.\claw_functions.c **** }
  61:.\claw_functions.c **** 
  62:.\claw_functions.c **** void LiftHalf(){
 275              		.loc 1 62 0
 276              		.cfi_startproc
 277              		@ args = 0, pretend = 0, frame = 0
 278              		@ frame_needed = 0, uses_anonymous_args = 0
 279 0000 08B5     		push	{r3, lr}
 280              		.cfi_def_cfa_offset 8
ARM GAS  D:\TEMP\cc4lw5kW.s 			page 7


 281              		.cfi_offset 3, -8
 282              		.cfi_offset 14, -4
  63:.\claw_functions.c ****     PWM_Lift_WriteCompare((max+65)/2);
 283              		.loc 1 63 0
 284 0002 044B     		ldr	r3, .L31
 285 0004 9878     		ldrb	r0, [r3, #2]	@ zero_extendqisi2
 286 0006 4130     		adds	r0, r0, #65
 287 0008 C0F34F00 		ubfx	r0, r0, #1, #16
 288 000c FFF7FEFF 		bl	PWM_Lift_WriteCompare
 289              	.LVL11:
 290 0010 08BD     		pop	{r3, pc}
 291              	.L32:
 292 0012 00BF     		.align	2
 293              	.L31:
 294 0014 00000000 		.word	.LANCHOR0
 295              		.cfi_endproc
 296              	.LFE72:
 297              		.size	LiftHalf, .-LiftHalf
 298              		.section	.text.LiftTop,"ax",%progbits
 299              		.align	2
 300              		.global	LiftTop
 301              		.thumb
 302              		.thumb_func
 303              		.type	LiftTop, %function
 304              	LiftTop:
 305              	.LFB73:
  64:.\claw_functions.c **** }
  65:.\claw_functions.c **** 
  66:.\claw_functions.c **** void LiftTop(){
 306              		.loc 1 66 0
 307              		.cfi_startproc
 308              		@ args = 0, pretend = 0, frame = 0
 309              		@ frame_needed = 0, uses_anonymous_args = 0
 310 0000 08B5     		push	{r3, lr}
 311              		.cfi_def_cfa_offset 8
 312              		.cfi_offset 3, -8
 313              		.cfi_offset 14, -4
  67:.\claw_functions.c ****      PWM_Lift_WriteCompare(max);
 314              		.loc 1 67 0
 315 0002 024B     		ldr	r3, .L35
 316 0004 9878     		ldrb	r0, [r3, #2]	@ zero_extendqisi2
 317 0006 FFF7FEFF 		bl	PWM_Lift_WriteCompare
 318              	.LVL12:
 319 000a 08BD     		pop	{r3, pc}
 320              	.L36:
 321              		.align	2
 322              	.L35:
 323 000c 00000000 		.word	.LANCHOR0
 324              		.cfi_endproc
 325              	.LFE73:
 326              		.size	LiftTop, .-LiftTop
 327              		.global	zerodegrees
 328              		.global	halfway
 329              		.global	max
 330              		.comm	Camera_linebuffer,640,4
 331              		.data
 332              		.set	.LANCHOR0,. + 0
ARM GAS  D:\TEMP\cc4lw5kW.s 			page 8


 333              		.type	zerodegrees, %object
 334              		.size	zerodegrees, 1
 335              	zerodegrees:
 336 0000 32       		.byte	50
 337              		.type	halfway, %object
 338              		.size	halfway, 1
 339              	halfway:
 340 0001 7D       		.byte	125
 341              		.type	max, %object
 342              		.size	max, 1
 343              	max:
 344 0002 C8       		.byte	-56
 345              		.text
 346              	.Letext0:
 347              		.file 2 "d:\\program files (x86)\\cypress\\psoc creator\\3.3\\psoc creator\\import\\gnu\\arm\\4.9.
 348              		.file 3 "d:\\program files (x86)\\cypress\\psoc creator\\3.3\\psoc creator\\import\\gnu\\arm\\4.9.
 349              		.file 4 "Generated_Source\\PSoC5/cytypes.h"
 350              		.file 5 "Generated_Source\\PSoC5/core_cm3.h"
 351              		.file 6 "Generated_Source\\PSoC5/Camera.h"
 352              		.file 7 "Generated_Source\\PSoC5/PWM_Claw.h"
 353              		.file 8 "Generated_Source\\PSoC5/PWM_Tilt.h"
 354              		.file 9 "Generated_Source\\PSoC5/CyLib.h"
 355              		.file 10 "Generated_Source\\PSoC5/PWM_Pan.h"
 356              		.file 11 "Generated_Source\\PSoC5/PWM_Lift.h"