ARM GAS  C:\Users\Daniel\AppData\Local\Temp\cct51Wep.s 			page 1


   1              		.syntax unified
   2              		.cpu cortex-m3
   3              		.fpu softvfp
   4              		.eabi_attribute 20, 1
   5              		.eabi_attribute 21, 1
   6              		.eabi_attribute 23, 3
   7              		.eabi_attribute 24, 1
   8              		.eabi_attribute 25, 1
   9              		.eabi_attribute 26, 1
  10              		.eabi_attribute 30, 1
  11              		.eabi_attribute 34, 1
  12              		.eabi_attribute 18, 4
  13              		.thumb
  14              		.file	"initial_path_sequence.c"
  15              		.text
  16              	.Ltext0:
  17              		.cfi_sections	.debug_frame
  18              		.global	__aeabi_dcmplt
  19              		.section	.text.PathInitialSequence,"ax",%progbits
  20              		.align	2
  21              		.global	PathInitialSequence
  22              		.thumb
  23              		.thumb_func
  24              		.type	PathInitialSequence, %function
  25              	PathInitialSequence:
  26              	.LFB63:
  27              		.file 1 ".\\initial_path_sequence.c"
   1:.\initial_path_sequence.c **** /*
   2:.\initial_path_sequence.c ****  * Copyright @Pucktacular, 2016
   3:.\initial_path_sequence.c ****  * @Matt Gebert, Daniel Hranilovic & Kevin Duxbury
   4:.\initial_path_sequence.c ****  * All Rights Reserved
   5:.\initial_path_sequence.c ****  * UNPUBLISHED, LICENSED SOFTWARE.
   6:.\initial_path_sequence.c ****  *
   7:.\initial_path_sequence.c ****  * CONFIDENTIAL AND PROPRIETARY INFORMATION
   8:.\initial_path_sequence.c ****  * WHICH IS THE PROPERTY OF your company.
   9:.\initial_path_sequence.c ****  *
  10:.\initial_path_sequence.c ****  * ========================================
  11:.\initial_path_sequence.c **** */
  12:.\initial_path_sequence.c **** #include <project.h>
  13:.\initial_path_sequence.c **** #include <stdbool.h>
  14:.\initial_path_sequence.c **** #include <math.h>
  15:.\initial_path_sequence.c **** #include <stdlib.h>
  16:.\initial_path_sequence.c **** #include "movement_functions.h"
  17:.\initial_path_sequence.c **** #include "camera_display.h"
  18:.\initial_path_sequence.c **** #include "camera_functions.h"
  19:.\initial_path_sequence.c **** #include "pwm_functions.h"
  20:.\initial_path_sequence.c **** #include "Ultrasonics.h"
  21:.\initial_path_sequence.c **** #include "initial_path_sequence.h"
  22:.\initial_path_sequence.c **** #include "utils.h"
  23:.\initial_path_sequence.c **** 
  24:.\initial_path_sequence.c **** 
  25:.\initial_path_sequence.c **** bool PathInitialSequence(){
  28              		.loc 1 25 0
  29              		.cfi_startproc
  30              		@ args = 0, pretend = 0, frame = 0
  31              		@ frame_needed = 0, uses_anonymous_args = 0
  32 0000 2DE9D043 		push	{r4, r6, r7, r8, r9, lr}
ARM GAS  C:\Users\Daniel\AppData\Local\Temp\cct51Wep.s 			page 2


  33              		.cfi_def_cfa_offset 24
  34              		.cfi_offset 4, -24
  35              		.cfi_offset 6, -20
  36              		.cfi_offset 7, -16
  37              		.cfi_offset 8, -12
  38              		.cfi_offset 9, -8
  39              		.cfi_offset 14, -4
  40 0004 82B0     		sub	sp, sp, #8
  41              		.cfi_def_cfa_offset 32
  42              	.LVL0:
  26:.\initial_path_sequence.c ****     bool block = false;
  27:.\initial_path_sequence.c ****     double check_angle = 5;
  28:.\initial_path_sequence.c ****     double dist1,dist2;
  29:.\initial_path_sequence.c ****     uint8 i;
  30:.\initial_path_sequence.c ****     //move back
  31:.\initial_path_sequence.c ****     MovementBackward(6000);
  43              		.loc 1 31 0
  44 0006 41F27070 		movw	r0, #6000
  45 000a FFF7FEFF 		bl	MovementBackward
  46              	.LVL1:
  32:.\initial_path_sequence.c ****     //move back to 25cm
  33:.\initial_path_sequence.c ****     //CyDelay(50);
  34:.\initial_path_sequence.c ****     //MoveAlignBack(21,1);
  35:.\initial_path_sequence.c ****     //camera sequence code here
  36:.\initial_path_sequence.c ****     PanMid();
  47              		.loc 1 36 0
  48 000e FFF7FEFF 		bl	PanMid
  49              	.LVL2:
  37:.\initial_path_sequence.c ****     CyDelay(50);
  50              		.loc 1 37 0
  51 0012 3220     		movs	r0, #50
  52 0014 FFF7FEFF 		bl	CyDelay
  53              	.LVL3:
  38:.\initial_path_sequence.c ****     TiltStraight();
  54              		.loc 1 38 0
  55 0018 FFF7FEFF 		bl	TiltStraight
  56              	.LVL4:
  39:.\initial_path_sequence.c ****     CyDelay(100);
  57              		.loc 1 39 0
  58 001c 6420     		movs	r0, #100
  59 001e FFF7FEFF 		bl	CyDelay
  60              	.LVL5:
  40:.\initial_path_sequence.c ****     PWM_Pan_WriteCompare(125);//Adjusted Cam Angle for Puck Seq
  61              		.loc 1 40 0
  62 0022 7D20     		movs	r0, #125
  63 0024 FFF7FEFF 		bl	PWM_Pan_WriteCompare
  64              	.LVL6:
  41:.\initial_path_sequence.c ****     CyDelay(100);
  65              		.loc 1 41 0
  66 0028 6420     		movs	r0, #100
  67 002a FFF7FEFF 		bl	CyDelay
  68              	.LVL7:
  42:.\initial_path_sequence.c ****     CaptureFrameWithLights();
  69              		.loc 1 42 0
  70 002e FFF7FEFF 		bl	CaptureFrameWithLights
  71              	.LVL8:
  43:.\initial_path_sequence.c ****     CyDelay(100);
ARM GAS  C:\Users\Daniel\AppData\Local\Temp\cct51Wep.s 			page 3


  72              		.loc 1 43 0
  73 0032 6420     		movs	r0, #100
  74 0034 FFF7FEFF 		bl	CyDelay
  75              	.LVL9:
  44:.\initial_path_sequence.c ****     CamGetSequence();
  76              		.loc 1 44 0
  77 0038 FFF7FEFF 		bl	CamGetSequence
  78              	.LVL10:
  45:.\initial_path_sequence.c ****     PanMid();
  79              		.loc 1 45 0
  80 003c FFF7FEFF 		bl	PanMid
  81              	.LVL11:
  46:.\initial_path_sequence.c ****     CyDelay(100);
  82              		.loc 1 46 0
  83 0040 6420     		movs	r0, #100
  84 0042 FFF7FEFF 		bl	CyDelay
  85              	.LVL12:
  47:.\initial_path_sequence.c ****     MovementForward(200);
  86              		.loc 1 47 0
  87 0046 C820     		movs	r0, #200
  88 0048 FFF7FEFF 		bl	MovementForward
  89              	.LVL13:
  48:.\initial_path_sequence.c ****     CyDelay(50);
  90              		.loc 1 48 0
  91 004c 3220     		movs	r0, #50
  92 004e FFF7FEFF 		bl	CyDelay
  93              	.LVL14:
  49:.\initial_path_sequence.c ****     //pivot right 90
  50:.\initial_path_sequence.c ****     MovementPivotRight(80);
  94              		.loc 1 50 0
  95 0052 0020     		movs	r0, #0
  96 0054 2749     		ldr	r1, .L12
  97 0056 FFF7FEFF 		bl	MovementPivotRight
  98              	.LVL15:
  51:.\initial_path_sequence.c ****     //move to side wall
  52:.\initial_path_sequence.c ****     MovementForward(3000);
  99              		.loc 1 52 0
 100 005a 40F6B830 		movw	r0, #3000
 101 005e FFF7FEFF 		bl	MovementForward
 102              	.LVL16:
  53:.\initial_path_sequence.c ****     MoveAlign(16,0,0,0.8);
 103              		.loc 1 53 0
 104 0062 254B     		ldr	r3, .L12+4
 105 0064 0093     		str	r3, [sp]	@ float
 106 0066 0020     		movs	r0, #0
 107 0068 2449     		ldr	r1, .L12+8
 108 006a 0022     		movs	r2, #0
 109 006c 1346     		mov	r3, r2
 110 006e FFF7FEFF 		bl	MoveAlign
 111              	.LVL17:
  54:.\initial_path_sequence.c ****     //pivot right 90
  55:.\initial_path_sequence.c ****     MovementPivotRight90();
 112              		.loc 1 55 0
 113 0072 FFF7FEFF 		bl	MovementPivotRight90
 114              	.LVL18:
  56:.\initial_path_sequence.c ****     //check distance for brick
  57:.\initial_path_sequence.c ****     for(i=0;i<3;i++){
ARM GAS  C:\Users\Daniel\AppData\Local\Temp\cct51Wep.s 			page 4


 115              		.loc 1 57 0
 116 0076 0024     		movs	r4, #0
 117 0078 31E0     		b	.L2
 118              	.LVL19:
 119              	.L8:
  58:.\initial_path_sequence.c ****         if(i==1){
 120              		.loc 1 58 0
 121 007a 012C     		cmp	r4, #1
 122 007c 03D1     		bne	.L3
  59:.\initial_path_sequence.c ****             MovementPivotLeft(check_angle);
 123              		.loc 1 59 0
 124 007e 0020     		movs	r0, #0
 125 0080 1F49     		ldr	r1, .L12+12
 126 0082 FFF7FEFF 		bl	MovementPivotLeft
 127              	.LVL20:
 128              	.L3:
  60:.\initial_path_sequence.c ****         }
  61:.\initial_path_sequence.c ****         
  62:.\initial_path_sequence.c ****         if(i==2){
 129              		.loc 1 62 0
 130 0086 022C     		cmp	r4, #2
 131 0088 03D1     		bne	.L4
  63:.\initial_path_sequence.c ****             MovementPivotRight(check_angle);
 132              		.loc 1 63 0
 133 008a 0020     		movs	r0, #0
 134 008c 1C49     		ldr	r1, .L12+12
 135 008e FFF7FEFF 		bl	MovementPivotRight
 136              	.LVL21:
 137              	.L4:
  64:.\initial_path_sequence.c ****         }
  65:.\initial_path_sequence.c ****         dist1 = Ultrasonics(1);
 138              		.loc 1 65 0
 139 0092 0120     		movs	r0, #1
 140 0094 FFF7FEFF 		bl	Ultrasonics
 141              	.LVL22:
 142 0098 8046     		mov	r8, r0
 143 009a 8946     		mov	r9, r1
 144              	.LVL23:
  66:.\initial_path_sequence.c ****         dist2 = Ultrasonics(0);
 145              		.loc 1 66 0
 146 009c 0020     		movs	r0, #0
 147 009e FFF7FEFF 		bl	Ultrasonics
 148              	.LVL24:
 149 00a2 0646     		mov	r6, r0
 150 00a4 0F46     		mov	r7, r1
 151              	.LVL25:
  67:.\initial_path_sequence.c ****         if(i==1){
 152              		.loc 1 67 0
 153 00a6 012C     		cmp	r4, #1
 154 00a8 03D1     		bne	.L5
  68:.\initial_path_sequence.c ****             MovementPivotRight(check_angle);
 155              		.loc 1 68 0
 156 00aa 0020     		movs	r0, #0
 157 00ac 1449     		ldr	r1, .L12+12
 158 00ae FFF7FEFF 		bl	MovementPivotRight
 159              	.LVL26:
 160              	.L5:
ARM GAS  C:\Users\Daniel\AppData\Local\Temp\cct51Wep.s 			page 5


  69:.\initial_path_sequence.c ****         }
  70:.\initial_path_sequence.c ****         
  71:.\initial_path_sequence.c ****         if(i==2){
 161              		.loc 1 71 0
 162 00b2 022C     		cmp	r4, #2
 163 00b4 03D1     		bne	.L6
  72:.\initial_path_sequence.c ****             MovementPivotLeft(check_angle);
 164              		.loc 1 72 0
 165 00b6 0020     		movs	r0, #0
 166 00b8 1149     		ldr	r1, .L12+12
 167 00ba FFF7FEFF 		bl	MovementPivotLeft
 168              	.LVL27:
 169              	.L6:
  73:.\initial_path_sequence.c ****         }
  74:.\initial_path_sequence.c ****         //dist_diff = fabs(dist1-dist2);
  75:.\initial_path_sequence.c ****         if( (dist2<30) || (dist1<30) ){
 170              		.loc 1 75 0
 171 00be 3046     		mov	r0, r6
 172 00c0 3946     		mov	r1, r7
 173 00c2 0022     		movs	r2, #0
 174 00c4 0F4B     		ldr	r3, .L12+16
 175 00c6 FFF7FEFF 		bl	__aeabi_dcmplt
 176              	.LVL28:
 177 00ca 60B9     		cbnz	r0, .L9
 178              		.loc 1 75 0 is_stmt 0 discriminator 1
 179 00cc 4046     		mov	r0, r8
 180 00ce 4946     		mov	r1, r9
 181 00d0 0022     		movs	r2, #0
 182 00d2 0C4B     		ldr	r3, .L12+16
 183 00d4 FFF7FEFF 		bl	__aeabi_dcmplt
 184              	.LVL29:
 185 00d8 38B9     		cbnz	r0, .L10
  57:.\initial_path_sequence.c ****         if(i==1){
 186              		.loc 1 57 0 is_stmt 1 discriminator 2
 187 00da 0134     		adds	r4, r4, #1
 188              	.LVL30:
 189 00dc E4B2     		uxtb	r4, r4
 190              	.LVL31:
 191              	.L2:
  57:.\initial_path_sequence.c ****         if(i==1){
 192              		.loc 1 57 0 is_stmt 0 discriminator 1
 193 00de 022C     		cmp	r4, #2
 194 00e0 CBD9     		bls	.L8
  76:.\initial_path_sequence.c ****            block = true;
  77:.\initial_path_sequence.c ****            return block;
  78:.\initial_path_sequence.c ****         }
  79:.\initial_path_sequence.c ****     }
  80:.\initial_path_sequence.c ****     return block;
 195              		.loc 1 80 0 is_stmt 1
 196 00e2 0020     		movs	r0, #0
 197 00e4 02E0     		b	.L7
 198              	.LVL32:
 199              	.L9:
  77:.\initial_path_sequence.c ****         }
 200              		.loc 1 77 0
 201 00e6 0120     		movs	r0, #1
 202 00e8 00E0     		b	.L7
ARM GAS  C:\Users\Daniel\AppData\Local\Temp\cct51Wep.s 			page 6


 203              	.L10:
 204 00ea 0120     		movs	r0, #1
 205              	.LVL33:
 206              	.L7:
  81:.\initial_path_sequence.c **** }
 207              		.loc 1 81 0
 208 00ec 02B0     		add	sp, sp, #8
 209              		.cfi_def_cfa_offset 24
 210              		@ sp needed
 211 00ee BDE8D083 		pop	{r4, r6, r7, r8, r9, pc}
 212              	.LVL34:
 213              	.L13:
 214 00f2 00BF     		.align	2
 215              	.L12:
 216 00f4 00005440 		.word	1079246848
 217 00f8 CDCC4C3F 		.word	1061997773
 218 00fc 00003040 		.word	1076887552
 219 0100 00001440 		.word	1075052544
 220 0104 00003E40 		.word	1077805056
 221              		.cfi_endproc
 222              	.LFE63:
 223              		.size	PathInitialSequence, .-PathInitialSequence
 224              		.comm	display_mode,1,1
 225              		.comm	Camera_linebuffer,640,4
 226              		.text
 227              	.Letext0:
 228              		.file 2 "c:\\program files (x86)\\cypress\\psoc creator\\3.3\\psoc creator\\import\\gnu\\arm\\4.9.
 229              		.file 3 "c:\\program files (x86)\\cypress\\psoc creator\\3.3\\psoc creator\\import\\gnu\\arm\\4.9.
 230              		.file 4 "Generated_Source\\PSoC5/cytypes.h"
 231              		.file 5 "Generated_Source\\PSoC5/core_cm3.h"
 232              		.file 6 "Generated_Source\\PSoC5/Camera.h"
 233              		.file 7 ".\\camera_display.h"
 234              		.file 8 ".\\movement_functions.h"
 235              		.file 9 "Generated_Source\\PSoC5/CyLib.h"
 236              		.file 10 ".\\pwm_functions.h"
 237              		.file 11 "Generated_Source\\PSoC5/PWM_Pan.h"
 238              		.file 12 ".\\utils.h"
 239              		.file 13 ".\\camera_functions.h"
 240              		.file 14 ".\\Ultrasonics.h"