ARM GAS  C:\Users\Tim\AppData\Local\Temp\ccsF5WS1.s 			page 1


   1              		.syntax unified
   2              		.cpu cortex-m3
   3              		.fpu softvfp
   4              		.eabi_attribute 20, 1
   5              		.eabi_attribute 21, 1
   6              		.eabi_attribute 23, 3
   7              		.eabi_attribute 24, 1
   8              		.eabi_attribute 25, 1
   9              		.eabi_attribute 26, 1
  10              		.eabi_attribute 30, 1
  11              		.eabi_attribute 34, 1
  12              		.eabi_attribute 18, 4
  13              		.thumb
  14              		.file	"LCD.c"
  15              		.text
  16              	.Ltext0:
  17              		.cfi_sections	.debug_frame
  18              		.section	.text.LCD_WriteReg,"ax",%progbits
  19              		.align	2
  20              		.global	LCD_WriteReg
  21              		.thumb
  22              		.thumb_func
  23              		.type	LCD_WriteReg, %function
  24              	LCD_WriteReg:
  25              	.LFB64:
  26              		.file 1 ".\\Generated_Source\\PSoC5\\LCD.c"
   1:.\Generated_Source\PSoC5/LCD.c **** #include<project.h>
   2:.\Generated_Source\PSoC5/LCD.c **** 
   3:.\Generated_Source\PSoC5/LCD.c **** #define LCD_CS_Write     CS ## _Write
   4:.\Generated_Source\PSoC5/LCD.c **** #define LCD_CS_Read      CS ## _Read
   5:.\Generated_Source\PSoC5/LCD.c **** #define LCD_OE      OE ## _Control
   6:.\Generated_Source\PSoC5/LCD.c **** #define LCD_D_PS       D ## _PS
   7:.\Generated_Source\PSoC5/LCD.c **** #define LCD_LCD_RD_Write LCD_RD ## _Write
   8:.\Generated_Source\PSoC5/LCD.c **** 
   9:.\Generated_Source\PSoC5/LCD.c **** void LCD_Start()
  10:.\Generated_Source\PSoC5/LCD.c **** {
  11:.\Generated_Source\PSoC5/LCD.c ****     uint8 cs=LCD_CS_Read(); //read intial state to restore afterwards
  12:.\Generated_Source\PSoC5/LCD.c ****     uint8 oe=LCD_OE;
  13:.\Generated_Source\PSoC5/LCD.c ****     LCD_CS_Write(3); //select LCD
  14:.\Generated_Source\PSoC5/LCD.c ****     LCD_OE=1; //enable data bus output
  15:.\Generated_Source\PSoC5/LCD.c ****     
  16:.\Generated_Source\PSoC5/LCD.c ****     LCD_Command(0x01); //software reset
  17:.\Generated_Source\PSoC5/LCD.c ****     CyDelay(5);
  18:.\Generated_Source\PSoC5/LCD.c ****     LCD_Command(0x11); //take out of sleep
  19:.\Generated_Source\PSoC5/LCD.c ****     CyDelay(100);
  20:.\Generated_Source\PSoC5/LCD.c ****     LCD_Command(0x29); //turn display on
  21:.\Generated_Source\PSoC5/LCD.c ****     LCD_WriteReg(0x36,0xe8); //flip image horizontally and vertically; swap rows/columns; set to BG
  22:.\Generated_Source\PSoC5/LCD.c ****     
  23:.\Generated_Source\PSoC5/LCD.c ****     //gamma correction settings
  24:.\Generated_Source\PSoC5/LCD.c ****     uint8 gamma_p[]={0x0F,0x31,0x2B,0x0C,0x0E,0x08,0x4E,0xF1,0x37,0x07,0x10,0x03,0x0E,0x09,0x00};
  25:.\Generated_Source\PSoC5/LCD.c ****     uint8 gamma_n[]={0x00,0x0E,0x14,0x03,0x11,0x07,0x31,0xC1,0x48,0x08,0x0F,0x0C,0x31,0x36,0x0F};
  26:.\Generated_Source\PSoC5/LCD.c ****     LCD_WriteArray(0xe0,gamma_p,sizeof gamma_p);
  27:.\Generated_Source\PSoC5/LCD.c ****     LCD_WriteArray(0xe1,gamma_n,sizeof gamma_n);
  28:.\Generated_Source\PSoC5/LCD.c ****     
  29:.\Generated_Source\PSoC5/LCD.c ****     LCD_OE=oe; //restore output enable
  30:.\Generated_Source\PSoC5/LCD.c ****     LCD_CS_Write(cs); //restore initial chip select
  31:.\Generated_Source\PSoC5/LCD.c **** }
ARM GAS  C:\Users\Tim\AppData\Local\Temp\ccsF5WS1.s 			page 2


  32:.\Generated_Source\PSoC5/LCD.c **** 
  33:.\Generated_Source\PSoC5/LCD.c **** void LCD_WriteReg(uint8 reg,uint8 value)
  34:.\Generated_Source\PSoC5/LCD.c **** {
  27              		.loc 1 34 0
  28              		.cfi_startproc
  29              		@ args = 0, pretend = 0, frame = 0
  30              		@ frame_needed = 0, uses_anonymous_args = 0
  31              	.LVL0:
  32 0000 2DE9F041 		push	{r4, r5, r6, r7, r8, lr}
  33              		.cfi_def_cfa_offset 24
  34              		.cfi_offset 4, -24
  35              		.cfi_offset 5, -20
  36              		.cfi_offset 6, -16
  37              		.cfi_offset 7, -12
  38              		.cfi_offset 8, -8
  39              		.cfi_offset 14, -4
  40 0004 0746     		mov	r7, r0
  41 0006 0E46     		mov	r6, r1
  35:.\Generated_Source\PSoC5/LCD.c ****     uint8 cs=LCD_CS_Read(); //read intial state to restore afterwards
  42              		.loc 1 35 0
  43 0008 FFF7FEFF 		bl	CS_Read
  44              	.LVL1:
  45 000c 0546     		mov	r5, r0
  46              	.LVL2:
  36:.\Generated_Source\PSoC5/LCD.c ****     uint8 oe=LCD_OE;
  47              		.loc 1 36 0
  48 000e DFF85880 		ldr	r8, .L6+8
  49 0012 98F80040 		ldrb	r4, [r8]	@ zero_extendqisi2
  50 0016 E4B2     		uxtb	r4, r4
  51              	.LVL3:
  37:.\Generated_Source\PSoC5/LCD.c ****     LCD_CS_Write(3); //select LCD
  52              		.loc 1 37 0
  53 0018 0320     		movs	r0, #3
  54 001a FFF7FEFF 		bl	CS_Write
  55              	.LVL4:
  38:.\Generated_Source\PSoC5/LCD.c ****     LCD_OE=1; //enable data bus output
  56              		.loc 1 38 0
  57 001e 0123     		movs	r3, #1
  58 0020 88F80030 		strb	r3, [r8]
  59              	.L2:
  39:.\Generated_Source\PSoC5/LCD.c ****     
  40:.\Generated_Source\PSoC5/LCD.c ****     while(!LCD_Ready);
  60              		.loc 1 40 0 discriminator 1
  61 0024 0E4B     		ldr	r3, .L6
  62 0026 1B78     		ldrb	r3, [r3]	@ zero_extendqisi2
  63 0028 13F0010F 		tst	r3, #1
  64 002c FAD0     		beq	.L2
  41:.\Generated_Source\PSoC5/LCD.c ****     LCD_Command(reg);
  65              		.loc 1 41 0
  66 002e 47F48077 		orr	r7, r7, #256
  67 0032 0C4B     		ldr	r3, .L6+4
  68 0034 1F80     		strh	r7, [r3]	@ movhi
  69              	.L3:
  42:.\Generated_Source\PSoC5/LCD.c ****     while(!LCD_Ready);
  70              		.loc 1 42 0 discriminator 1
  71 0036 0A4B     		ldr	r3, .L6
  72 0038 1B78     		ldrb	r3, [r3]	@ zero_extendqisi2
ARM GAS  C:\Users\Tim\AppData\Local\Temp\ccsF5WS1.s 			page 3


  73 003a 13F0010F 		tst	r3, #1
  74 003e FAD0     		beq	.L3
  43:.\Generated_Source\PSoC5/LCD.c ****     LCD_Data(value);
  75              		.loc 1 43 0
  76 0040 B6B2     		uxth	r6, r6
  77 0042 084B     		ldr	r3, .L6+4
  78 0044 1E80     		strh	r6, [r3]	@ movhi
  79              	.L4:
  44:.\Generated_Source\PSoC5/LCD.c ****     while(!LCD_Empty);
  80              		.loc 1 44 0 discriminator 1
  81 0046 064B     		ldr	r3, .L6
  82 0048 1B78     		ldrb	r3, [r3]	@ zero_extendqisi2
  83 004a 13F0020F 		tst	r3, #2
  84 004e FAD0     		beq	.L4
  45:.\Generated_Source\PSoC5/LCD.c ****     
  46:.\Generated_Source\PSoC5/LCD.c ****     LCD_OE=oe; //restore output enable
  85              		.loc 1 46 0
  86 0050 054B     		ldr	r3, .L6+8
  87 0052 1C70     		strb	r4, [r3]
  47:.\Generated_Source\PSoC5/LCD.c ****     LCD_CS_Write(cs); //restore initial chip select
  88              		.loc 1 47 0
  89 0054 2846     		mov	r0, r5
  90 0056 FFF7FEFF 		bl	CS_Write
  91              	.LVL5:
  92 005a BDE8F081 		pop	{r4, r5, r6, r7, r8, pc}
  93              	.LVL6:
  94              	.L7:
  95 005e 00BF     		.align	2
  96              	.L6:
  97 0060 6D640040 		.word	1073767533
  98 0064 9A680040 		.word	1073768602
  99 0068 79640040 		.word	1073767545
 100              		.cfi_endproc
 101              	.LFE64:
 102              		.size	LCD_WriteReg, .-LCD_WriteReg
 103              		.section	.text.LCD_WriteArray,"ax",%progbits
 104              		.align	2
 105              		.global	LCD_WriteArray
 106              		.thumb
 107              		.thumb_func
 108              		.type	LCD_WriteArray, %function
 109              	LCD_WriteArray:
 110              	.LFB65:
  48:.\Generated_Source\PSoC5/LCD.c **** }
  49:.\Generated_Source\PSoC5/LCD.c **** 
  50:.\Generated_Source\PSoC5/LCD.c **** void LCD_WriteArray(uint8 reg,uint8 *values,uint8 n)
  51:.\Generated_Source\PSoC5/LCD.c **** {
 111              		.loc 1 51 0
 112              		.cfi_startproc
 113              		@ args = 0, pretend = 0, frame = 0
 114              		@ frame_needed = 0, uses_anonymous_args = 0
 115              	.LVL7:
 116 0000 2DE9F843 		push	{r3, r4, r5, r6, r7, r8, r9, lr}
 117              		.cfi_def_cfa_offset 32
 118              		.cfi_offset 3, -32
 119              		.cfi_offset 4, -28
 120              		.cfi_offset 5, -24
ARM GAS  C:\Users\Tim\AppData\Local\Temp\ccsF5WS1.s 			page 4


 121              		.cfi_offset 6, -20
 122              		.cfi_offset 7, -16
 123              		.cfi_offset 8, -12
 124              		.cfi_offset 9, -8
 125              		.cfi_offset 14, -4
 126 0004 8046     		mov	r8, r0
 127 0006 0F46     		mov	r7, r1
 128 0008 1646     		mov	r6, r2
  52:.\Generated_Source\PSoC5/LCD.c ****     uint8 cs=LCD_CS_Read(); //read intial state to restore afterwards
 129              		.loc 1 52 0
 130 000a FFF7FEFF 		bl	CS_Read
 131              	.LVL8:
 132 000e 0546     		mov	r5, r0
 133              	.LVL9:
  53:.\Generated_Source\PSoC5/LCD.c ****     uint8 oe=LCD_OE;
 134              		.loc 1 53 0
 135 0010 DFF86090 		ldr	r9, .L14+8
 136 0014 99F80040 		ldrb	r4, [r9]	@ zero_extendqisi2
 137 0018 E4B2     		uxtb	r4, r4
 138              	.LVL10:
  54:.\Generated_Source\PSoC5/LCD.c ****     LCD_CS_Write(3); //select LCD
 139              		.loc 1 54 0
 140 001a 0320     		movs	r0, #3
 141 001c FFF7FEFF 		bl	CS_Write
 142              	.LVL11:
  55:.\Generated_Source\PSoC5/LCD.c ****     LCD_OE=1; //enable data bus output
 143              		.loc 1 55 0
 144 0020 0123     		movs	r3, #1
 145 0022 89F80030 		strb	r3, [r9]
 146              	.L9:
  56:.\Generated_Source\PSoC5/LCD.c ****     
  57:.\Generated_Source\PSoC5/LCD.c ****     while(!LCD_Ready);
 147              		.loc 1 57 0 discriminator 1
 148 0026 114B     		ldr	r3, .L14
 149 0028 1B78     		ldrb	r3, [r3]	@ zero_extendqisi2
 150 002a 13F0010F 		tst	r3, #1
 151 002e FAD0     		beq	.L9
  58:.\Generated_Source\PSoC5/LCD.c ****     LCD_Command(reg);
 152              		.loc 1 58 0
 153 0030 48F48078 		orr	r8, r8, #256
 154 0034 0E4B     		ldr	r3, .L14+4
 155 0036 A3F80080 		strh	r8, [r3]	@ movhi
 156              	.LVL12:
  59:.\Generated_Source\PSoC5/LCD.c ****     int i;
  60:.\Generated_Source\PSoC5/LCD.c ****     for(i=0;i<n;i++)
 157              		.loc 1 60 0
 158 003a 0022     		movs	r2, #0
 159 003c 08E0     		b	.L10
 160              	.LVL13:
 161              	.L11:
  61:.\Generated_Source\PSoC5/LCD.c ****     {
  62:.\Generated_Source\PSoC5/LCD.c ****         while(!LCD_Ready);
 162              		.loc 1 62 0 discriminator 1
 163 003e 0B4B     		ldr	r3, .L14
 164 0040 1B78     		ldrb	r3, [r3]	@ zero_extendqisi2
 165 0042 13F0010F 		tst	r3, #1
 166 0046 FAD0     		beq	.L11
ARM GAS  C:\Users\Tim\AppData\Local\Temp\ccsF5WS1.s 			page 5


  63:.\Generated_Source\PSoC5/LCD.c ****         LCD_Data(values[i]);
 167              		.loc 1 63 0 discriminator 2
 168 0048 B95C     		ldrb	r1, [r7, r2]	@ zero_extendqisi2
 169 004a 094B     		ldr	r3, .L14+4
 170 004c 1980     		strh	r1, [r3]	@ movhi
  60:.\Generated_Source\PSoC5/LCD.c ****     {
 171              		.loc 1 60 0 discriminator 2
 172 004e 0132     		adds	r2, r2, #1
 173              	.LVL14:
 174              	.L10:
  60:.\Generated_Source\PSoC5/LCD.c ****     {
 175              		.loc 1 60 0 is_stmt 0 discriminator 1
 176 0050 9642     		cmp	r6, r2
 177 0052 F4DC     		bgt	.L11
 178              	.L12:
  64:.\Generated_Source\PSoC5/LCD.c ****     }
  65:.\Generated_Source\PSoC5/LCD.c ****     while(!LCD_Empty);
 179              		.loc 1 65 0 is_stmt 1 discriminator 1
 180 0054 054B     		ldr	r3, .L14
 181 0056 1B78     		ldrb	r3, [r3]	@ zero_extendqisi2
 182 0058 13F0020F 		tst	r3, #2
 183 005c FAD0     		beq	.L12
  66:.\Generated_Source\PSoC5/LCD.c ****     
  67:.\Generated_Source\PSoC5/LCD.c ****     LCD_OE=oe; //restore output enable
 184              		.loc 1 67 0
 185 005e 054B     		ldr	r3, .L14+8
 186 0060 1C70     		strb	r4, [r3]
  68:.\Generated_Source\PSoC5/LCD.c ****     LCD_CS_Write(cs); //restore initial chip select
 187              		.loc 1 68 0
 188 0062 2846     		mov	r0, r5
 189 0064 FFF7FEFF 		bl	CS_Write
 190              	.LVL15:
 191 0068 BDE8F883 		pop	{r3, r4, r5, r6, r7, r8, r9, pc}
 192              	.LVL16:
 193              	.L15:
 194              		.align	2
 195              	.L14:
 196 006c 6D640040 		.word	1073767533
 197 0070 9A680040 		.word	1073768602
 198 0074 79640040 		.word	1073767545
 199              		.cfi_endproc
 200              	.LFE65:
 201              		.size	LCD_WriteArray, .-LCD_WriteArray
 202              		.section	.text.LCD_Start,"ax",%progbits
 203              		.align	2
 204              		.global	LCD_Start
 205              		.thumb
 206              		.thumb_func
 207              		.type	LCD_Start, %function
 208              	LCD_Start:
 209              	.LFB63:
  10:.\Generated_Source\PSoC5/LCD.c ****     uint8 cs=LCD_CS_Read(); //read intial state to restore afterwards
 210              		.loc 1 10 0
 211              		.cfi_startproc
 212              		@ args = 0, pretend = 0, frame = 32
 213              		@ frame_needed = 0, uses_anonymous_args = 0
 214 0000 F0B5     		push	{r4, r5, r6, r7, lr}
ARM GAS  C:\Users\Tim\AppData\Local\Temp\ccsF5WS1.s 			page 6


 215              		.cfi_def_cfa_offset 20
 216              		.cfi_offset 4, -20
 217              		.cfi_offset 5, -16
 218              		.cfi_offset 6, -12
 219              		.cfi_offset 7, -8
 220              		.cfi_offset 14, -4
 221 0002 89B0     		sub	sp, sp, #36
 222              		.cfi_def_cfa_offset 56
  11:.\Generated_Source\PSoC5/LCD.c ****     uint8 oe=LCD_OE;
 223              		.loc 1 11 0
 224 0004 FFF7FEFF 		bl	CS_Read
 225              	.LVL17:
 226 0008 0746     		mov	r7, r0
 227              	.LVL18:
  12:.\Generated_Source\PSoC5/LCD.c ****     LCD_CS_Write(3); //select LCD
 228              		.loc 1 12 0
 229 000a 204D     		ldr	r5, .L18
 230 000c 2E78     		ldrb	r6, [r5]	@ zero_extendqisi2
 231 000e F6B2     		uxtb	r6, r6
 232              	.LVL19:
  13:.\Generated_Source\PSoC5/LCD.c ****     LCD_OE=1; //enable data bus output
 233              		.loc 1 13 0
 234 0010 0320     		movs	r0, #3
 235 0012 FFF7FEFF 		bl	CS_Write
 236              	.LVL20:
  14:.\Generated_Source\PSoC5/LCD.c ****     
 237              		.loc 1 14 0
 238 0016 0123     		movs	r3, #1
 239 0018 2B70     		strb	r3, [r5]
  16:.\Generated_Source\PSoC5/LCD.c ****     CyDelay(5);
 240              		.loc 1 16 0
 241 001a 1D4C     		ldr	r4, .L18+4
 242 001c 40F20113 		movw	r3, #257
 243 0020 2380     		strh	r3, [r4]	@ movhi
  17:.\Generated_Source\PSoC5/LCD.c ****     LCD_Command(0x11); //take out of sleep
 244              		.loc 1 17 0
 245 0022 0520     		movs	r0, #5
 246 0024 FFF7FEFF 		bl	CyDelay
 247              	.LVL21:
  18:.\Generated_Source\PSoC5/LCD.c ****     CyDelay(100);
 248              		.loc 1 18 0
 249 0028 40F21113 		movw	r3, #273
 250 002c 2380     		strh	r3, [r4]	@ movhi
  19:.\Generated_Source\PSoC5/LCD.c ****     LCD_Command(0x29); //turn display on
 251              		.loc 1 19 0
 252 002e 6420     		movs	r0, #100
 253 0030 FFF7FEFF 		bl	CyDelay
 254              	.LVL22:
  20:.\Generated_Source\PSoC5/LCD.c ****     LCD_WriteReg(0x36,0xe8); //flip image horizontally and vertically; swap rows/columns; set to BG
 255              		.loc 1 20 0
 256 0034 40F22913 		movw	r3, #297
 257 0038 2380     		strh	r3, [r4]	@ movhi
  21:.\Generated_Source\PSoC5/LCD.c ****     
 258              		.loc 1 21 0
 259 003a 3620     		movs	r0, #54
 260 003c E821     		movs	r1, #232
 261 003e FFF7FEFF 		bl	LCD_WriteReg
ARM GAS  C:\Users\Tim\AppData\Local\Temp\ccsF5WS1.s 			page 7


 262              	.LVL23:
  24:.\Generated_Source\PSoC5/LCD.c ****     uint8 gamma_n[]={0x00,0x0E,0x14,0x03,0x11,0x07,0x31,0xC1,0x48,0x08,0x0F,0x0C,0x31,0x36,0x0F};
 263              		.loc 1 24 0
 264 0042 144B     		ldr	r3, .L18+8
 265 0044 04AC     		add	r4, sp, #16
 266 0046 1868     		ldr	r0, [r3]	@ unaligned
 267 0048 5968     		ldr	r1, [r3, #4]	@ unaligned
 268 004a 9A68     		ldr	r2, [r3, #8]	@ unaligned
 269 004c 07C4     		stmia	r4!, {r0, r1, r2}
 270 004e 9989     		ldrh	r1, [r3, #12]	@ unaligned
 271 0050 9A7B     		ldrb	r2, [r3, #14]	@ zero_extendqisi2
 272 0052 2180     		strh	r1, [r4]	@ unaligned
 273 0054 A270     		strb	r2, [r4, #2]
  25:.\Generated_Source\PSoC5/LCD.c ****     LCD_WriteArray(0xe0,gamma_p,sizeof gamma_p);
 274              		.loc 1 25 0
 275 0056 6C46     		mov	r4, sp
 276 0058 53F8100F 		ldr	r0, [r3, #16]!	@ unaligned
 277 005c 5968     		ldr	r1, [r3, #4]	@ unaligned
 278 005e 9A68     		ldr	r2, [r3, #8]	@ unaligned
 279 0060 07C4     		stmia	r4!, {r0, r1, r2}
 280 0062 9A89     		ldrh	r2, [r3, #12]	@ unaligned
 281 0064 9B7B     		ldrb	r3, [r3, #14]	@ zero_extendqisi2
 282 0066 2280     		strh	r2, [r4]	@ unaligned
 283 0068 A370     		strb	r3, [r4, #2]
  26:.\Generated_Source\PSoC5/LCD.c ****     LCD_WriteArray(0xe1,gamma_n,sizeof gamma_n);
 284              		.loc 1 26 0
 285 006a E020     		movs	r0, #224
 286 006c 04A9     		add	r1, sp, #16
 287 006e 0F22     		movs	r2, #15
 288 0070 FFF7FEFF 		bl	LCD_WriteArray
 289              	.LVL24:
  27:.\Generated_Source\PSoC5/LCD.c ****     
 290              		.loc 1 27 0
 291 0074 E120     		movs	r0, #225
 292 0076 6946     		mov	r1, sp
 293 0078 0F22     		movs	r2, #15
 294 007a FFF7FEFF 		bl	LCD_WriteArray
 295              	.LVL25:
  29:.\Generated_Source\PSoC5/LCD.c ****     LCD_CS_Write(cs); //restore initial chip select
 296              		.loc 1 29 0
 297 007e 2E70     		strb	r6, [r5]
  30:.\Generated_Source\PSoC5/LCD.c **** }
 298              		.loc 1 30 0
 299 0080 3846     		mov	r0, r7
 300 0082 FFF7FEFF 		bl	CS_Write
 301              	.LVL26:
  31:.\Generated_Source\PSoC5/LCD.c **** 
 302              		.loc 1 31 0
 303 0086 09B0     		add	sp, sp, #36
 304              		.cfi_def_cfa_offset 20
 305              		@ sp needed
 306 0088 F0BD     		pop	{r4, r5, r6, r7, pc}
 307              	.LVL27:
 308              	.L19:
 309 008a 00BF     		.align	2
 310              	.L18:
 311 008c 79640040 		.word	1073767545
ARM GAS  C:\Users\Tim\AppData\Local\Temp\ccsF5WS1.s 			page 8


 312 0090 9A680040 		.word	1073768602
 313 0094 00000000 		.word	.LANCHOR0
 314              		.cfi_endproc
 315              	.LFE63:
 316              		.size	LCD_Start, .-LCD_Start
 317              		.section	.text.LCD_SetWindow,"ax",%progbits
 318              		.align	2
 319              		.global	LCD_SetWindow
 320              		.thumb
 321              		.thumb_func
 322              		.type	LCD_SetWindow, %function
 323              	LCD_SetWindow:
 324              	.LFB66:
  69:.\Generated_Source\PSoC5/LCD.c **** }
  70:.\Generated_Source\PSoC5/LCD.c **** 
  71:.\Generated_Source\PSoC5/LCD.c **** void LCD_SetWindow(uint16 col_start,uint16 row_start,uint16 col_end,uint16 row_end)
  72:.\Generated_Source\PSoC5/LCD.c **** {
 325              		.loc 1 72 0
 326              		.cfi_startproc
 327              		@ args = 0, pretend = 0, frame = 8
 328              		@ frame_needed = 0, uses_anonymous_args = 0
 329              	.LVL28:
 330 0000 10B5     		push	{r4, lr}
 331              		.cfi_def_cfa_offset 8
 332              		.cfi_offset 4, -8
 333              		.cfi_offset 14, -4
 334 0002 82B0     		sub	sp, sp, #8
 335              		.cfi_def_cfa_offset 16
  73:.\Generated_Source\PSoC5/LCD.c ****     uint8 cols[]={col_start>>8,col_start,col_end>>8,col_end}; //LCD uses big endian words
 336              		.loc 1 73 0
 337 0004 040A     		lsrs	r4, r0, #8
 338 0006 8DF80440 		strb	r4, [sp, #4]
 339 000a 8DF80500 		strb	r0, [sp, #5]
 340 000e 100A     		lsrs	r0, r2, #8
 341              	.LVL29:
 342 0010 8DF80600 		strb	r0, [sp, #6]
 343 0014 8DF80720 		strb	r2, [sp, #7]
  74:.\Generated_Source\PSoC5/LCD.c ****     uint8 rows[]={row_start>>8,row_start,row_end>>8,row_end};
 344              		.loc 1 74 0
 345 0018 0A0A     		lsrs	r2, r1, #8
 346              	.LVL30:
 347 001a 8DF80020 		strb	r2, [sp]
 348 001e 8DF80110 		strb	r1, [sp, #1]
 349 0022 1A0A     		lsrs	r2, r3, #8
 350 0024 8DF80220 		strb	r2, [sp, #2]
 351 0028 8DF80330 		strb	r3, [sp, #3]
  75:.\Generated_Source\PSoC5/LCD.c ****     LCD_WriteArray(0x2a,cols,4);
 352              		.loc 1 75 0
 353 002c 2A20     		movs	r0, #42
 354 002e 01A9     		add	r1, sp, #4
 355              	.LVL31:
 356 0030 0422     		movs	r2, #4
 357 0032 FFF7FEFF 		bl	LCD_WriteArray
 358              	.LVL32:
  76:.\Generated_Source\PSoC5/LCD.c ****     LCD_WriteArray(0x2b,rows,4);
 359              		.loc 1 76 0
 360 0036 2B20     		movs	r0, #43
ARM GAS  C:\Users\Tim\AppData\Local\Temp\ccsF5WS1.s 			page 9


 361 0038 6946     		mov	r1, sp
 362 003a 0422     		movs	r2, #4
 363 003c FFF7FEFF 		bl	LCD_WriteArray
 364              	.LVL33:
  77:.\Generated_Source\PSoC5/LCD.c **** }
 365              		.loc 1 77 0
 366 0040 02B0     		add	sp, sp, #8
 367              		.cfi_def_cfa_offset 8
 368              		@ sp needed
 369 0042 10BD     		pop	{r4, pc}
 370              		.cfi_endproc
 371              	.LFE66:
 372              		.size	LCD_SetWindow, .-LCD_SetWindow
 373              		.section	.text.LCD_SetWindowRead,"ax",%progbits
 374              		.align	2
 375              		.global	LCD_SetWindowRead
 376              		.thumb
 377              		.thumb_func
 378              		.type	LCD_SetWindowRead, %function
 379              	LCD_SetWindowRead:
 380              	.LFB67:
  78:.\Generated_Source\PSoC5/LCD.c **** 
  79:.\Generated_Source\PSoC5/LCD.c **** void LCD_SetWindowRead(uint16 col_start,uint16 row_start,uint16 col_end,uint16 row_end)
  80:.\Generated_Source\PSoC5/LCD.c **** {
 381              		.loc 1 80 0
 382              		.cfi_startproc
 383              		@ args = 0, pretend = 0, frame = 0
 384              		@ frame_needed = 0, uses_anonymous_args = 0
 385              	.LVL34:
 386 0000 F8B5     		push	{r3, r4, r5, r6, r7, lr}
 387              		.cfi_def_cfa_offset 24
 388              		.cfi_offset 3, -24
 389              		.cfi_offset 4, -20
 390              		.cfi_offset 5, -16
 391              		.cfi_offset 6, -12
 392              		.cfi_offset 7, -8
 393              		.cfi_offset 14, -4
 394 0002 0746     		mov	r7, r0
 395 0004 0E46     		mov	r6, r1
 396 0006 1546     		mov	r5, r2
 397 0008 1C46     		mov	r4, r3
  81:.\Generated_Source\PSoC5/LCD.c ****     LCD_CS_Write(3); //select LCD
 398              		.loc 1 81 0
 399 000a 0320     		movs	r0, #3
 400              	.LVL35:
 401 000c FFF7FEFF 		bl	CS_Write
 402              	.LVL36:
  82:.\Generated_Source\PSoC5/LCD.c ****     LCD_OE=1; //enable data bus output
 403              		.loc 1 82 0
 404 0010 0122     		movs	r2, #1
 405 0012 104B     		ldr	r3, .L25
 406 0014 1A70     		strb	r2, [r3]
  83:.\Generated_Source\PSoC5/LCD.c ****     
  84:.\Generated_Source\PSoC5/LCD.c ****     LCD_SetWindow(col_start,row_start,col_end,row_end);
 407              		.loc 1 84 0
 408 0016 3846     		mov	r0, r7
 409 0018 3146     		mov	r1, r6
ARM GAS  C:\Users\Tim\AppData\Local\Temp\ccsF5WS1.s 			page 10


 410 001a 2A46     		mov	r2, r5
 411 001c 2346     		mov	r3, r4
 412 001e FFF7FEFF 		bl	LCD_SetWindow
 413              	.LVL37:
  85:.\Generated_Source\PSoC5/LCD.c ****     LCD_Command(0x2e);
 414              		.loc 1 85 0
 415 0022 4FF49772 		mov	r2, #302
 416 0026 0C4B     		ldr	r3, .L25+4
 417 0028 1A80     		strh	r2, [r3]	@ movhi
 418              	.L23:
  86:.\Generated_Source\PSoC5/LCD.c ****     while(!LCD_Empty); //wait for buffer to empty before turning off output
 419              		.loc 1 86 0 discriminator 1
 420 002a 0C4B     		ldr	r3, .L25+8
 421 002c 1B78     		ldrb	r3, [r3]	@ zero_extendqisi2
 422 002e 13F0020F 		tst	r3, #2
 423 0032 FAD0     		beq	.L23
  87:.\Generated_Source\PSoC5/LCD.c ****     LCD_OE=0; //disable drivers on output bus
 424              		.loc 1 87 0
 425 0034 0020     		movs	r0, #0
 426 0036 074B     		ldr	r3, .L25
 427 0038 1870     		strb	r0, [r3]
  88:.\Generated_Source\PSoC5/LCD.c ****     
  89:.\Generated_Source\PSoC5/LCD.c ****     //dummy read
  90:.\Generated_Source\PSoC5/LCD.c ****     LCD_LCD_RD_Write(0);
 428              		.loc 1 90 0
 429 003a FFF7FEFF 		bl	LCD_RD_Write
 430              	.LVL38:
  91:.\Generated_Source\PSoC5/LCD.c ****     CyDelayCycles(BCLK__BUS_CLK__MHZ/3); //delay for about 333ns (actually 355ns is required, but o
 431              		.loc 1 91 0
 432 003e 1820     		movs	r0, #24
 433 0040 FFF7FEFF 		bl	CyDelayCycles
 434              	.LVL39:
  92:.\Generated_Source\PSoC5/LCD.c ****     LCD_LCD_RD_Write(1);
 435              		.loc 1 92 0
 436 0044 0120     		movs	r0, #1
 437 0046 FFF7FEFF 		bl	LCD_RD_Write
 438              	.LVL40:
  93:.\Generated_Source\PSoC5/LCD.c ****     CyDelayCycles(BCLK__BUS_CLK__MHZ/11); //delay for about 90ns
 439              		.loc 1 93 0
 440 004a 0620     		movs	r0, #6
 441 004c FFF7FEFF 		bl	CyDelayCycles
 442              	.LVL41:
 443 0050 F8BD     		pop	{r3, r4, r5, r6, r7, pc}
 444              	.L26:
 445 0052 00BF     		.align	2
 446              	.L25:
 447 0054 79640040 		.word	1073767545
 448 0058 9A680040 		.word	1073768602
 449 005c 6D640040 		.word	1073767533
 450              		.cfi_endproc
 451              	.LFE67:
 452              		.size	LCD_SetWindowRead, .-LCD_SetWindowRead
 453              		.section	.text.LCD_SetWindowWrite,"ax",%progbits
 454              		.align	2
 455              		.global	LCD_SetWindowWrite
 456              		.thumb
 457              		.thumb_func
ARM GAS  C:\Users\Tim\AppData\Local\Temp\ccsF5WS1.s 			page 11


 458              		.type	LCD_SetWindowWrite, %function
 459              	LCD_SetWindowWrite:
 460              	.LFB68:
  94:.\Generated_Source\PSoC5/LCD.c **** }
  95:.\Generated_Source\PSoC5/LCD.c **** 
  96:.\Generated_Source\PSoC5/LCD.c **** void LCD_SetWindowWrite(uint16 col_start,uint16 row_start,uint16 col_end,uint16 row_end)
  97:.\Generated_Source\PSoC5/LCD.c **** {
 461              		.loc 1 97 0
 462              		.cfi_startproc
 463              		@ args = 0, pretend = 0, frame = 0
 464              		@ frame_needed = 0, uses_anonymous_args = 0
 465              	.LVL42:
 466 0000 F8B5     		push	{r3, r4, r5, r6, r7, lr}
 467              		.cfi_def_cfa_offset 24
 468              		.cfi_offset 3, -24
 469              		.cfi_offset 4, -20
 470              		.cfi_offset 5, -16
 471              		.cfi_offset 6, -12
 472              		.cfi_offset 7, -8
 473              		.cfi_offset 14, -4
 474 0002 0746     		mov	r7, r0
 475 0004 0E46     		mov	r6, r1
 476 0006 1546     		mov	r5, r2
 477 0008 1C46     		mov	r4, r3
  98:.\Generated_Source\PSoC5/LCD.c ****     LCD_CS_Write(3); //select LCD
 478              		.loc 1 98 0
 479 000a 0320     		movs	r0, #3
 480              	.LVL43:
 481 000c FFF7FEFF 		bl	CS_Write
 482              	.LVL44:
  99:.\Generated_Source\PSoC5/LCD.c ****     LCD_OE=1; //enable data bus output
 483              		.loc 1 99 0
 484 0010 0122     		movs	r2, #1
 485 0012 064B     		ldr	r3, .L29
 486 0014 1A70     		strb	r2, [r3]
 100:.\Generated_Source\PSoC5/LCD.c **** 
 101:.\Generated_Source\PSoC5/LCD.c ****     LCD_SetWindow(col_start,row_start,col_end,row_end);
 487              		.loc 1 101 0
 488 0016 3846     		mov	r0, r7
 489 0018 3146     		mov	r1, r6
 490 001a 2A46     		mov	r2, r5
 491 001c 2346     		mov	r3, r4
 492 001e FFF7FEFF 		bl	LCD_SetWindow
 493              	.LVL45:
 102:.\Generated_Source\PSoC5/LCD.c ****     LCD_Command(0x2c);
 494              		.loc 1 102 0
 495 0022 4FF49672 		mov	r2, #300
 496 0026 024B     		ldr	r3, .L29+4
 497 0028 1A80     		strh	r2, [r3]	@ movhi
 498 002a F8BD     		pop	{r3, r4, r5, r6, r7, pc}
 499              	.L30:
 500              		.align	2
 501              	.L29:
 502 002c 79640040 		.word	1073767545
 503 0030 9A680040 		.word	1073768602
 504              		.cfi_endproc
 505              	.LFE68:
ARM GAS  C:\Users\Tim\AppData\Local\Temp\ccsF5WS1.s 			page 12


 506              		.size	LCD_SetWindowWrite, .-LCD_SetWindowWrite
 507              		.section	.text.LCD_ReadPixel,"ax",%progbits
 508              		.align	2
 509              		.global	LCD_ReadPixel
 510              		.thumb
 511              		.thumb_func
 512              		.type	LCD_ReadPixel, %function
 513              	LCD_ReadPixel:
 514              	.LFB69:
 103:.\Generated_Source\PSoC5/LCD.c **** }
 104:.\Generated_Source\PSoC5/LCD.c **** 
 105:.\Generated_Source\PSoC5/LCD.c **** pixel LCD_ReadPixel()
 106:.\Generated_Source\PSoC5/LCD.c **** {
 515              		.loc 1 106 0
 516              		.cfi_startproc
 517              		@ args = 0, pretend = 0, frame = 8
 518              		@ frame_needed = 0, uses_anonymous_args = 0
 519 0000 10B5     		push	{r4, lr}
 520              		.cfi_def_cfa_offset 8
 521              		.cfi_offset 4, -8
 522              		.cfi_offset 14, -4
 523 0002 82B0     		sub	sp, sp, #8
 524              		.cfi_def_cfa_offset 16
 107:.\Generated_Source\PSoC5/LCD.c ****     pixel p;
 108:.\Generated_Source\PSoC5/LCD.c ****     LCD_LCD_RD_Write(0);
 525              		.loc 1 108 0
 526 0004 0020     		movs	r0, #0
 527 0006 FFF7FEFF 		bl	LCD_RD_Write
 528              	.LVL46:
 109:.\Generated_Source\PSoC5/LCD.c ****     CyDelayCycles(BCLK__BUS_CLK__MHZ/3); //delay for about 333ns (actually 355ns is required, but o
 529              		.loc 1 109 0
 530 000a 1820     		movs	r0, #24
 531 000c FFF7FEFF 		bl	CyDelayCycles
 532              	.LVL47:
 110:.\Generated_Source\PSoC5/LCD.c ****     p.R=LCD_D_PS;
 533              		.loc 1 110 0
 534 0010 1B4C     		ldr	r4, .L33
 535 0012 2378     		ldrb	r3, [r4]	@ zero_extendqisi2
 536 0014 8DF80030 		strb	r3, [sp]
 111:.\Generated_Source\PSoC5/LCD.c ****     LCD_LCD_RD_Write(1);
 537              		.loc 1 111 0
 538 0018 0120     		movs	r0, #1
 539 001a FFF7FEFF 		bl	LCD_RD_Write
 540              	.LVL48:
 112:.\Generated_Source\PSoC5/LCD.c ****     CyDelayCycles(BCLK__BUS_CLK__MHZ/11); //delay for about 90ns
 541              		.loc 1 112 0
 542 001e 0620     		movs	r0, #6
 543 0020 FFF7FEFF 		bl	CyDelayCycles
 544              	.LVL49:
 113:.\Generated_Source\PSoC5/LCD.c ****     LCD_LCD_RD_Write(0);
 545              		.loc 1 113 0
 546 0024 0020     		movs	r0, #0
 547 0026 FFF7FEFF 		bl	LCD_RD_Write
 548              	.LVL50:
 114:.\Generated_Source\PSoC5/LCD.c ****     CyDelayCycles(BCLK__BUS_CLK__MHZ/3); //delay for about 333ns (actually 355ns is required, but o
 549              		.loc 1 114 0
 550 002a 1820     		movs	r0, #24
ARM GAS  C:\Users\Tim\AppData\Local\Temp\ccsF5WS1.s 			page 13


 551 002c FFF7FEFF 		bl	CyDelayCycles
 552              	.LVL51:
 115:.\Generated_Source\PSoC5/LCD.c ****     p.G=LCD_D_PS;
 553              		.loc 1 115 0
 554 0030 2378     		ldrb	r3, [r4]	@ zero_extendqisi2
 555 0032 8DF80130 		strb	r3, [sp, #1]
 116:.\Generated_Source\PSoC5/LCD.c ****     LCD_LCD_RD_Write(1);
 556              		.loc 1 116 0
 557 0036 0120     		movs	r0, #1
 558 0038 FFF7FEFF 		bl	LCD_RD_Write
 559              	.LVL52:
 117:.\Generated_Source\PSoC5/LCD.c ****     CyDelayCycles(BCLK__BUS_CLK__MHZ/11); //delay for about 90ns
 560              		.loc 1 117 0
 561 003c 0620     		movs	r0, #6
 562 003e FFF7FEFF 		bl	CyDelayCycles
 563              	.LVL53:
 118:.\Generated_Source\PSoC5/LCD.c ****     LCD_LCD_RD_Write(0);
 564              		.loc 1 118 0
 565 0042 0020     		movs	r0, #0
 566 0044 FFF7FEFF 		bl	LCD_RD_Write
 567              	.LVL54:
 119:.\Generated_Source\PSoC5/LCD.c ****     CyDelayCycles(BCLK__BUS_CLK__MHZ/3); //delay for about 333ns (actually 355ns is required, but o
 568              		.loc 1 119 0
 569 0048 1820     		movs	r0, #24
 570 004a FFF7FEFF 		bl	CyDelayCycles
 571              	.LVL55:
 120:.\Generated_Source\PSoC5/LCD.c ****     p.B=LCD_D_PS;
 572              		.loc 1 120 0
 573 004e 2378     		ldrb	r3, [r4]	@ zero_extendqisi2
 574 0050 8DF80230 		strb	r3, [sp, #2]
 121:.\Generated_Source\PSoC5/LCD.c ****     LCD_LCD_RD_Write(1);
 575              		.loc 1 121 0
 576 0054 0120     		movs	r0, #1
 577 0056 FFF7FEFF 		bl	LCD_RD_Write
 578              	.LVL56:
 122:.\Generated_Source\PSoC5/LCD.c ****     CyDelayCycles(BCLK__BUS_CLK__MHZ/11); //delay for about 90ns
 579              		.loc 1 122 0
 580 005a 0620     		movs	r0, #6
 581 005c FFF7FEFF 		bl	CyDelayCycles
 582              	.LVL57:
 123:.\Generated_Source\PSoC5/LCD.c ****     return p;
 583              		.loc 1 123 0
 584 0060 009B     		ldr	r3, [sp]
 585 0062 0020     		movs	r0, #0
 586 0064 DAB2     		uxtb	r2, r3
 587 0066 62F30700 		bfi	r0, r2, #0, #8
 588 006a C3F30722 		ubfx	r2, r3, #8, #8
 589 006e 62F30F20 		bfi	r0, r2, #8, #8
 590 0072 C3F30743 		ubfx	r3, r3, #16, #8
 591 0076 63F31740 		bfi	r0, r3, #16, #8
 124:.\Generated_Source\PSoC5/LCD.c **** }
 592              		.loc 1 124 0
 593 007a 02B0     		add	sp, sp, #8
 594              		.cfi_def_cfa_offset 8
 595              		@ sp needed
 596 007c 10BD     		pop	{r4, pc}
 597              	.L34:
ARM GAS  C:\Users\Tim\AppData\Local\Temp\ccsF5WS1.s 			page 14


 598 007e 00BF     		.align	2
 599              	.L33:
 600 0080 21510040 		.word	1073762593
 601              		.cfi_endproc
 602              	.LFE69:
 603              		.size	LCD_ReadPixel, .-LCD_ReadPixel
 604              		.section	.text.LCD_WritePixel,"ax",%progbits
 605              		.align	2
 606              		.global	LCD_WritePixel
 607              		.thumb
 608              		.thumb_func
 609              		.type	LCD_WritePixel, %function
 610              	LCD_WritePixel:
 611              	.LFB70:
 125:.\Generated_Source\PSoC5/LCD.c **** 
 126:.\Generated_Source\PSoC5/LCD.c **** void LCD_WritePixel(pixel p)
 127:.\Generated_Source\PSoC5/LCD.c **** {
 612              		.loc 1 127 0
 613              		.cfi_startproc
 614              		@ args = 0, pretend = 0, frame = 8
 615              		@ frame_needed = 0, uses_anonymous_args = 0
 616              		@ link register save eliminated.
 617 0000 82B0     		sub	sp, sp, #8
 618              		.cfi_def_cfa_offset 8
 619 0002 0190     		str	r0, [sp, #4]
 620              	.L36:
 128:.\Generated_Source\PSoC5/LCD.c ****     while(!LCD_Empty);
 621              		.loc 1 128 0 discriminator 1
 622 0004 084B     		ldr	r3, .L38
 623 0006 1B78     		ldrb	r3, [r3]	@ zero_extendqisi2
 624 0008 13F0020F 		tst	r3, #2
 625 000c FAD0     		beq	.L36
 129:.\Generated_Source\PSoC5/LCD.c ****     LCD_Data(p.R);
 626              		.loc 1 129 0
 627 000e 9DF80420 		ldrb	r2, [sp, #4]	@ zero_extendqisi2
 628 0012 064B     		ldr	r3, .L38+4
 629 0014 1A80     		strh	r2, [r3]	@ movhi
 130:.\Generated_Source\PSoC5/LCD.c ****     LCD_Data(p.G);
 630              		.loc 1 130 0
 631 0016 9DF80520 		ldrb	r2, [sp, #5]	@ zero_extendqisi2
 632 001a 1A80     		strh	r2, [r3]	@ movhi
 131:.\Generated_Source\PSoC5/LCD.c ****     LCD_Data(p.B);
 633              		.loc 1 131 0
 634 001c 9DF80620 		ldrb	r2, [sp, #6]	@ zero_extendqisi2
 635 0020 1A80     		strh	r2, [r3]	@ movhi
 132:.\Generated_Source\PSoC5/LCD.c **** }
 636              		.loc 1 132 0
 637 0022 02B0     		add	sp, sp, #8
 638              		.cfi_def_cfa_offset 0
 639              		@ sp needed
 640 0024 7047     		bx	lr
 641              	.L39:
 642 0026 00BF     		.align	2
 643              	.L38:
 644 0028 6D640040 		.word	1073767533
 645 002c 9A680040 		.word	1073768602
 646              		.cfi_endproc
ARM GAS  C:\Users\Tim\AppData\Local\Temp\ccsF5WS1.s 			page 15


 647              	.LFE70:
 648              		.size	LCD_WritePixel, .-LCD_WritePixel
 649              		.section	.text.LCD_StopReadWrite,"ax",%progbits
 650              		.align	2
 651              		.global	LCD_StopReadWrite
 652              		.thumb
 653              		.thumb_func
 654              		.type	LCD_StopReadWrite, %function
 655              	LCD_StopReadWrite:
 656              	.LFB71:
 133:.\Generated_Source\PSoC5/LCD.c **** 
 134:.\Generated_Source\PSoC5/LCD.c **** void LCD_StopReadWrite()
 135:.\Generated_Source\PSoC5/LCD.c **** {
 657              		.loc 1 135 0
 658              		.cfi_startproc
 659              		@ args = 0, pretend = 0, frame = 0
 660              		@ frame_needed = 0, uses_anonymous_args = 0
 661              		@ link register save eliminated.
 136:.\Generated_Source\PSoC5/LCD.c ****     uint8 oe=LCD_OE;
 662              		.loc 1 136 0
 663 0000 084B     		ldr	r3, .L42
 664 0002 1A78     		ldrb	r2, [r3]	@ zero_extendqisi2
 665 0004 D2B2     		uxtb	r2, r2
 666              	.LVL58:
 137:.\Generated_Source\PSoC5/LCD.c ****     
 138:.\Generated_Source\PSoC5/LCD.c ****     LCD_OE=1;
 667              		.loc 1 138 0
 668 0006 0121     		movs	r1, #1
 669 0008 1970     		strb	r1, [r3]
 139:.\Generated_Source\PSoC5/LCD.c ****     LCD_Command(0);
 670              		.loc 1 139 0
 671 000a 4FF48071 		mov	r1, #256
 672 000e 03F22143 		addw	r3, r3, #1057
 673 0012 1980     		strh	r1, [r3]	@ movhi
 674              	.L41:
 140:.\Generated_Source\PSoC5/LCD.c ****     while(!LCD_Ready);
 675              		.loc 1 140 0 discriminator 1
 676 0014 044B     		ldr	r3, .L42+4
 677 0016 1B78     		ldrb	r3, [r3]	@ zero_extendqisi2
 678 0018 13F0010F 		tst	r3, #1
 679 001c FAD0     		beq	.L41
 141:.\Generated_Source\PSoC5/LCD.c ****     
 142:.\Generated_Source\PSoC5/LCD.c ****     LCD_OE=oe;
 680              		.loc 1 142 0
 681 001e 014B     		ldr	r3, .L42
 682 0020 1A70     		strb	r2, [r3]
 683 0022 7047     		bx	lr
 684              	.L43:
 685              		.align	2
 686              	.L42:
 687 0024 79640040 		.word	1073767545
 688 0028 6D640040 		.word	1073767533
 689              		.cfi_endproc
 690              	.LFE71:
 691              		.size	LCD_StopReadWrite, .-LCD_StopReadWrite
 692              		.comm	Camera_linebuffer,640,4
 693              		.section	.rodata
ARM GAS  C:\Users\Tim\AppData\Local\Temp\ccsF5WS1.s 			page 16


 694              		.align	2
 695              		.set	.LANCHOR0,. + 0
 696              	.LC0:
 697 0000 0F       		.byte	15
 698 0001 31       		.byte	49
 699 0002 2B       		.byte	43
 700 0003 0C       		.byte	12
 701 0004 0E       		.byte	14
 702 0005 08       		.byte	8
 703 0006 4E       		.byte	78
 704 0007 F1       		.byte	-15
 705 0008 37       		.byte	55
 706 0009 07       		.byte	7
 707 000a 10       		.byte	16
 708 000b 03       		.byte	3
 709 000c 0E       		.byte	14
 710 000d 09       		.byte	9
 711 000e 00       		.byte	0
 712 000f 00       		.space	1
 713              	.LC1:
 714 0010 00       		.byte	0
 715 0011 0E       		.byte	14
 716 0012 14       		.byte	20
 717 0013 03       		.byte	3
 718 0014 11       		.byte	17
 719 0015 07       		.byte	7
 720 0016 31       		.byte	49
 721 0017 C1       		.byte	-63
 722 0018 48       		.byte	72
 723 0019 08       		.byte	8
 724 001a 0F       		.byte	15
 725 001b 0C       		.byte	12
 726 001c 31       		.byte	49
 727 001d 36       		.byte	54
 728 001e 0F       		.byte	15
 729 001f 00       		.text
 730              	.Letext0:
 731              		.file 2 "c:\\program files (x86)\\cypress\\psoc creator\\3.3\\psoc creator\\import\\gnu\\arm\\4.9.
 732              		.file 3 "c:\\program files (x86)\\cypress\\psoc creator\\3.3\\psoc creator\\import\\gnu\\arm\\4.9.
 733              		.file 4 "Generated_Source\\PSoC5/cytypes.h"
 734              		.file 5 "Generated_Source\\PSoC5/LCD.h"
 735              		.file 6 "Generated_Source\\PSoC5/core_cm3.h"
 736              		.file 7 "Generated_Source\\PSoC5/Camera.h"
 737              		.file 8 "Generated_Source\\PSoC5/CS.h"
 738              		.file 9 "Generated_Source\\PSoC5/CyLib.h"
 739              		.file 10 "Generated_Source\\PSoC5/LCD_RD.h"