ARM GAS  C:\Users\Daniel\AppData\Local\Temp\cczS13bP.s 			page 1


   1              		.syntax unified
   2              		.cpu cortex-m3
   3              		.fpu softvfp
   4              		.eabi_attribute 20, 1
   5              		.eabi_attribute 21, 1
   6              		.eabi_attribute 23, 3
   7              		.eabi_attribute 24, 1
   8              		.eabi_attribute 25, 1
   9              		.eabi_attribute 26, 1
  10              		.eabi_attribute 30, 1
  11              		.eabi_attribute 34, 1
  12              		.eabi_attribute 18, 4
  13              		.thumb
  14              		.file	"lift_functions.c"
  15              		.text
  16              	.Ltext0:
  17              		.cfi_sections	.debug_frame
  18              		.section	.text.LiftInital,"ax",%progbits
  19              		.align	2
  20              		.global	LiftInital
  21              		.thumb
  22              		.thumb_func
  23              		.type	LiftInital, %function
  24              	LiftInital:
  25              	.LFB63:
  26              		.file 1 ".\\lift_functions.c"
   1:.\lift_functions.c **** /* ========================================
   2:.\lift_functions.c ****  *
   3:.\lift_functions.c ****  * Copyright YOUR COMPANY, THE YEAR
   4:.\lift_functions.c ****  * All Rights Reserved
   5:.\lift_functions.c ****  * UNPUBLISHED, LICENSED SOFTWARE.
   6:.\lift_functions.c ****  *
   7:.\lift_functions.c ****  * CONFIDENTIAL AND PROPRIETARY INFORMATION
   8:.\lift_functions.c ****  * WHICH IS THE PROPERTY OF your company.
   9:.\lift_functions.c ****  *
  10:.\lift_functions.c ****  * ========================================
  11:.\lift_functions.c **** */
  12:.\lift_functions.c **** #include <project.h>
  13:.\lift_functions.c **** #include "lift_functions.h"
  14:.\lift_functions.c **** int16 pucklvl =0x1270;
  15:.\lift_functions.c **** int16 groundlvl = -0x6fff;
  16:.\lift_functions.c **** 
  17:.\lift_functions.c **** void LiftInital(){
  27              		.loc 1 17 0
  28              		.cfi_startproc
  29              		@ args = 0, pretend = 0, frame = 0
  30              		@ frame_needed = 0, uses_anonymous_args = 0
  31 0000 08B5     		push	{r3, lr}
  32              		.cfi_def_cfa_offset 8
  33              		.cfi_offset 3, -8
  34              		.cfi_offset 14, -4
  18:.\lift_functions.c ****     Quad_3_Start();
  35              		.loc 1 18 0
  36 0002 FFF7FEFF 		bl	Quad_3_Start
  37              	.LVL0:
  19:.\lift_functions.c ****     CyDelay(10);
  38              		.loc 1 19 0
ARM GAS  C:\Users\Daniel\AppData\Local\Temp\cczS13bP.s 			page 2


  39 0006 0A20     		movs	r0, #10
  40 0008 FFF7FEFF 		bl	CyDelay
  41              	.LVL1:
  20:.\lift_functions.c ****     Quad_3_SetCounter(groundlvl);
  42              		.loc 1 20 0
  43 000c 024B     		ldr	r3, .L3
  44 000e B3F90000 		ldrsh	r0, [r3]
  45 0012 FFF7FEFF 		bl	Quad_3_SetCounter
  46              	.LVL2:
  47 0016 08BD     		pop	{r3, pc}
  48              	.L4:
  49              		.align	2
  50              	.L3:
  51 0018 00000000 		.word	.LANCHOR0
  52              		.cfi_endproc
  53              	.LFE63:
  54              		.size	LiftInital, .-LiftInital
  55              		.section	.text.LiftSetGround,"ax",%progbits
  56              		.align	2
  57              		.global	LiftSetGround
  58              		.thumb
  59              		.thumb_func
  60              		.type	LiftSetGround, %function
  61              	LiftSetGround:
  62              	.LFB64:
  21:.\lift_functions.c **** }
  22:.\lift_functions.c **** 
  23:.\lift_functions.c **** void LiftSetGround(){
  63              		.loc 1 23 0
  64              		.cfi_startproc
  65              		@ args = 0, pretend = 0, frame = 0
  66              		@ frame_needed = 0, uses_anonymous_args = 0
  67 0000 08B5     		push	{r3, lr}
  68              		.cfi_def_cfa_offset 8
  69              		.cfi_offset 3, -8
  70              		.cfi_offset 14, -4
  24:.\lift_functions.c ****     Quad_3_SetCounter(groundlvl);
  71              		.loc 1 24 0
  72 0002 034B     		ldr	r3, .L7
  73 0004 B3F90000 		ldrsh	r0, [r3]
  74 0008 FFF7FEFF 		bl	Quad_3_SetCounter
  75              	.LVL3:
  76 000c 08BD     		pop	{r3, pc}
  77              	.L8:
  78 000e 00BF     		.align	2
  79              	.L7:
  80 0010 00000000 		.word	.LANCHOR0
  81              		.cfi_endproc
  82              	.LFE64:
  83              		.size	LiftSetGround, .-LiftSetGround
  84              		.section	.text.LiftDownReset,"ax",%progbits
  85              		.align	2
  86              		.global	LiftDownReset
  87              		.thumb
  88              		.thumb_func
  89              		.type	LiftDownReset, %function
  90              	LiftDownReset:
ARM GAS  C:\Users\Daniel\AppData\Local\Temp\cczS13bP.s 			page 3


  91              	.LFB65:
  25:.\lift_functions.c **** }
  26:.\lift_functions.c **** 
  27:.\lift_functions.c **** void LiftDownReset(){
  92              		.loc 1 27 0
  93              		.cfi_startproc
  94              		@ args = 0, pretend = 0, frame = 0
  95              		@ frame_needed = 0, uses_anonymous_args = 0
  96 0000 08B5     		push	{r3, lr}
  97              		.cfi_def_cfa_offset 8
  98              		.cfi_offset 3, -8
  99              		.cfi_offset 14, -4
  28:.\lift_functions.c ****     LiftA_Write(1);
 100              		.loc 1 28 0
 101 0002 0120     		movs	r0, #1
 102 0004 FFF7FEFF 		bl	LiftA_Write
 103              	.LVL4:
  29:.\lift_functions.c ****     LiftB_Write(0);
 104              		.loc 1 29 0
 105 0008 0020     		movs	r0, #0
 106 000a FFF7FEFF 		bl	LiftB_Write
 107              	.LVL5:
  30:.\lift_functions.c ****     CyDelay(500);
 108              		.loc 1 30 0
 109 000e 4FF4FA70 		mov	r0, #500
 110 0012 FFF7FEFF 		bl	CyDelay
 111              	.LVL6:
  31:.\lift_functions.c ****     LiftA_Write(0);
 112              		.loc 1 31 0
 113 0016 0020     		movs	r0, #0
 114 0018 FFF7FEFF 		bl	LiftA_Write
 115              	.LVL7:
  32:.\lift_functions.c ****     LiftB_Write(0);
 116              		.loc 1 32 0
 117 001c 0020     		movs	r0, #0
 118 001e FFF7FEFF 		bl	LiftB_Write
 119              	.LVL8:
 120 0022 08BD     		pop	{r3, pc}
 121              		.cfi_endproc
 122              	.LFE65:
 123              		.size	LiftDownReset, .-LiftDownReset
 124              		.section	.text.LiftUpReset,"ax",%progbits
 125              		.align	2
 126              		.global	LiftUpReset
 127              		.thumb
 128              		.thumb_func
 129              		.type	LiftUpReset, %function
 130              	LiftUpReset:
 131              	.LFB66:
  33:.\lift_functions.c **** }
  34:.\lift_functions.c **** 
  35:.\lift_functions.c **** void LiftUpReset(){
 132              		.loc 1 35 0
 133              		.cfi_startproc
 134              		@ args = 0, pretend = 0, frame = 0
 135              		@ frame_needed = 0, uses_anonymous_args = 0
 136 0000 08B5     		push	{r3, lr}
ARM GAS  C:\Users\Daniel\AppData\Local\Temp\cczS13bP.s 			page 4


 137              		.cfi_def_cfa_offset 8
 138              		.cfi_offset 3, -8
 139              		.cfi_offset 14, -4
  36:.\lift_functions.c ****     LiftA_Write(0);
 140              		.loc 1 36 0
 141 0002 0020     		movs	r0, #0
 142 0004 FFF7FEFF 		bl	LiftA_Write
 143              	.LVL9:
  37:.\lift_functions.c ****     LiftB_Write(1);
 144              		.loc 1 37 0
 145 0008 0120     		movs	r0, #1
 146 000a FFF7FEFF 		bl	LiftB_Write
 147              	.LVL10:
  38:.\lift_functions.c ****     CyDelay(500);
 148              		.loc 1 38 0
 149 000e 4FF4FA70 		mov	r0, #500
 150 0012 FFF7FEFF 		bl	CyDelay
 151              	.LVL11:
  39:.\lift_functions.c ****     LiftB_Write(0);
 152              		.loc 1 39 0
 153 0016 0020     		movs	r0, #0
 154 0018 FFF7FEFF 		bl	LiftB_Write
 155              	.LVL12:
  40:.\lift_functions.c ****     LiftA_Write(0);
 156              		.loc 1 40 0
 157 001c 0020     		movs	r0, #0
 158 001e FFF7FEFF 		bl	LiftA_Write
 159              	.LVL13:
 160 0022 08BD     		pop	{r3, pc}
 161              		.cfi_endproc
 162              	.LFE66:
 163              		.size	LiftUpReset, .-LiftUpReset
 164              		.section	.text.LiftLv0,"ax",%progbits
 165              		.align	2
 166              		.global	LiftLv0
 167              		.thumb
 168              		.thumb_func
 169              		.type	LiftLv0, %function
 170              	LiftLv0:
 171              	.LFB67:
  41:.\lift_functions.c ****     
  42:.\lift_functions.c **** }
  43:.\lift_functions.c **** 
  44:.\lift_functions.c **** void LiftLv0(){
 172              		.loc 1 44 0
 173              		.cfi_startproc
 174              		@ args = 0, pretend = 0, frame = 0
 175              		@ frame_needed = 0, uses_anonymous_args = 0
 176 0000 08B5     		push	{r3, lr}
 177              		.cfi_def_cfa_offset 8
 178              		.cfi_offset 3, -8
 179              		.cfi_offset 14, -4
  45:.\lift_functions.c ****     
  46:.\lift_functions.c ****     if(Quad_3_GetCounter()>groundlvl){
 180              		.loc 1 46 0
 181 0002 FFF7FEFF 		bl	Quad_3_GetCounter
 182              	.LVL14:
ARM GAS  C:\Users\Daniel\AppData\Local\Temp\cczS13bP.s 			page 5


 183 0006 0E4B     		ldr	r3, .L18
 184 0008 B3F90030 		ldrsh	r3, [r3]
 185 000c 9842     		cmp	r0, r3
 186 000e 16DD     		ble	.L13
  47:.\lift_functions.c ****         LiftA_Write(1);
 187              		.loc 1 47 0
 188 0010 0120     		movs	r0, #1
 189 0012 FFF7FEFF 		bl	LiftA_Write
 190              	.LVL15:
  48:.\lift_functions.c ****         LiftB_Write(0);
 191              		.loc 1 48 0
 192 0016 0020     		movs	r0, #0
 193 0018 FFF7FEFF 		bl	LiftB_Write
 194              	.LVL16:
  49:.\lift_functions.c ****         while (Quad_3_GetCounter()>groundlvl){
 195              		.loc 1 49 0
 196 001c 02E0     		b	.L15
 197              	.L16:
  50:.\lift_functions.c ****         CyDelay(100);
 198              		.loc 1 50 0
 199 001e 6420     		movs	r0, #100
 200 0020 FFF7FEFF 		bl	CyDelay
 201              	.LVL17:
 202              	.L15:
  49:.\lift_functions.c ****         while (Quad_3_GetCounter()>groundlvl){
 203              		.loc 1 49 0
 204 0024 FFF7FEFF 		bl	Quad_3_GetCounter
 205              	.LVL18:
 206 0028 054B     		ldr	r3, .L18
 207 002a B3F90030 		ldrsh	r3, [r3]
 208 002e 9842     		cmp	r0, r3
 209 0030 F5DC     		bgt	.L16
  51:.\lift_functions.c ****         }
  52:.\lift_functions.c ****         LiftA_Write(0);
 210              		.loc 1 52 0
 211 0032 0020     		movs	r0, #0
 212 0034 FFF7FEFF 		bl	LiftA_Write
 213              	.LVL19:
  53:.\lift_functions.c ****         LiftB_Write(0);
 214              		.loc 1 53 0
 215 0038 0020     		movs	r0, #0
 216 003a FFF7FEFF 		bl	LiftB_Write
 217              	.LVL20:
 218              	.L13:
 219 003e 08BD     		pop	{r3, pc}
 220              	.L19:
 221              		.align	2
 222              	.L18:
 223 0040 00000000 		.word	.LANCHOR0
 224              		.cfi_endproc
 225              	.LFE67:
 226              		.size	LiftLv0, .-LiftLv0
 227              		.section	.text.LiftLvN,"ax",%progbits
 228              		.align	2
 229              		.global	LiftLvN
 230              		.thumb
 231              		.thumb_func
ARM GAS  C:\Users\Daniel\AppData\Local\Temp\cczS13bP.s 			page 6


 232              		.type	LiftLvN, %function
 233              	LiftLvN:
 234              	.LFB73:
  54:.\lift_functions.c ****     }
  55:.\lift_functions.c **** }
  56:.\lift_functions.c **** 
  57:.\lift_functions.c **** void LiftLv1(){
  58:.\lift_functions.c ****     LiftLvN(1);
  59:.\lift_functions.c **** }
  60:.\lift_functions.c **** 
  61:.\lift_functions.c **** void LiftLv2(){
  62:.\lift_functions.c ****     LiftLvN(2);
  63:.\lift_functions.c **** }
  64:.\lift_functions.c **** 
  65:.\lift_functions.c **** void LiftLv3(){
  66:.\lift_functions.c ****     LiftLvN(3);
  67:.\lift_functions.c **** }
  68:.\lift_functions.c **** 
  69:.\lift_functions.c **** void LiftLv4(){
  70:.\lift_functions.c ****     LiftLvN(4);
  71:.\lift_functions.c **** }
  72:.\lift_functions.c **** 
  73:.\lift_functions.c **** void LiftLvMax(){
  74:.\lift_functions.c ****     LiftLvN(9);
  75:.\lift_functions.c **** }
  76:.\lift_functions.c **** 
  77:.\lift_functions.c **** void LiftLvN(uint8 lvl){
 235              		.loc 1 77 0
 236              		.cfi_startproc
 237              		@ args = 0, pretend = 0, frame = 0
 238              		@ frame_needed = 0, uses_anonymous_args = 0
 239              	.LVL21:
 240 0000 38B5     		push	{r3, r4, r5, lr}
 241              		.cfi_def_cfa_offset 16
 242              		.cfi_offset 3, -16
 243              		.cfi_offset 4, -12
 244              		.cfi_offset 5, -8
 245              		.cfi_offset 14, -4
 246 0002 0546     		mov	r5, r0
  78:.\lift_functions.c ****     if(Quad_3_GetCounter()>(groundlvl+lvl*pucklvl)){
 247              		.loc 1 78 0
 248 0004 FFF7FEFF 		bl	Quad_3_GetCounter
 249              	.LVL22:
 250 0008 2C46     		mov	r4, r5
 251 000a 204B     		ldr	r3, .L28
 252 000c B3F90220 		ldrsh	r2, [r3, #2]
 253 0010 B3F90030 		ldrsh	r3, [r3]
 254 0014 02FB0535 		mla	r5, r2, r5, r3
 255 0018 A842     		cmp	r0, r5
 256 001a 1BDD     		ble	.L21
  79:.\lift_functions.c ****         LiftA_Write(1);
 257              		.loc 1 79 0
 258 001c 0120     		movs	r0, #1
 259 001e FFF7FEFF 		bl	LiftA_Write
 260              	.LVL23:
  80:.\lift_functions.c ****         LiftB_Write(0);
 261              		.loc 1 80 0
ARM GAS  C:\Users\Daniel\AppData\Local\Temp\cczS13bP.s 			page 7


 262 0022 0020     		movs	r0, #0
 263 0024 FFF7FEFF 		bl	LiftB_Write
 264              	.LVL24:
  81:.\lift_functions.c ****         while (Quad_3_GetCounter()>(groundlvl+lvl*pucklvl)){
 265              		.loc 1 81 0
 266 0028 02E0     		b	.L22
 267              	.L23:
  82:.\lift_functions.c ****         CyDelay(100);
 268              		.loc 1 82 0
 269 002a 6420     		movs	r0, #100
 270 002c FFF7FEFF 		bl	CyDelay
 271              	.LVL25:
 272              	.L22:
  81:.\lift_functions.c ****         while (Quad_3_GetCounter()>(groundlvl+lvl*pucklvl)){
 273              		.loc 1 81 0
 274 0030 FFF7FEFF 		bl	Quad_3_GetCounter
 275              	.LVL26:
 276 0034 154A     		ldr	r2, .L28
 277 0036 B2F90230 		ldrsh	r3, [r2, #2]
 278 003a B2F90020 		ldrsh	r2, [r2]
 279 003e 03FB0423 		mla	r3, r3, r4, r2
 280 0042 9842     		cmp	r0, r3
 281 0044 F1DC     		bgt	.L23
  83:.\lift_functions.c ****         }
  84:.\lift_functions.c ****         LiftA_Write(0);
 282              		.loc 1 84 0
 283 0046 0020     		movs	r0, #0
 284 0048 FFF7FEFF 		bl	LiftA_Write
 285              	.LVL27:
  85:.\lift_functions.c ****         LiftB_Write(0);
 286              		.loc 1 85 0
 287 004c 0020     		movs	r0, #0
 288 004e FFF7FEFF 		bl	LiftB_Write
 289              	.LVL28:
 290 0052 38BD     		pop	{r3, r4, r5, pc}
 291              	.L21:
  86:.\lift_functions.c ****     }else{
  87:.\lift_functions.c ****         LiftA_Write(0);
 292              		.loc 1 87 0
 293 0054 0020     		movs	r0, #0
 294 0056 FFF7FEFF 		bl	LiftA_Write
 295              	.LVL29:
  88:.\lift_functions.c ****         LiftB_Write(1);
 296              		.loc 1 88 0
 297 005a 0120     		movs	r0, #1
 298 005c FFF7FEFF 		bl	LiftB_Write
 299              	.LVL30:
  89:.\lift_functions.c ****         while (Quad_3_GetCounter()<(groundlvl+lvl*pucklvl)){
 300              		.loc 1 89 0
 301 0060 02E0     		b	.L25
 302              	.L26:
  90:.\lift_functions.c ****         CyDelay(100);
 303              		.loc 1 90 0
 304 0062 6420     		movs	r0, #100
 305 0064 FFF7FEFF 		bl	CyDelay
 306              	.LVL31:
 307              	.L25:
ARM GAS  C:\Users\Daniel\AppData\Local\Temp\cczS13bP.s 			page 8


  89:.\lift_functions.c ****         while (Quad_3_GetCounter()<(groundlvl+lvl*pucklvl)){
 308              		.loc 1 89 0
 309 0068 FFF7FEFF 		bl	Quad_3_GetCounter
 310              	.LVL32:
 311 006c 074A     		ldr	r2, .L28
 312 006e B2F90230 		ldrsh	r3, [r2, #2]
 313 0072 B2F90020 		ldrsh	r2, [r2]
 314 0076 03FB0423 		mla	r3, r3, r4, r2
 315 007a 9842     		cmp	r0, r3
 316 007c F1DB     		blt	.L26
  91:.\lift_functions.c ****         }
  92:.\lift_functions.c ****         LiftB_Write(0);
 317              		.loc 1 92 0
 318 007e 0020     		movs	r0, #0
 319 0080 FFF7FEFF 		bl	LiftB_Write
 320              	.LVL33:
  93:.\lift_functions.c ****         LiftA_Write(0);
 321              		.loc 1 93 0
 322 0084 0020     		movs	r0, #0
 323 0086 FFF7FEFF 		bl	LiftA_Write
 324              	.LVL34:
 325 008a 38BD     		pop	{r3, r4, r5, pc}
 326              	.L29:
 327              		.align	2
 328              	.L28:
 329 008c 00000000 		.word	.LANCHOR0
 330              		.cfi_endproc
 331              	.LFE73:
 332              		.size	LiftLvN, .-LiftLvN
 333              		.section	.text.LiftLv1,"ax",%progbits
 334              		.align	2
 335              		.global	LiftLv1
 336              		.thumb
 337              		.thumb_func
 338              		.type	LiftLv1, %function
 339              	LiftLv1:
 340              	.LFB68:
  57:.\lift_functions.c ****     LiftLvN(1);
 341              		.loc 1 57 0
 342              		.cfi_startproc
 343              		@ args = 0, pretend = 0, frame = 0
 344              		@ frame_needed = 0, uses_anonymous_args = 0
 345 0000 08B5     		push	{r3, lr}
 346              		.cfi_def_cfa_offset 8
 347              		.cfi_offset 3, -8
 348              		.cfi_offset 14, -4
  58:.\lift_functions.c **** }
 349              		.loc 1 58 0
 350 0002 0120     		movs	r0, #1
 351 0004 FFF7FEFF 		bl	LiftLvN
 352              	.LVL35:
 353 0008 08BD     		pop	{r3, pc}
 354              		.cfi_endproc
 355              	.LFE68:
 356              		.size	LiftLv1, .-LiftLv1
 357 000a 00BF     		.section	.text.LiftLv2,"ax",%progbits
 358              		.align	2
ARM GAS  C:\Users\Daniel\AppData\Local\Temp\cczS13bP.s 			page 9


 359              		.global	LiftLv2
 360              		.thumb
 361              		.thumb_func
 362              		.type	LiftLv2, %function
 363              	LiftLv2:
 364              	.LFB69:
  61:.\lift_functions.c ****     LiftLvN(2);
 365              		.loc 1 61 0
 366              		.cfi_startproc
 367              		@ args = 0, pretend = 0, frame = 0
 368              		@ frame_needed = 0, uses_anonymous_args = 0
 369 0000 08B5     		push	{r3, lr}
 370              		.cfi_def_cfa_offset 8
 371              		.cfi_offset 3, -8
 372              		.cfi_offset 14, -4
  62:.\lift_functions.c **** }
 373              		.loc 1 62 0
 374 0002 0220     		movs	r0, #2
 375 0004 FFF7FEFF 		bl	LiftLvN
 376              	.LVL36:
 377 0008 08BD     		pop	{r3, pc}
 378              		.cfi_endproc
 379              	.LFE69:
 380              		.size	LiftLv2, .-LiftLv2
 381 000a 00BF     		.section	.text.LiftLv3,"ax",%progbits
 382              		.align	2
 383              		.global	LiftLv3
 384              		.thumb
 385              		.thumb_func
 386              		.type	LiftLv3, %function
 387              	LiftLv3:
 388              	.LFB70:
  65:.\lift_functions.c ****     LiftLvN(3);
 389              		.loc 1 65 0
 390              		.cfi_startproc
 391              		@ args = 0, pretend = 0, frame = 0
 392              		@ frame_needed = 0, uses_anonymous_args = 0
 393 0000 08B5     		push	{r3, lr}
 394              		.cfi_def_cfa_offset 8
 395              		.cfi_offset 3, -8
 396              		.cfi_offset 14, -4
  66:.\lift_functions.c **** }
 397              		.loc 1 66 0
 398 0002 0320     		movs	r0, #3
 399 0004 FFF7FEFF 		bl	LiftLvN
 400              	.LVL37:
 401 0008 08BD     		pop	{r3, pc}
 402              		.cfi_endproc
 403              	.LFE70:
 404              		.size	LiftLv3, .-LiftLv3
 405 000a 00BF     		.section	.text.LiftLv4,"ax",%progbits
 406              		.align	2
 407              		.global	LiftLv4
 408              		.thumb
 409              		.thumb_func
 410              		.type	LiftLv4, %function
 411              	LiftLv4:
ARM GAS  C:\Users\Daniel\AppData\Local\Temp\cczS13bP.s 			page 10


 412              	.LFB71:
  69:.\lift_functions.c ****     LiftLvN(4);
 413              		.loc 1 69 0
 414              		.cfi_startproc
 415              		@ args = 0, pretend = 0, frame = 0
 416              		@ frame_needed = 0, uses_anonymous_args = 0
 417 0000 08B5     		push	{r3, lr}
 418              		.cfi_def_cfa_offset 8
 419              		.cfi_offset 3, -8
 420              		.cfi_offset 14, -4
  70:.\lift_functions.c **** }
 421              		.loc 1 70 0
 422 0002 0420     		movs	r0, #4
 423 0004 FFF7FEFF 		bl	LiftLvN
 424              	.LVL38:
 425 0008 08BD     		pop	{r3, pc}
 426              		.cfi_endproc
 427              	.LFE71:
 428              		.size	LiftLv4, .-LiftLv4
 429 000a 00BF     		.section	.text.LiftLvMax,"ax",%progbits
 430              		.align	2
 431              		.global	LiftLvMax
 432              		.thumb
 433              		.thumb_func
 434              		.type	LiftLvMax, %function
 435              	LiftLvMax:
 436              	.LFB72:
  73:.\lift_functions.c ****     LiftLvN(9);
 437              		.loc 1 73 0
 438              		.cfi_startproc
 439              		@ args = 0, pretend = 0, frame = 0
 440              		@ frame_needed = 0, uses_anonymous_args = 0
 441 0000 08B5     		push	{r3, lr}
 442              		.cfi_def_cfa_offset 8
 443              		.cfi_offset 3, -8
 444              		.cfi_offset 14, -4
  74:.\lift_functions.c **** }
 445              		.loc 1 74 0
 446 0002 0920     		movs	r0, #9
 447 0004 FFF7FEFF 		bl	LiftLvN
 448              	.LVL39:
 449 0008 08BD     		pop	{r3, pc}
 450              		.cfi_endproc
 451              	.LFE72:
 452              		.size	LiftLvMax, .-LiftLvMax
 453              		.global	groundlvl
 454              		.global	pucklvl
 455              		.comm	Camera_linebuffer,640,4
 456 000a 00BF     		.data
 457              		.align	1
 458              		.set	.LANCHOR0,. + 0
 459              		.type	groundlvl, %object
 460              		.size	groundlvl, 2
 461              	groundlvl:
 462 0000 0190     		.short	-28671
 463              		.type	pucklvl, %object
 464              		.size	pucklvl, 2
ARM GAS  C:\Users\Daniel\AppData\Local\Temp\cczS13bP.s 			page 11


 465              	pucklvl:
 466 0002 7012     		.short	4720
 467              		.text
 468              	.Letext0:
 469              		.file 2 "c:\\program files (x86)\\cypress\\psoc creator\\3.3\\psoc creator\\import\\gnu\\arm\\4.9.
 470              		.file 3 "c:\\program files (x86)\\cypress\\psoc creator\\3.3\\psoc creator\\import\\gnu\\arm\\4.9.
 471              		.file 4 "Generated_Source\\PSoC5/cytypes.h"
 472              		.file 5 "Generated_Source\\PSoC5/core_cm3.h"
 473              		.file 6 "Generated_Source\\PSoC5/Camera.h"
 474              		.file 7 "Generated_Source\\PSoC5/CyLib.h"
 475              		.file 8 "Generated_Source\\PSoC5/Quad_3.h"
 476              		.file 9 "Generated_Source\\PSoC5/LiftA.h"
 477              		.file 10 "Generated_Source\\PSoC5/LiftB.h"