ARM GAS  C:\Users\Daniel\AppData\Local\Temp\ccXmK4zb.s 			page 1


   1              		.syntax unified
   2              		.cpu cortex-m3
   3              		.fpu softvfp
   4              		.eabi_attribute 20, 1
   5              		.eabi_attribute 21, 1
   6              		.eabi_attribute 23, 3
   7              		.eabi_attribute 24, 1
   8              		.eabi_attribute 25, 1
   9              		.eabi_attribute 26, 1
  10              		.eabi_attribute 30, 1
  11              		.eabi_attribute 34, 1
  12              		.eabi_attribute 18, 4
  13              		.thumb
  14              		.file	"main.c"
  15              		.text
  16              	.Ltext0:
  17              		.cfi_sections	.debug_frame
  18              		.section	.text.Initialise,"ax",%progbits
  19              		.align	2
  20              		.global	Initialise
  21              		.thumb
  22              		.thumb_func
  23              		.type	Initialise, %function
  24              	Initialise:
  25              	.LFB64:
  26              		.file 1 ".\\main.c"
   1:.\main.c      **** /*
   2:.\main.c      ****  * Copyright @Pucktacular, 2016
   3:.\main.c      ****  * @Matt Gebert, Daniel Hranilovic & Kevin Duxbury
   4:.\main.c      ****  * All Rights Reserved
   5:.\main.c      ****  * UNPUBLISHED, LICENSED SOFTWARE.
   6:.\main.c      ****  *
   7:.\main.c      ****  * CONFIDENTIAL AND PROPRIETARY INFORMATION
   8:.\main.c      ****  * WHICH IS THE PROPERTY OF your company.
   9:.\main.c      ****  *
  10:.\main.c      ****  * ========================================
  11:.\main.c      **** */
  12:.\main.c      **** #include <project.h>
  13:.\main.c      **** #include <stdbool.h>
  14:.\main.c      **** #include <stdlib.h>
  15:.\main.c      **** #include <math.h>
  16:.\main.c      **** //#include <tgmath.h>
  17:.\main.c      **** #include "camera_display.h"
  18:.\main.c      **** #include "camera_functions.h"
  19:.\main.c      **** #include "movement_functions.h"
  20:.\main.c      **** #include "pwm_functions.h"
  21:.\main.c      **** #include "puck_functions.h"
  22:.\main.c      **** #include "Ultrasonics.h"
  23:.\main.c      **** #include "pathing.h"
  24:.\main.c      **** #include "initial_path_sequence.h"
  25:.\main.c      **** #include "lift_functions.h"
  26:.\main.c      **** #include "utils.h"
  27:.\main.c      ****  
  28:.\main.c      **** void Initialise();
  29:.\main.c      **** void Headlights();
  30:.\main.c      **** void HeadlightsOff();
  31:.\main.c      **** void Beep(int x);
ARM GAS  C:\Users\Daniel\AppData\Local\Temp\ccXmK4zb.s 			page 2


  32:.\main.c      **** void BiDirPortOutPut();
  33:.\main.c      **** void BiDirPortInPut();
  34:.\main.c      **** 
  35:.\main.c      **** 
  36:.\main.c      **** /*Variables from Camera Functions:
  37:.\main.c      **** ---------------------------------*/
  38:.\main.c      **** /*extern uint16 closestX;
  39:.\main.c      **** extern uint16 closestY;
  40:.\main.c      **** extern const uint8 numRows;
  41:.\main.c      **** extern const uint16 numCols; */
  42:.\main.c      **** extern const uint8 RED;
  43:.\main.c      **** extern const uint8 GREEN;
  44:.\main.c      **** extern const uint8 BLUE;
  45:.\main.c      **** extern uint8 orderedScaledClr[5];
  46:.\main.c      **** /*-------------------------------*/
  47:.\main.c      **** 
  48:.\main.c      **** 
  49:.\main.c      **** 
  50:.\main.c      **** int main()
  51:.\main.c      **** {
  52:.\main.c      ****     HeadlightsOff();
  53:.\main.c      ****     
  54:.\main.c      ****     SW_Start();
  55:.\main.c      ****     
  56:.\main.c      ****     LCD_Start();
  57:.\main.c      ****     LCD_DMA_Start();
  58:.\main.c      **** 
  59:.\main.c      ****     Camera_Start();
  60:.\main.c      ****     Camera_WriteReg(0x41,0x02); //double colour matrix (more saturation)
  61:.\main.c      ****     Camera_SetBlankTime(1000); //increase blanking time if image is corrupted; range is 0-2047
  62:.\main.c      ****     
  63:.\main.c      ****     CyGlobalIntEnable; //interrupts must be enabled for camera to work
  64:.\main.c      ****         
  65:.\main.c      ****     
  66:.\main.c      ****     //3 lines taht set up loop for button presses
  67:.\main.c      ****     uint8 buttons=0xff;;
  68:.\main.c      ****     uint8 buttons_old=0xff;
  69:.\main.c      ****     bool start =false;
  70:.\main.c      ****     bool block;
  71:.\main.c      ****     display_mode=THRESHOLDED; //start displaying image
  72:.\main.c      ****     
  73:.\main.c      ****     //Camera_SetEGWB(80,0,128,128); //set exposure, gain and white balance //ORIGNIAL VALUES...
  74:.\main.c      ****     Camera_SetEGWB(160,0,128,128); //set exposure, gain and white balance
  75:.\main.c      ****     Camera_SetThresholds(-32,64,0,-64,48,-32,-16,32); //set thresholds for the 4 colours
  76:.\main.c      ****     
  77:.\main.c      ****     //Loop until button press
  78:.\main.c      ****     Beep(3);
  79:.\main.c      ****     LiftInital();
  80:.\main.c      ****     while(start==false){        
  81:.\main.c      ****         buttons=Buttons_Status;
  82:.\main.c      ****         if(buttons&~buttons_old&4)  start=true;
  83:.\main.c      ****         if(buttons&~buttons_old&2)  LiftUpReset();
  84:.\main.c      ****         if(buttons&~buttons_old&1)  LiftDownReset();
  85:.\main.c      ****         
  86:.\main.c      ****         buttons_old=buttons;
  87:.\main.c      ****     }
  88:.\main.c      ****     
ARM GAS  C:\Users\Daniel\AppData\Local\Temp\ccXmK4zb.s 			page 3


  89:.\main.c      ****     //Setup PWM Channels
  90:.\main.c      ****     Initialise();
  91:.\main.c      ****     Beep(2);
  92:.\main.c      ****     CyDelay(200); //Wait for PWM's to initialize position correctly.
  93:.\main.c      ****     ClawClose();
  94:.\main.c      ****     Beep(2);
  95:.\main.c      ****     Beep(2);
  96:.\main.c      ****     CyDelay(200);
  97:.\main.c      ****     ClawOpen();
  98:.\main.c      ****     
  99:.\main.c      ****     //TEMP STUFF
 100:.\main.c      ****     /*
 101:.\main.c      ****     orderedScaledClr[0]=0;
 102:.\main.c      ****     orderedScaledClr[1]=1;
 103:.\main.c      ****     orderedScaledClr[2]=2;
 104:.\main.c      ****     orderedScaledClr[3]=2;
 105:.\main.c      ****     orderedScaledClr[4]=1;
 106:.\main.c      ****     block=0;
 107:.\main.c      ****     */
 108:.\main.c      ****     
 109:.\main.c      ****     Beep(2);
 110:.\main.c      ****     CyDelay(200);
 111:.\main.c      ****     PanRight();
 112:.\main.c      ****     CyDelay(200);
 113:.\main.c      ****     block = PathInitialSequence();
 114:.\main.c      ****     CyDelay(20);
 115:.\main.c      ****     
 116:.\main.c      ****     uint8 n=0;
 117:.\main.c      ****     //for(n=0;n<5;n++)
 118:.\main.c      ****     for(n=0;n<5;n++)
 119:.\main.c      ****     {
 120:.\main.c      ****         PathForward(block);
 121:.\main.c      ****         PuckResetAngleTotal();
 122:.\main.c      ****         PuckAquire(orderedScaledClr[n],block);
 123:.\main.c      ****         MovementResetQuadCount();
 124:.\main.c      ****         PathBackward(block);
 125:.\main.c      ****         
 126:.\main.c      ****         if(n==0){
 127:.\main.c      ****             MoveAlign(4.0,1,0,0.5);
 128:.\main.c      ****             ClawOpen();
 129:.\main.c      ****             CyDelay(200);
 130:.\main.c      ****             MovementBackward(4000);
 131:.\main.c      ****             MovementPivotLeft(180);
 132:.\main.c      ****             CyDelay(20);
 133:.\main.c      ****         } else {
 134:.\main.c      ****             PanRight();
 135:.\main.c      ****             CyDelay(50);
 136:.\main.c      ****             LiftLvMax();
 137:.\main.c      ****             //Camera to check and position!
 138:.\main.c      ****             PuckPositionToStack(orderedScaledClr[0]); //orderedScaledClr[4] //PWM's... 45 & ? -> 16
 139:.\main.c      ****             PanRight();
 140:.\main.c      ****             CyDelay(50);
 141:.\main.c      ****             LiftLvN(n);
 142:.\main.c      ****             ClawOpen();
 143:.\main.c      ****             CyDelay(200);
 144:.\main.c      ****             MovementBackward(4000);
 145:.\main.c      ****             ClawClose();
ARM GAS  C:\Users\Daniel\AppData\Local\Temp\ccXmK4zb.s 			page 4


 146:.\main.c      ****             LiftLvN(0);
 147:.\main.c      ****             MovementPivotLeft(180);
 148:.\main.c      ****             PanMid();
 149:.\main.c      ****             ClawOpen();
 150:.\main.c      ****             CyDelay(20);
 151:.\main.c      ****         }
 152:.\main.c      ****         
 153:.\main.c      ****     }
 154:.\main.c      ****     
 155:.\main.c      ****     MovementPivotRight(360);
 156:.\main.c      **** }
 157:.\main.c      **** 
 158:.\main.c      **** void Initialise(){
  27              		.loc 1 158 0
  28              		.cfi_startproc
  29              		@ args = 0, pretend = 0, frame = 0
  30              		@ frame_needed = 0, uses_anonymous_args = 0
  31 0000 08B5     		push	{r3, lr}
  32              		.cfi_def_cfa_offset 8
  33              		.cfi_offset 3, -8
  34              		.cfi_offset 14, -4
 159:.\main.c      ****     Timer_1_Start();
  35              		.loc 1 159 0
  36 0002 FFF7FEFF 		bl	Timer_1_Start
  37              	.LVL0:
 160:.\main.c      ****     Timer_2_Start();
  38              		.loc 1 160 0
  39 0006 FFF7FEFF 		bl	Timer_2_Start
  40              	.LVL1:
 161:.\main.c      ****     Quad_1_Start();
  41              		.loc 1 161 0
  42 000a FFF7FEFF 		bl	Quad_1_Start
  43              	.LVL2:
 162:.\main.c      ****     Quad_2_Start();
  44              		.loc 1 162 0
  45 000e FFF7FEFF 		bl	Quad_2_Start
  46              	.LVL3:
 163:.\main.c      ****     PWM_Pan_Start();
  47              		.loc 1 163 0
  48 0012 FFF7FEFF 		bl	PWM_Pan_Start
  49              	.LVL4:
 164:.\main.c      ****     CyDelay(10);
  50              		.loc 1 164 0
  51 0016 0A20     		movs	r0, #10
  52 0018 FFF7FEFF 		bl	CyDelay
  53              	.LVL5:
 165:.\main.c      ****     PWM_Tilt_Start();
  54              		.loc 1 165 0
  55 001c FFF7FEFF 		bl	PWM_Tilt_Start
  56              	.LVL6:
 166:.\main.c      ****     CyDelay(10);
  57              		.loc 1 166 0
  58 0020 0A20     		movs	r0, #10
  59 0022 FFF7FEFF 		bl	CyDelay
  60              	.LVL7:
 167:.\main.c      ****     PWM_Claw_Start();
  61              		.loc 1 167 0
ARM GAS  C:\Users\Daniel\AppData\Local\Temp\ccXmK4zb.s 			page 5


  62 0026 FFF7FEFF 		bl	PWM_Claw_Start
  63              	.LVL8:
 168:.\main.c      ****     CyDelay(10);
  64              		.loc 1 168 0
  65 002a 0A20     		movs	r0, #10
  66 002c FFF7FEFF 		bl	CyDelay
  67              	.LVL9:
 169:.\main.c      ****     LiftSetGround();
  68              		.loc 1 169 0
  69 0030 FFF7FEFF 		bl	LiftSetGround
  70              	.LVL10:
  71 0034 08BD     		pop	{r3, pc}
  72              		.cfi_endproc
  73              	.LFE64:
  74              		.size	Initialise, .-Initialise
  75 0036 00BF     		.section	.text.main,"ax",%progbits
  76              		.align	2
  77              		.global	main
  78              		.thumb
  79              		.thumb_func
  80              		.type	main, %function
  81              	main:
  82              	.LFB63:
  51:.\main.c      ****     HeadlightsOff();
  83              		.loc 1 51 0
  84              		.cfi_startproc
  85              		@ args = 0, pretend = 0, frame = 0
  86              		@ frame_needed = 0, uses_anonymous_args = 0
  87 0000 70B5     		push	{r4, r5, r6, lr}
  88              		.cfi_def_cfa_offset 16
  89              		.cfi_offset 4, -16
  90              		.cfi_offset 5, -12
  91              		.cfi_offset 6, -8
  92              		.cfi_offset 14, -4
  93 0002 84B0     		sub	sp, sp, #16
  94              		.cfi_def_cfa_offset 32
  52:.\main.c      ****     
  95              		.loc 1 52 0
  96 0004 FFF7FEFF 		bl	HeadlightsOff
  97              	.LVL11:
  54:.\main.c      ****     
  98              		.loc 1 54 0
  99 0008 FFF7FEFF 		bl	SW_DAC_Start
 100              	.LVL12:
 101 000c FFF7FEFF 		bl	SW_Comparator_Start
 102              	.LVL13:
  56:.\main.c      ****     LCD_DMA_Start();
 103              		.loc 1 56 0
 104 0010 FFF7FEFF 		bl	LCD_Start
 105              	.LVL14:
  57:.\main.c      **** 
 106              		.loc 1 57 0
 107 0014 FFF7FEFF 		bl	LCD_DMA_Start
 108              	.LVL15:
  59:.\main.c      ****     Camera_WriteReg(0x41,0x02); //double colour matrix (more saturation)
 109              		.loc 1 59 0
 110 0018 FFF7FEFF 		bl	Camera_Start
ARM GAS  C:\Users\Daniel\AppData\Local\Temp\ccXmK4zb.s 			page 6


 111              	.LVL16:
  60:.\main.c      ****     Camera_SetBlankTime(1000); //increase blanking time if image is corrupted; range is 0-2047
 112              		.loc 1 60 0
 113 001c 4120     		movs	r0, #65
 114 001e 0221     		movs	r1, #2
 115 0020 FFF7FEFF 		bl	Camera_WriteReg
 116              	.LVL17:
  61:.\main.c      ****     
 117              		.loc 1 61 0
 118 0024 4FF47A70 		mov	r0, #1000
 119 0028 FFF7FEFF 		bl	Camera_SetBlankTime
 120              	.LVL18:
  63:.\main.c      ****         
 121              		.loc 1 63 0
 122              	@ 63 ".\main.c" 1
 123 002c 62B6     		CPSIE   i
 124              	@ 0 "" 2
 125              	.LVL19:
  71:.\main.c      ****     
 126              		.loc 1 71 0
 127              		.thumb
 128 002e 0222     		movs	r2, #2
 129 0030 5E4B     		ldr	r3, .L15
 130 0032 1A70     		strb	r2, [r3]
  74:.\main.c      ****     Camera_SetThresholds(-32,64,0,-64,48,-32,-16,32); //set thresholds for the 4 colours
 131              		.loc 1 74 0
 132 0034 A020     		movs	r0, #160
 133 0036 0021     		movs	r1, #0
 134 0038 8022     		movs	r2, #128
 135 003a 1346     		mov	r3, r2
 136 003c FFF7FEFF 		bl	Camera_SetEGWB
 137              	.LVL20:
  75:.\main.c      ****     
 138              		.loc 1 75 0
 139 0040 3023     		movs	r3, #48
 140 0042 0093     		str	r3, [sp]
 141 0044 6FF01F00 		mvn	r0, #31
 142 0048 0190     		str	r0, [sp, #4]
 143 004a 6FF00F03 		mvn	r3, #15
 144 004e 0293     		str	r3, [sp, #8]
 145 0050 2023     		movs	r3, #32
 146 0052 0393     		str	r3, [sp, #12]
 147 0054 4021     		movs	r1, #64
 148 0056 0022     		movs	r2, #0
 149 0058 6FF03F03 		mvn	r3, #63
 150 005c FFF7FEFF 		bl	Camera_SetThresholds
 151              	.LVL21:
  78:.\main.c      ****     LiftInital();
 152              		.loc 1 78 0
 153 0060 0320     		movs	r0, #3
 154 0062 FFF7FEFF 		bl	Beep
 155              	.LVL22:
  79:.\main.c      ****     while(start==false){        
 156              		.loc 1 79 0
 157 0066 FFF7FEFF 		bl	LiftInital
 158              	.LVL23:
  69:.\main.c      ****     bool block;
ARM GAS  C:\Users\Daniel\AppData\Local\Temp\ccXmK4zb.s 			page 7


 159              		.loc 1 69 0
 160 006a 0026     		movs	r6, #0
  68:.\main.c      ****     bool start =false;
 161              		.loc 1 68 0
 162 006c FF24     		movs	r4, #255
  80:.\main.c      ****         buttons=Buttons_Status;
 163              		.loc 1 80 0
 164 006e 13E0     		b	.L4
 165              	.LVL24:
 166              	.L8:
  81:.\main.c      ****         if(buttons&~buttons_old&4)  start=true;
 167              		.loc 1 81 0
 168 0070 4F4B     		ldr	r3, .L15+4
 169 0072 1D78     		ldrb	r5, [r3]	@ zero_extendqisi2
 170 0074 EDB2     		uxtb	r5, r5
 171              	.LVL25:
  82:.\main.c      ****         if(buttons&~buttons_old&2)  LiftUpReset();
 172              		.loc 1 82 0
 173 0076 25EA0404 		bic	r4, r5, r4
 174              	.LVL26:
 175 007a 14F0040F 		tst	r4, #4
 176 007e 00D0     		beq	.L5
 177 0080 0126     		movs	r6, #1
 178              	.LVL27:
 179              	.L5:
  83:.\main.c      ****         if(buttons&~buttons_old&1)  LiftDownReset();
 180              		.loc 1 83 0
 181 0082 14F0020F 		tst	r4, #2
 182 0086 01D0     		beq	.L6
  83:.\main.c      ****         if(buttons&~buttons_old&1)  LiftDownReset();
 183              		.loc 1 83 0 is_stmt 0 discriminator 1
 184 0088 FFF7FEFF 		bl	LiftUpReset
 185              	.LVL28:
 186              	.L6:
  84:.\main.c      ****         
 187              		.loc 1 84 0 is_stmt 1
 188 008c 14F0010F 		tst	r4, #1
 189 0090 01D0     		beq	.L7
  84:.\main.c      ****         
 190              		.loc 1 84 0 is_stmt 0 discriminator 1
 191 0092 FFF7FEFF 		bl	LiftDownReset
 192              	.LVL29:
 193              	.L7:
  86:.\main.c      ****     }
 194              		.loc 1 86 0 is_stmt 1
 195 0096 2C46     		mov	r4, r5
 196              	.LVL30:
 197              	.L4:
  80:.\main.c      ****         buttons=Buttons_Status;
 198              		.loc 1 80 0
 199 0098 002E     		cmp	r6, #0
 200 009a E9D0     		beq	.L8
  90:.\main.c      ****     Beep(2);
 201              		.loc 1 90 0
 202 009c FFF7FEFF 		bl	Initialise
 203              	.LVL31:
  91:.\main.c      ****     CyDelay(200); //Wait for PWM's to initialize position correctly.
ARM GAS  C:\Users\Daniel\AppData\Local\Temp\ccXmK4zb.s 			page 8


 204              		.loc 1 91 0
 205 00a0 0220     		movs	r0, #2
 206 00a2 FFF7FEFF 		bl	Beep
 207              	.LVL32:
  92:.\main.c      ****     ClawClose();
 208              		.loc 1 92 0
 209 00a6 C820     		movs	r0, #200
 210 00a8 FFF7FEFF 		bl	CyDelay
 211              	.LVL33:
  93:.\main.c      ****     Beep(2);
 212              		.loc 1 93 0
 213 00ac FFF7FEFF 		bl	ClawClose
 214              	.LVL34:
  94:.\main.c      ****     Beep(2);
 215              		.loc 1 94 0
 216 00b0 0220     		movs	r0, #2
 217 00b2 FFF7FEFF 		bl	Beep
 218              	.LVL35:
  95:.\main.c      ****     CyDelay(200);
 219              		.loc 1 95 0
 220 00b6 0220     		movs	r0, #2
 221 00b8 FFF7FEFF 		bl	Beep
 222              	.LVL36:
  96:.\main.c      ****     ClawOpen();
 223              		.loc 1 96 0
 224 00bc C820     		movs	r0, #200
 225 00be FFF7FEFF 		bl	CyDelay
 226              	.LVL37:
  97:.\main.c      ****     
 227              		.loc 1 97 0
 228 00c2 FFF7FEFF 		bl	ClawOpen
 229              	.LVL38:
 109:.\main.c      ****     CyDelay(200);
 230              		.loc 1 109 0
 231 00c6 0220     		movs	r0, #2
 232 00c8 FFF7FEFF 		bl	Beep
 233              	.LVL39:
 110:.\main.c      ****     PanRight();
 234              		.loc 1 110 0
 235 00cc C820     		movs	r0, #200
 236 00ce FFF7FEFF 		bl	CyDelay
 237              	.LVL40:
 111:.\main.c      ****     CyDelay(200);
 238              		.loc 1 111 0
 239 00d2 FFF7FEFF 		bl	PanRight
 240              	.LVL41:
 112:.\main.c      ****     block = PathInitialSequence();
 241              		.loc 1 112 0
 242 00d6 C820     		movs	r0, #200
 243 00d8 FFF7FEFF 		bl	CyDelay
 244              	.LVL42:
 113:.\main.c      ****     CyDelay(20);
 245              		.loc 1 113 0
 246 00dc FFF7FEFF 		bl	PathInitialSequence
 247              	.LVL43:
 248 00e0 0546     		mov	r5, r0
 249              	.LVL44:
ARM GAS  C:\Users\Daniel\AppData\Local\Temp\ccXmK4zb.s 			page 9


 114:.\main.c      ****     
 250              		.loc 1 114 0
 251 00e2 1420     		movs	r0, #20
 252 00e4 FFF7FEFF 		bl	CyDelay
 253              	.LVL45:
 118:.\main.c      ****     {
 254              		.loc 1 118 0
 255 00e8 0024     		movs	r4, #0
 256              	.LVL46:
 257 00ea 57E0     		b	.L9
 258              	.LVL47:
 259              	.L12:
 120:.\main.c      ****         PuckResetAngleTotal();
 260              		.loc 1 120 0
 261 00ec 2846     		mov	r0, r5
 262 00ee FFF7FEFF 		bl	PathForward
 263              	.LVL48:
 121:.\main.c      ****         PuckAquire(orderedScaledClr[n],block);
 264              		.loc 1 121 0
 265 00f2 FFF7FEFF 		bl	PuckResetAngleTotal
 266              	.LVL49:
 122:.\main.c      ****         MovementResetQuadCount();
 267              		.loc 1 122 0
 268 00f6 2F4B     		ldr	r3, .L15+8
 269 00f8 185D     		ldrb	r0, [r3, r4]	@ zero_extendqisi2
 270 00fa 2946     		mov	r1, r5
 271 00fc FFF7FEFF 		bl	PuckAquire
 272              	.LVL50:
 123:.\main.c      ****         PathBackward(block);
 273              		.loc 1 123 0
 274 0100 FFF7FEFF 		bl	MovementResetQuadCount
 275              	.LVL51:
 124:.\main.c      ****         
 276              		.loc 1 124 0
 277 0104 2846     		mov	r0, r5
 278 0106 FFF7FEFF 		bl	PathBackward
 279              	.LVL52:
 126:.\main.c      ****             MoveAlign(4.0,1,0,0.5);
 280              		.loc 1 126 0
 281 010a CCB9     		cbnz	r4, .L10
 127:.\main.c      ****             ClawOpen();
 282              		.loc 1 127 0
 283 010c 4FF07C53 		mov	r3, #1056964608
 284 0110 0093     		str	r3, [sp]	@ float
 285 0112 0020     		movs	r0, #0
 286 0114 2849     		ldr	r1, .L15+12
 287 0116 0122     		movs	r2, #1
 288 0118 0023     		movs	r3, #0
 289 011a FFF7FEFF 		bl	MoveAlign
 290              	.LVL53:
 128:.\main.c      ****             CyDelay(200);
 291              		.loc 1 128 0
 292 011e FFF7FEFF 		bl	ClawOpen
 293              	.LVL54:
 129:.\main.c      ****             MovementBackward(4000);
 294              		.loc 1 129 0
 295 0122 C820     		movs	r0, #200
ARM GAS  C:\Users\Daniel\AppData\Local\Temp\ccXmK4zb.s 			page 10


 296 0124 FFF7FEFF 		bl	CyDelay
 297              	.LVL55:
 130:.\main.c      ****             MovementPivotLeft(180);
 298              		.loc 1 130 0
 299 0128 4FF47A60 		mov	r0, #4000
 300 012c FFF7FEFF 		bl	MovementBackward
 301              	.LVL56:
 131:.\main.c      ****             CyDelay(20);
 302              		.loc 1 131 0
 303 0130 0020     		movs	r0, #0
 304 0132 2249     		ldr	r1, .L15+16
 305 0134 FFF7FEFF 		bl	MovementPivotLeft
 306              	.LVL57:
 132:.\main.c      ****         } else {
 307              		.loc 1 132 0
 308 0138 1420     		movs	r0, #20
 309 013a FFF7FEFF 		bl	CyDelay
 310              	.LVL58:
 311 013e 2BE0     		b	.L11
 312              	.L10:
 134:.\main.c      ****             CyDelay(50);
 313              		.loc 1 134 0
 314 0140 FFF7FEFF 		bl	PanRight
 315              	.LVL59:
 135:.\main.c      ****             LiftLvMax();
 316              		.loc 1 135 0
 317 0144 3220     		movs	r0, #50
 318 0146 FFF7FEFF 		bl	CyDelay
 319              	.LVL60:
 136:.\main.c      ****             //Camera to check and position!
 320              		.loc 1 136 0
 321 014a FFF7FEFF 		bl	LiftLvMax
 322              	.LVL61:
 138:.\main.c      ****             PanRight();
 323              		.loc 1 138 0
 324 014e 194B     		ldr	r3, .L15+8
 325 0150 1878     		ldrb	r0, [r3]	@ zero_extendqisi2
 326 0152 FFF7FEFF 		bl	PuckPositionToStack
 327              	.LVL62:
 139:.\main.c      ****             CyDelay(50);
 328              		.loc 1 139 0
 329 0156 FFF7FEFF 		bl	PanRight
 330              	.LVL63:
 140:.\main.c      ****             LiftLvN(n);
 331              		.loc 1 140 0
 332 015a 3220     		movs	r0, #50
 333 015c FFF7FEFF 		bl	CyDelay
 334              	.LVL64:
 141:.\main.c      ****             ClawOpen();
 335              		.loc 1 141 0
 336 0160 2046     		mov	r0, r4
 337 0162 FFF7FEFF 		bl	LiftLvN
 338              	.LVL65:
 142:.\main.c      ****             CyDelay(200);
 339              		.loc 1 142 0
 340 0166 FFF7FEFF 		bl	ClawOpen
 341              	.LVL66:
ARM GAS  C:\Users\Daniel\AppData\Local\Temp\ccXmK4zb.s 			page 11


 143:.\main.c      ****             MovementBackward(4000);
 342              		.loc 1 143 0
 343 016a C820     		movs	r0, #200
 344 016c FFF7FEFF 		bl	CyDelay
 345              	.LVL67:
 144:.\main.c      ****             ClawClose();
 346              		.loc 1 144 0
 347 0170 4FF47A60 		mov	r0, #4000
 348 0174 FFF7FEFF 		bl	MovementBackward
 349              	.LVL68:
 145:.\main.c      ****             LiftLvN(0);
 350              		.loc 1 145 0
 351 0178 FFF7FEFF 		bl	ClawClose
 352              	.LVL69:
 146:.\main.c      ****             MovementPivotLeft(180);
 353              		.loc 1 146 0
 354 017c 0020     		movs	r0, #0
 355 017e FFF7FEFF 		bl	LiftLvN
 356              	.LVL70:
 147:.\main.c      ****             PanMid();
 357              		.loc 1 147 0
 358 0182 0020     		movs	r0, #0
 359 0184 0D49     		ldr	r1, .L15+16
 360 0186 FFF7FEFF 		bl	MovementPivotLeft
 361              	.LVL71:
 148:.\main.c      ****             ClawOpen();
 362              		.loc 1 148 0
 363 018a FFF7FEFF 		bl	PanMid
 364              	.LVL72:
 149:.\main.c      ****             CyDelay(20);
 365              		.loc 1 149 0
 366 018e FFF7FEFF 		bl	ClawOpen
 367              	.LVL73:
 150:.\main.c      ****         }
 368              		.loc 1 150 0
 369 0192 1420     		movs	r0, #20
 370 0194 FFF7FEFF 		bl	CyDelay
 371              	.LVL74:
 372              	.L11:
 118:.\main.c      ****     {
 373              		.loc 1 118 0 discriminator 2
 374 0198 0134     		adds	r4, r4, #1
 375              	.LVL75:
 376 019a E4B2     		uxtb	r4, r4
 377              	.LVL76:
 378              	.L9:
 118:.\main.c      ****     {
 379              		.loc 1 118 0 is_stmt 0 discriminator 1
 380 019c 042C     		cmp	r4, #4
 381 019e A5D9     		bls	.L12
 155:.\main.c      **** }
 382              		.loc 1 155 0 is_stmt 1
 383 01a0 0020     		movs	r0, #0
 384 01a2 0749     		ldr	r1, .L15+20
 385 01a4 FFF7FEFF 		bl	MovementPivotRight
 386              	.LVL77:
 156:.\main.c      **** 
ARM GAS  C:\Users\Daniel\AppData\Local\Temp\ccXmK4zb.s 			page 12


 387              		.loc 1 156 0
 388 01a8 04B0     		add	sp, sp, #16
 389              		.cfi_def_cfa_offset 16
 390              		@ sp needed
 391 01aa 70BD     		pop	{r4, r5, r6, pc}
 392              	.LVL78:
 393              	.L16:
 394              		.align	2
 395              	.L15:
 396 01ac 00000000 		.word	display_mode
 397 01b0 66650040 		.word	1073767782
 398 01b4 00000000 		.word	orderedScaledClr
 399 01b8 00001040 		.word	1074790400
 400 01bc 00806640 		.word	1080459264
 401 01c0 00807640 		.word	1081507840
 402              		.cfi_endproc
 403              	.LFE63:
 404              		.size	main, .-main
 405              		.comm	display_mode,1,1
 406              		.comm	Camera_linebuffer,640,4
 407              		.text
 408              	.Letext0:
 409              		.file 2 "c:\\program files (x86)\\cypress\\psoc creator\\3.3\\psoc creator\\import\\gnu\\arm\\4.9.
 410              		.file 3 "c:\\program files (x86)\\cypress\\psoc creator\\3.3\\psoc creator\\import\\gnu\\arm\\4.9.
 411              		.file 4 "Generated_Source\\PSoC5/cytypes.h"
 412              		.file 5 "Generated_Source\\PSoC5/core_cm3.h"
 413              		.file 6 "Generated_Source\\PSoC5/Camera.h"
 414              		.file 7 ".\\camera_display.h"
 415              		.file 8 "Generated_Source\\PSoC5/Timer_1.h"
 416              		.file 9 "Generated_Source\\PSoC5/Timer_2.h"
 417              		.file 10 "Generated_Source\\PSoC5/Quad_1.h"
 418              		.file 11 "Generated_Source\\PSoC5/Quad_2.h"
 419              		.file 12 "Generated_Source\\PSoC5/PWM_Pan.h"
 420              		.file 13 "Generated_Source\\PSoC5/PWM_Tilt.h"
 421              		.file 14 "Generated_Source\\PSoC5/PWM_Claw.h"
 422              		.file 15 ".\\lift_functions.h"
 423              		.file 16 "Generated_Source\\PSoC5/SW_DAC.h"
 424              		.file 17 "Generated_Source\\PSoC5/SW_Comparator.h"
 425              		.file 18 "Generated_Source\\PSoC5/LCD.h"
 426              		.file 19 "Generated_Source\\PSoC5/CyLib.h"
 427              		.file 20 ".\\pwm_functions.h"
 428              		.file 21 ".\\initial_path_sequence.h"
 429              		.file 22 ".\\pathing.h"
 430              		.file 23 ".\\puck_functions.h"
 431              		.file 24 ".\\movement_functions.h"
 432              		.file 25 ".\\Ultrasonics.h"