ARM GAS  C:\Users\Daniel\AppData\Local\Temp\cc7N0DOD.s 			page 1


   1              		.syntax unified
   2              		.cpu cortex-m3
   3              		.fpu softvfp
   4              		.eabi_attribute 20, 1
   5              		.eabi_attribute 21, 1
   6              		.eabi_attribute 23, 3
   7              		.eabi_attribute 24, 1
   8              		.eabi_attribute 25, 1
   9              		.eabi_attribute 26, 1
  10              		.eabi_attribute 30, 1
  11              		.eabi_attribute 34, 1
  12              		.eabi_attribute 18, 4
  13              		.thumb
  14              		.file	"movement_functions.c"
  15              		.text
  16              	.Ltext0:
  17              		.cfi_sections	.debug_frame
  18              		.section	.text.Movement,"ax",%progbits
  19              		.align	2
  20              		.global	Movement
  21              		.thumb
  22              		.thumb_func
  23              		.type	Movement, %function
  24              	Movement:
  25              	.LFB63:
  26              		.file 1 ".\\movement_functions.c"
   1:.\movement_functions.c **** /*
   2:.\movement_functions.c ****  * Copyright @Pucktacular, 2016
   3:.\movement_functions.c ****  * @Matt Gebert, Daniel Hranilovic & Kevin Duxbury
   4:.\movement_functions.c ****  * All Rights Reserved
   5:.\movement_functions.c ****  * UNPUBLISHED, LICENSED SOFTWARE.
   6:.\movement_functions.c ****  *
   7:.\movement_functions.c ****  * CONFIDENTIAL AND PROPRIETARY INFORMATION
   8:.\movement_functions.c ****  * WHICH IS THE PROPERTY OF your company.
   9:.\movement_functions.c ****  *
  10:.\movement_functions.c ****  * ========================================
  11:.\movement_functions.c **** */
  12:.\movement_functions.c **** #include <project.h>
  13:.\movement_functions.c **** #include <stdbool.h>
  14:.\movement_functions.c **** #include <stdlib.h>
  15:.\movement_functions.c **** #include "movement_functions.h"
  16:.\movement_functions.c **** 
  17:.\movement_functions.c **** /*Internal FUNCTION DECLARATIONS*/
  18:.\movement_functions.c **** void Movement(uint8 direction, uint16 duration);
  19:.\movement_functions.c **** void MovementLinearCorrected(uint8 direction, uint16 duration);
  20:.\movement_functions.c **** void MovementAquireQuadCount();
  21:.\movement_functions.c **** void MovementCorrectionFunction(bool fwd, int SEL, int SER);
  22:.\movement_functions.c **** 
  23:.\movement_functions.c **** //To Keep Track Of Wheels & Quadrature.
  24:.\movement_functions.c **** int16 SERight=0; //Attached to Pin2&3 of J8, SE1 A&B
  25:.\movement_functions.c **** int16 SELeft=0; //Pin4&5, SE2 A&B.
  26:.\movement_functions.c **** int SELeftTot=0;
  27:.\movement_functions.c **** int SERightTot=0;
  28:.\movement_functions.c **** 
  29:.\movement_functions.c **** 
  30:.\movement_functions.c **** /*  General Information
  31:.\movement_functions.c ****         Movement is controlled through 2nd Bus Address.
ARM GAS  C:\Users\Daniel\AppData\Local\Temp\cc7N0DOD.s 			page 2


  32:.\movement_functions.c ****         Last 4 bits of 8 bit bus control motor inputs.
  33:.\movement_functions.c ****         0x50 -> Both forward.
  34:.\movement_functions.c ****         0xA0 -> Both backward.
  35:.\movement_functions.c ****         0x10 -> Right wheel forward.
  36:.\movement_functions.c ****         0x20 -> Right wheel backward.
  37:.\movement_functions.c ****         0x40 -> Left wheel forward.
  38:.\movement_functions.c ****         0x80 -> Left wheel backward.
  39:.\movement_functions.c ****         0x90 -> Pivot Left
  40:.\movement_functions.c ****         0x60 -> Pivot Right
  41:.\movement_functions.c **** */
  42:.\movement_functions.c **** 
  43:.\movement_functions.c **** //Defines Movements
  44:.\movement_functions.c **** uint8 const FORWARD = 0xA0;
  45:.\movement_functions.c **** uint8 const BACKWARD = 0x50;
  46:.\movement_functions.c **** uint8 const RIGHT_FORWARD = 0x20;
  47:.\movement_functions.c **** uint8 const RIGHT_BACKWARD = 0x10;
  48:.\movement_functions.c **** uint8 const LEFT_FORWARD = 0x80;
  49:.\movement_functions.c **** uint8 const LEFT_BACKWARD = 0x40;
  50:.\movement_functions.c **** uint8 const PIVOT_LEFT = 0x60;
  51:.\movement_functions.c **** uint8 const PIVOT_RIGHT = 0x90;
  52:.\movement_functions.c **** uint8 const STOP = 0x00;
  53:.\movement_functions.c **** 
  54:.\movement_functions.c **** //Time value to split movement into steps.
  55:.\movement_functions.c **** uint16 const STEP_SIZE = 1000; //ms.
  56:.\movement_functions.c **** uint8 const MIN_DIF = 20; //Minimum "Don't Care" difference between phases.
  57:.\movement_functions.c **** uint16 const deg90 = 3600;//(11265*18)/19/3; //Amount of steps to roughtly turn 90 degrees.
  58:.\movement_functions.c **** 
  59:.\movement_functions.c **** /* ------------------------------------- LINEAR MOTION --------------------------------------------
  60:.\movement_functions.c **** 
  61:.\movement_functions.c **** 
  62:.\movement_functions.c **** void Movement(uint8 direction, uint16 duration) {    
  27              		.loc 1 62 0
  28              		.cfi_startproc
  29              		@ args = 0, pretend = 0, frame = 0
  30              		@ frame_needed = 0, uses_anonymous_args = 0
  31              	.LVL0:
  32 0000 2DE9F041 		push	{r4, r5, r6, r7, r8, lr}
  33              		.cfi_def_cfa_offset 24
  34              		.cfi_offset 4, -24
  35              		.cfi_offset 5, -20
  36              		.cfi_offset 6, -16
  37              		.cfi_offset 7, -12
  38              		.cfi_offset 8, -8
  39              		.cfi_offset 14, -4
  40 0004 0546     		mov	r5, r0
  41 0006 0E46     		mov	r6, r1
  63:.\movement_functions.c ****     //Write to Bus to start Movement:
  64:.\movement_functions.c ****     CS_Write(2);
  42              		.loc 1 64 0
  43 0008 0220     		movs	r0, #2
  44              	.LVL1:
  45 000a FFF7FEFF 		bl	CS_Write
  46              	.LVL2:
  65:.\movement_functions.c ****     OE_Control=3;
  47              		.loc 1 65 0
  48 000e 104C     		ldr	r4, .L3
  49 0010 4FF00308 		mov	r8, #3
ARM GAS  C:\Users\Daniel\AppData\Local\Temp\cc7N0DOD.s 			page 3


  50 0014 84F80080 		strb	r8, [r4]
  66:.\movement_functions.c ****     Data_Out_Control=direction;
  51              		.loc 1 66 0
  52 0018 0E4F     		ldr	r7, .L3+4
  53 001a 3D70     		strb	r5, [r7]
  67:.\movement_functions.c ****     CS_Write(8);
  54              		.loc 1 67 0
  55 001c 0820     		movs	r0, #8
  56 001e FFF7FEFF 		bl	CS_Write
  57              	.LVL3:
  68:.\movement_functions.c ****     OE_Control=0;
  58              		.loc 1 68 0
  59 0022 0025     		movs	r5, #0
  60 0024 2570     		strb	r5, [r4]
  69:.\movement_functions.c ****     CyDelay(duration/3);
  61              		.loc 1 69 0
  62 0026 0C48     		ldr	r0, .L3+8
  63 0028 A0FB0630 		umull	r3, r0, r0, r6
  64 002c 4008     		lsrs	r0, r0, #1
  65 002e FFF7FEFF 		bl	CyDelay
  66              	.LVL4:
  70:.\movement_functions.c ****     duration = 0;
  71:.\movement_functions.c ****     CS_Write(2);                    
  67              		.loc 1 71 0
  68 0032 0220     		movs	r0, #2
  69 0034 FFF7FEFF 		bl	CS_Write
  70              	.LVL5:
  72:.\movement_functions.c ****     OE_Control=3;
  71              		.loc 1 72 0
  72 0038 84F80080 		strb	r8, [r4]
  73:.\movement_functions.c ****     Data_Out_Control=STOP;
  73              		.loc 1 73 0
  74 003c 3D70     		strb	r5, [r7]
  74:.\movement_functions.c ****     CS_Write(8);
  75              		.loc 1 74 0
  76 003e 0820     		movs	r0, #8
  77 0040 FFF7FEFF 		bl	CS_Write
  78              	.LVL6:
  75:.\movement_functions.c ****     OE_Control=0;
  79              		.loc 1 75 0
  80 0044 2570     		strb	r5, [r4]
  76:.\movement_functions.c ****     CyDelay(10); //10ms Delay to make sure we get steady values for phases.
  81              		.loc 1 76 0
  82 0046 0A20     		movs	r0, #10
  83 0048 FFF7FEFF 		bl	CyDelay
  84              	.LVL7:
  85 004c BDE8F081 		pop	{r4, r5, r6, r7, r8, pc}
  86              	.L4:
  87              		.align	2
  88              	.L3:
  89 0050 7D640040 		.word	1073767549
  90 0054 7A650040 		.word	1073767802
  91 0058 ABAAAAAA 		.word	-1431655765
  92              		.cfi_endproc
  93              	.LFE63:
  94              		.size	Movement, .-Movement
  95              		.section	.text.MovementLeftForward,"ax",%progbits
ARM GAS  C:\Users\Daniel\AppData\Local\Temp\cc7N0DOD.s 			page 4


  96              		.align	2
  97              		.global	MovementLeftForward
  98              		.thumb
  99              		.thumb_func
 100              		.type	MovementLeftForward, %function
 101              	MovementLeftForward:
 102              	.LFB72:
  77:.\movement_functions.c **** }
  78:.\movement_functions.c **** 
  79:.\movement_functions.c **** void MovementLinearCorrected (uint8 direction, uint16 duration) {
  80:.\movement_functions.c ****     //Splits correction into parts, rather than run for ages and then halt.
  81:.\movement_functions.c ****     uint8 i;
  82:.\movement_functions.c ****     int SELeftCompound=0;
  83:.\movement_functions.c ****     int SERightCompound=0;
  84:.\movement_functions.c ****     
  85:.\movement_functions.c ****     for (i=0; duration>0; i++) {
  86:.\movement_functions.c ****         //Reset Quadrature.
  87:.\movement_functions.c ****         MovementResetQuadCount();
  88:.\movement_functions.c ****         //Move
  89:.\movement_functions.c ****         //if(duration>STEP_SIZE){
  90:.\movement_functions.c ****         //    Movement(direction, STEP_SIZE);
  91:.\movement_functions.c ****         //    duration = (duration - STEP_SIZE);
  92:.\movement_functions.c ****         //} else {
  93:.\movement_functions.c ****         if (duration > 420)
  94:.\movement_functions.c ****             duration = duration*3/4;
  95:.\movement_functions.c ****         Movement(direction, duration);
  96:.\movement_functions.c ****         duration=0;
  97:.\movement_functions.c ****         //}
  98:.\movement_functions.c ****         //Aquire Quadrature
  99:.\movement_functions.c ****         //MovementAquireQuadCount();
 100:.\movement_functions.c ****         //SERightCompound+=SERight;
 101:.\movement_functions.c ****         //SELeftCompound+=SELeft;
 102:.\movement_functions.c ****         //Compute Difference & Correct:
 103:.\movement_functions.c ****         //MovementCorrectionFunction(direction==FORWARD, SELeft, SERight);
 104:.\movement_functions.c ****         //SERightCompound+=SERight;
 105:.\movement_functions.c ****         //SELeftCompound+=SELeft;
 106:.\movement_functions.c ****     }
 107:.\movement_functions.c ****     //MovementCorrectionFunction(direction&FORWARD, SELeftCompound, SERightCompound); //Final Corre
 108:.\movement_functions.c ****     SELeftCompound=0;
 109:.\movement_functions.c ****     SERightCompound=0;
 110:.\movement_functions.c ****     
 111:.\movement_functions.c **** }
 112:.\movement_functions.c **** 
 113:.\movement_functions.c **** void MovementForward(uint16 msec){
 114:.\movement_functions.c ****     MovementLinearCorrected(FORWARD, msec);
 115:.\movement_functions.c **** }
 116:.\movement_functions.c **** 
 117:.\movement_functions.c **** void MovementBackward(uint16 msec){
 118:.\movement_functions.c ****     MovementLinearCorrected(BACKWARD, msec);
 119:.\movement_functions.c **** }
 120:.\movement_functions.c **** 
 121:.\movement_functions.c **** /* --------------------------------------- PIVOT ROTATION -----------------------------------------
 122:.\movement_functions.c **** 
 123:.\movement_functions.c **** void MovementPivot(uint8 direction, double angle) {
 124:.\movement_functions.c ****     MovementResetQuadCount();
 125:.\movement_functions.c ****     CS_Write(2);
 126:.\movement_functions.c ****     OE_Control=3;
ARM GAS  C:\Users\Daniel\AppData\Local\Temp\cc7N0DOD.s 			page 5


 127:.\movement_functions.c ****     Data_Out_Control=direction;
 128:.\movement_functions.c ****     CS_Write(8);
 129:.\movement_functions.c ****     OE_Control=0;
 130:.\movement_functions.c ****     if(direction==PIVOT_RIGHT)
 131:.\movement_functions.c ****         while(SELeft>-deg90*angle/90 && SERight<deg90*angle/90){
 132:.\movement_functions.c ****             CyDelay(30);
 133:.\movement_functions.c ****             MovementAquireQuadCount();
 134:.\movement_functions.c ****             
 135:.\movement_functions.c ****         }
 136:.\movement_functions.c ****     else //PIVOT_LEFT
 137:.\movement_functions.c ****         while(SERight>-deg90*angle/90 && SELeft<deg90*angle/90){
 138:.\movement_functions.c ****             CyDelay(30);
 139:.\movement_functions.c ****             MovementAquireQuadCount();
 140:.\movement_functions.c ****         }
 141:.\movement_functions.c ****     CS_Write(2);                    
 142:.\movement_functions.c ****     OE_Control=3;
 143:.\movement_functions.c ****     Data_Out_Control=STOP;
 144:.\movement_functions.c ****     CS_Write(8);
 145:.\movement_functions.c ****     OE_Control=0;
 146:.\movement_functions.c ****     CyDelay(10); //10ms Delay to make sure we get steady values for phases.
 147:.\movement_functions.c ****     
 148:.\movement_functions.c ****     //Reset Counters to prevent Correction of ForwardMovement.
 149:.\movement_functions.c **** }
 150:.\movement_functions.c **** 
 151:.\movement_functions.c **** void MovementPivotRight90(){
 152:.\movement_functions.c ****     MovementPivot(PIVOT_RIGHT,90);
 153:.\movement_functions.c **** }
 154:.\movement_functions.c **** 
 155:.\movement_functions.c **** void MovementPivotLeft90(){
 156:.\movement_functions.c ****     MovementPivot(PIVOT_LEFT,90);
 157:.\movement_functions.c **** }
 158:.\movement_functions.c **** 
 159:.\movement_functions.c **** void MovementPivotRight(double deg) {
 160:.\movement_functions.c ****     MovementPivot(PIVOT_RIGHT,deg);
 161:.\movement_functions.c **** }
 162:.\movement_functions.c **** 
 163:.\movement_functions.c **** void MovementPivotLeft(double deg) {
 164:.\movement_functions.c ****     MovementPivot(PIVOT_LEFT,deg);
 165:.\movement_functions.c **** }
 166:.\movement_functions.c **** 
 167:.\movement_functions.c **** /*------------------------------------------ ONE-WHEEL ROTATION -----------------------------------
 168:.\movement_functions.c **** void MovementLeftForward(uint16 msec){
 103              		.loc 1 168 0
 104              		.cfi_startproc
 105              		@ args = 0, pretend = 0, frame = 0
 106              		@ frame_needed = 0, uses_anonymous_args = 0
 107              	.LVL8:
 108 0000 08B5     		push	{r3, lr}
 109              		.cfi_def_cfa_offset 8
 110              		.cfi_offset 3, -8
 111              		.cfi_offset 14, -4
 112 0002 0146     		mov	r1, r0
 169:.\movement_functions.c ****     Movement(LEFT_FORWARD, msec);
 113              		.loc 1 169 0
 114 0004 8020     		movs	r0, #128
 115              	.LVL9:
 116 0006 FFF7FEFF 		bl	Movement
ARM GAS  C:\Users\Daniel\AppData\Local\Temp\cc7N0DOD.s 			page 6


 117              	.LVL10:
 118 000a 08BD     		pop	{r3, pc}
 119              		.cfi_endproc
 120              	.LFE72:
 121              		.size	MovementLeftForward, .-MovementLeftForward
 122              		.section	.text.MovementRightForward,"ax",%progbits
 123              		.align	2
 124              		.global	MovementRightForward
 125              		.thumb
 126              		.thumb_func
 127              		.type	MovementRightForward, %function
 128              	MovementRightForward:
 129              	.LFB73:
 170:.\movement_functions.c **** }
 171:.\movement_functions.c **** 
 172:.\movement_functions.c **** void MovementRightForward(uint16 msec){
 130              		.loc 1 172 0
 131              		.cfi_startproc
 132              		@ args = 0, pretend = 0, frame = 0
 133              		@ frame_needed = 0, uses_anonymous_args = 0
 134              	.LVL11:
 135 0000 08B5     		push	{r3, lr}
 136              		.cfi_def_cfa_offset 8
 137              		.cfi_offset 3, -8
 138              		.cfi_offset 14, -4
 139 0002 0146     		mov	r1, r0
 173:.\movement_functions.c ****     Movement(RIGHT_FORWARD, msec);
 140              		.loc 1 173 0
 141 0004 2020     		movs	r0, #32
 142              	.LVL12:
 143 0006 FFF7FEFF 		bl	Movement
 144              	.LVL13:
 145 000a 08BD     		pop	{r3, pc}
 146              		.cfi_endproc
 147              	.LFE73:
 148              		.size	MovementRightForward, .-MovementRightForward
 149              		.section	.text.MovementRightBack,"ax",%progbits
 150              		.align	2
 151              		.global	MovementRightBack
 152              		.thumb
 153              		.thumb_func
 154              		.type	MovementRightBack, %function
 155              	MovementRightBack:
 156              	.LFB74:
 174:.\movement_functions.c **** }
 175:.\movement_functions.c **** 
 176:.\movement_functions.c **** void MovementRightBack(uint16 msec){
 157              		.loc 1 176 0
 158              		.cfi_startproc
 159              		@ args = 0, pretend = 0, frame = 0
 160              		@ frame_needed = 0, uses_anonymous_args = 0
 161              	.LVL14:
 162 0000 08B5     		push	{r3, lr}
 163              		.cfi_def_cfa_offset 8
 164              		.cfi_offset 3, -8
 165              		.cfi_offset 14, -4
 166 0002 0146     		mov	r1, r0
ARM GAS  C:\Users\Daniel\AppData\Local\Temp\cc7N0DOD.s 			page 7


 177:.\movement_functions.c ****     Movement(RIGHT_BACKWARD,msec);
 167              		.loc 1 177 0
 168 0004 1020     		movs	r0, #16
 169              	.LVL15:
 170 0006 FFF7FEFF 		bl	Movement
 171              	.LVL16:
 172 000a 08BD     		pop	{r3, pc}
 173              		.cfi_endproc
 174              	.LFE74:
 175              		.size	MovementRightBack, .-MovementRightBack
 176              		.section	.text.MovementLeftBack,"ax",%progbits
 177              		.align	2
 178              		.global	MovementLeftBack
 179              		.thumb
 180              		.thumb_func
 181              		.type	MovementLeftBack, %function
 182              	MovementLeftBack:
 183              	.LFB75:
 178:.\movement_functions.c **** }
 179:.\movement_functions.c **** 
 180:.\movement_functions.c **** void MovementLeftBack(uint16 msec){
 184              		.loc 1 180 0
 185              		.cfi_startproc
 186              		@ args = 0, pretend = 0, frame = 0
 187              		@ frame_needed = 0, uses_anonymous_args = 0
 188              	.LVL17:
 189 0000 08B5     		push	{r3, lr}
 190              		.cfi_def_cfa_offset 8
 191              		.cfi_offset 3, -8
 192              		.cfi_offset 14, -4
 193 0002 0146     		mov	r1, r0
 181:.\movement_functions.c ****     Movement(LEFT_BACKWARD,msec);
 194              		.loc 1 181 0
 195 0004 4020     		movs	r0, #64
 196              	.LVL18:
 197 0006 FFF7FEFF 		bl	Movement
 198              	.LVL19:
 199 000a 08BD     		pop	{r3, pc}
 200              		.cfi_endproc
 201              	.LFE75:
 202              		.size	MovementLeftBack, .-MovementLeftBack
 203              		.section	.text.MovementResetQuadCount,"ax",%progbits
 204              		.align	2
 205              		.global	MovementResetQuadCount
 206              		.thumb
 207              		.thumb_func
 208              		.type	MovementResetQuadCount, %function
 209              	MovementResetQuadCount:
 210              	.LFB76:
 182:.\movement_functions.c **** }
 183:.\movement_functions.c **** 
 184:.\movement_functions.c **** 
 185:.\movement_functions.c **** /*------------------------------------------ CORRECTION FUNCTIONALITY -----------------------------
 186:.\movement_functions.c **** 
 187:.\movement_functions.c **** void MovementResetQuadCount() {
 211              		.loc 1 187 0
 212              		.cfi_startproc
ARM GAS  C:\Users\Daniel\AppData\Local\Temp\cc7N0DOD.s 			page 8


 213              		@ args = 0, pretend = 0, frame = 0
 214              		@ frame_needed = 0, uses_anonymous_args = 0
 215 0000 10B5     		push	{r4, lr}
 216              		.cfi_def_cfa_offset 8
 217              		.cfi_offset 4, -8
 218              		.cfi_offset 14, -4
 188:.\movement_functions.c ****     SERightTot+=SERight;
 219              		.loc 1 188 0
 220 0002 0C4C     		ldr	r4, .L15
 221 0004 B4F90420 		ldrsh	r2, [r4, #4]
 222 0008 2368     		ldr	r3, [r4]
 223 000a 1344     		add	r3, r3, r2
 224 000c 2360     		str	r3, [r4]
 189:.\movement_functions.c ****     SELeftTot+=SELeft;
 225              		.loc 1 189 0
 226 000e B4F90C20 		ldrsh	r2, [r4, #12]
 227 0012 A368     		ldr	r3, [r4, #8]
 228 0014 1344     		add	r3, r3, r2
 229 0016 A360     		str	r3, [r4, #8]
 190:.\movement_functions.c ****     
 191:.\movement_functions.c ****     Quad_1_SetCounter(0);
 230              		.loc 1 191 0
 231 0018 0020     		movs	r0, #0
 232 001a FFF7FEFF 		bl	Quad_1_SetCounter
 233              	.LVL20:
 192:.\movement_functions.c ****     Quad_2_SetCounter(0);
 234              		.loc 1 192 0
 235 001e 0020     		movs	r0, #0
 236 0020 FFF7FEFF 		bl	Quad_2_SetCounter
 237              	.LVL21:
 193:.\movement_functions.c ****     SERight=Quad_1_GetCounter(); //SE1 A&B
 238              		.loc 1 193 0
 239 0024 FFF7FEFF 		bl	Quad_1_GetCounter
 240              	.LVL22:
 241 0028 A080     		strh	r0, [r4, #4]	@ movhi
 194:.\movement_functions.c ****     SELeft=Quad_2_GetCounter(); //SE2 A&B
 242              		.loc 1 194 0
 243 002a FFF7FEFF 		bl	Quad_2_GetCounter
 244              	.LVL23:
 245 002e A081     		strh	r0, [r4, #12]	@ movhi
 246 0030 10BD     		pop	{r4, pc}
 247              	.L16:
 248 0032 00BF     		.align	2
 249              	.L15:
 250 0034 00000000 		.word	.LANCHOR0
 251              		.cfi_endproc
 252              	.LFE76:
 253              		.size	MovementResetQuadCount, .-MovementResetQuadCount
 254              		.section	.text.MovementLinearCorrected,"ax",%progbits
 255              		.align	2
 256              		.global	MovementLinearCorrected
 257              		.thumb
 258              		.thumb_func
 259              		.type	MovementLinearCorrected, %function
 260              	MovementLinearCorrected:
 261              	.LFB64:
  79:.\movement_functions.c ****     //Splits correction into parts, rather than run for ages and then halt.
ARM GAS  C:\Users\Daniel\AppData\Local\Temp\cc7N0DOD.s 			page 9


 262              		.loc 1 79 0
 263              		.cfi_startproc
 264              		@ args = 0, pretend = 0, frame = 0
 265              		@ frame_needed = 0, uses_anonymous_args = 0
 266              	.LVL24:
 267 0000 38B5     		push	{r3, r4, r5, lr}
 268              		.cfi_def_cfa_offset 16
 269              		.cfi_offset 3, -16
 270              		.cfi_offset 4, -12
 271              		.cfi_offset 5, -8
 272              		.cfi_offset 14, -4
 273 0002 0546     		mov	r5, r0
 274 0004 0C46     		mov	r4, r1
 275              	.LVL25:
  85:.\movement_functions.c ****         //Reset Quadrature.
 276              		.loc 1 85 0
 277 0006 11E0     		b	.L18
 278              	.LVL26:
 279              	.L21:
  87:.\movement_functions.c ****         //Move
 280              		.loc 1 87 0
 281 0008 FFF7FEFF 		bl	MovementResetQuadCount
 282              	.LVL27:
  93:.\movement_functions.c ****             duration = duration*3/4;
 283              		.loc 1 93 0
 284 000c B4F5D27F 		cmp	r4, #420
 285 0010 07D9     		bls	.L19
  94:.\movement_functions.c ****         Movement(direction, duration);
 286              		.loc 1 94 0
 287 0012 04EB4404 		add	r4, r4, r4, lsl #1
 288              	.LVL28:
 289 0016 2346     		mov	r3, r4
 290 0018 002C     		cmp	r4, #0
 291 001a 00DA     		bge	.L20
 292 001c E31C     		adds	r3, r4, #3
 293              	.L20:
 294 001e C3F38F04 		ubfx	r4, r3, #2, #16
 295              	.LVL29:
 296              	.L19:
  95:.\movement_functions.c ****         duration=0;
 297              		.loc 1 95 0 discriminator 2
 298 0022 2846     		mov	r0, r5
 299 0024 2146     		mov	r1, r4
 300 0026 FFF7FEFF 		bl	Movement
 301              	.LVL30:
  96:.\movement_functions.c ****         //}
 302              		.loc 1 96 0 discriminator 2
 303 002a 0024     		movs	r4, #0
 304              	.LVL31:
 305              	.L18:
  85:.\movement_functions.c ****         //Reset Quadrature.
 306              		.loc 1 85 0 discriminator 1
 307 002c 002C     		cmp	r4, #0
 308 002e EBD1     		bne	.L21
 111:.\movement_functions.c **** 
 309              		.loc 1 111 0
 310 0030 38BD     		pop	{r3, r4, r5, pc}
ARM GAS  C:\Users\Daniel\AppData\Local\Temp\cc7N0DOD.s 			page 10


 311              		.cfi_endproc
 312              	.LFE64:
 313              		.size	MovementLinearCorrected, .-MovementLinearCorrected
 314 0032 00BF     		.section	.text.MovementForward,"ax",%progbits
 315              		.align	2
 316              		.global	MovementForward
 317              		.thumb
 318              		.thumb_func
 319              		.type	MovementForward, %function
 320              	MovementForward:
 321              	.LFB65:
 113:.\movement_functions.c ****     MovementLinearCorrected(FORWARD, msec);
 322              		.loc 1 113 0
 323              		.cfi_startproc
 324              		@ args = 0, pretend = 0, frame = 0
 325              		@ frame_needed = 0, uses_anonymous_args = 0
 326              	.LVL32:
 327 0000 08B5     		push	{r3, lr}
 328              		.cfi_def_cfa_offset 8
 329              		.cfi_offset 3, -8
 330              		.cfi_offset 14, -4
 331 0002 0146     		mov	r1, r0
 114:.\movement_functions.c **** }
 332              		.loc 1 114 0
 333 0004 A020     		movs	r0, #160
 334              	.LVL33:
 335 0006 FFF7FEFF 		bl	MovementLinearCorrected
 336              	.LVL34:
 337 000a 08BD     		pop	{r3, pc}
 338              		.cfi_endproc
 339              	.LFE65:
 340              		.size	MovementForward, .-MovementForward
 341              		.section	.text.MovementBackward,"ax",%progbits
 342              		.align	2
 343              		.global	MovementBackward
 344              		.thumb
 345              		.thumb_func
 346              		.type	MovementBackward, %function
 347              	MovementBackward:
 348              	.LFB66:
 117:.\movement_functions.c ****     MovementLinearCorrected(BACKWARD, msec);
 349              		.loc 1 117 0
 350              		.cfi_startproc
 351              		@ args = 0, pretend = 0, frame = 0
 352              		@ frame_needed = 0, uses_anonymous_args = 0
 353              	.LVL35:
 354 0000 08B5     		push	{r3, lr}
 355              		.cfi_def_cfa_offset 8
 356              		.cfi_offset 3, -8
 357              		.cfi_offset 14, -4
 358 0002 0146     		mov	r1, r0
 118:.\movement_functions.c **** }
 359              		.loc 1 118 0
 360 0004 5020     		movs	r0, #80
 361              	.LVL36:
 362 0006 FFF7FEFF 		bl	MovementLinearCorrected
 363              	.LVL37:
ARM GAS  C:\Users\Daniel\AppData\Local\Temp\cc7N0DOD.s 			page 11


 364 000a 08BD     		pop	{r3, pc}
 365              		.cfi_endproc
 366              	.LFE66:
 367              		.size	MovementBackward, .-MovementBackward
 368              		.section	.text.MovementAquireQuadCount,"ax",%progbits
 369              		.align	2
 370              		.global	MovementAquireQuadCount
 371              		.thumb
 372              		.thumb_func
 373              		.type	MovementAquireQuadCount, %function
 374              	MovementAquireQuadCount:
 375              	.LFB77:
 195:.\movement_functions.c **** }
 196:.\movement_functions.c **** 
 197:.\movement_functions.c **** void MovementAquireQuadCount() {
 376              		.loc 1 197 0
 377              		.cfi_startproc
 378              		@ args = 0, pretend = 0, frame = 0
 379              		@ frame_needed = 0, uses_anonymous_args = 0
 380 0000 10B5     		push	{r4, lr}
 381              		.cfi_def_cfa_offset 8
 382              		.cfi_offset 4, -8
 383              		.cfi_offset 14, -4
 198:.\movement_functions.c ****     SERight=Quad_1_GetCounter(); //SE1 A&B
 384              		.loc 1 198 0
 385 0002 FFF7FEFF 		bl	Quad_1_GetCounter
 386              	.LVL38:
 387 0006 034C     		ldr	r4, .L29
 388 0008 A080     		strh	r0, [r4, #4]	@ movhi
 199:.\movement_functions.c ****     SELeft=Quad_2_GetCounter(); //SE2 A&B
 389              		.loc 1 199 0
 390 000a FFF7FEFF 		bl	Quad_2_GetCounter
 391              	.LVL39:
 392 000e A081     		strh	r0, [r4, #12]	@ movhi
 393 0010 10BD     		pop	{r4, pc}
 394              	.L30:
 395 0012 00BF     		.align	2
 396              	.L29:
 397 0014 00000000 		.word	.LANCHOR0
 398              		.cfi_endproc
 399              	.LFE77:
 400              		.size	MovementAquireQuadCount, .-MovementAquireQuadCount
 401              		.global	__aeabi_i2d
 402              		.global	__aeabi_dmul
 403              		.global	__aeabi_ddiv
 404              		.global	__aeabi_dcmpgt
 405              		.global	__aeabi_dcmplt
 406              		.section	.text.MovementPivot,"ax",%progbits
 407              		.align	2
 408              		.global	MovementPivot
 409              		.thumb
 410              		.thumb_func
 411              		.type	MovementPivot, %function
 412              	MovementPivot:
 413              	.LFB67:
 123:.\movement_functions.c ****     MovementResetQuadCount();
 414              		.loc 1 123 0
ARM GAS  C:\Users\Daniel\AppData\Local\Temp\cc7N0DOD.s 			page 12


 415              		.cfi_startproc
 416              		@ args = 0, pretend = 0, frame = 0
 417              		@ frame_needed = 0, uses_anonymous_args = 0
 418              	.LVL40:
 419 0000 F8B5     		push	{r3, r4, r5, r6, r7, lr}
 420              		.cfi_def_cfa_offset 24
 421              		.cfi_offset 3, -24
 422              		.cfi_offset 4, -20
 423              		.cfi_offset 5, -16
 424              		.cfi_offset 6, -12
 425              		.cfi_offset 7, -8
 426              		.cfi_offset 14, -4
 427 0002 0646     		mov	r6, r0
 428 0004 1446     		mov	r4, r2
 429 0006 1D46     		mov	r5, r3
 124:.\movement_functions.c ****     CS_Write(2);
 430              		.loc 1 124 0
 431 0008 FFF7FEFF 		bl	MovementResetQuadCount
 432              	.LVL41:
 125:.\movement_functions.c ****     OE_Control=3;
 433              		.loc 1 125 0
 434 000c 0220     		movs	r0, #2
 435 000e FFF7FEFF 		bl	CS_Write
 436              	.LVL42:
 126:.\movement_functions.c ****     Data_Out_Control=direction;
 437              		.loc 1 126 0
 438 0012 4D4F     		ldr	r7, .L42+16
 439 0014 0323     		movs	r3, #3
 440 0016 3B70     		strb	r3, [r7]
 127:.\movement_functions.c ****     CS_Write(8);
 441              		.loc 1 127 0
 442 0018 4C4B     		ldr	r3, .L42+20
 443 001a 1E70     		strb	r6, [r3]
 128:.\movement_functions.c ****     OE_Control=0;
 444              		.loc 1 128 0
 445 001c 0820     		movs	r0, #8
 446 001e FFF7FEFF 		bl	CS_Write
 447              	.LVL43:
 129:.\movement_functions.c ****     if(direction==PIVOT_RIGHT)
 448              		.loc 1 129 0
 449 0022 0023     		movs	r3, #0
 450 0024 3B70     		strb	r3, [r7]
 130:.\movement_functions.c ****         while(SELeft>-deg90*angle/90 && SERight<deg90*angle/90){
 451              		.loc 1 130 0
 452 0026 902E     		cmp	r6, #144
 453 0028 3FD1     		bne	.L33
 454 002a 04E0     		b	.L32
 455              	.L36:
 132:.\movement_functions.c ****             MovementAquireQuadCount();
 456              		.loc 1 132 0
 457 002c 1E20     		movs	r0, #30
 458 002e FFF7FEFF 		bl	CyDelay
 459              	.LVL44:
 133:.\movement_functions.c ****             
 460              		.loc 1 133 0
 461 0032 FFF7FEFF 		bl	MovementAquireQuadCount
 462              	.LVL45:
ARM GAS  C:\Users\Daniel\AppData\Local\Temp\cc7N0DOD.s 			page 13


 463              	.L32:
 131:.\movement_functions.c ****             CyDelay(30);
 464              		.loc 1 131 0
 465 0036 464B     		ldr	r3, .L42+24
 466 0038 B3F90C00 		ldrsh	r0, [r3, #12]
 467 003c FFF7FEFF 		bl	__aeabi_i2d
 468              	.LVL46:
 469 0040 0646     		mov	r6, r0
 470 0042 0F46     		mov	r7, r1
 471 0044 2046     		mov	r0, r4
 472 0046 2946     		mov	r1, r5
 473 0048 3BA3     		adr	r3, .L42
 474 004a D3E90023 		ldrd	r2, [r3]
 475 004e FFF7FEFF 		bl	__aeabi_dmul
 476              	.LVL47:
 477 0052 0022     		movs	r2, #0
 478 0054 3F4B     		ldr	r3, .L42+28
 479 0056 FFF7FEFF 		bl	__aeabi_ddiv
 480              	.LVL48:
 481 005a 0246     		mov	r2, r0
 482 005c 0B46     		mov	r3, r1
 483 005e 3046     		mov	r0, r6
 484 0060 3946     		mov	r1, r7
 485 0062 FFF7FEFF 		bl	__aeabi_dcmpgt
 486              	.LVL49:
 487 0066 0028     		cmp	r0, #0
 488 0068 52D0     		beq	.L34
 131:.\movement_functions.c ****             CyDelay(30);
 489              		.loc 1 131 0 is_stmt 0 discriminator 1
 490 006a 394B     		ldr	r3, .L42+24
 491 006c B3F90400 		ldrsh	r0, [r3, #4]
 492 0070 FFF7FEFF 		bl	__aeabi_i2d
 493              	.LVL50:
 494 0074 0646     		mov	r6, r0
 495 0076 0F46     		mov	r7, r1
 496 0078 2046     		mov	r0, r4
 497 007a 2946     		mov	r1, r5
 498 007c 30A3     		adr	r3, .L42+8
 499 007e D3E90023 		ldrd	r2, [r3]
 500 0082 FFF7FEFF 		bl	__aeabi_dmul
 501              	.LVL51:
 502 0086 0022     		movs	r2, #0
 503 0088 324B     		ldr	r3, .L42+28
 504 008a FFF7FEFF 		bl	__aeabi_ddiv
 505              	.LVL52:
 506 008e 0246     		mov	r2, r0
 507 0090 0B46     		mov	r3, r1
 508 0092 3046     		mov	r0, r6
 509 0094 3946     		mov	r1, r7
 510 0096 FFF7FEFF 		bl	__aeabi_dcmplt
 511              	.LVL53:
 512 009a 0028     		cmp	r0, #0
 513 009c C6D1     		bne	.L36
 514 009e 37E0     		b	.L34
 515              	.L38:
 138:.\movement_functions.c ****             MovementAquireQuadCount();
 516              		.loc 1 138 0 is_stmt 1
ARM GAS  C:\Users\Daniel\AppData\Local\Temp\cc7N0DOD.s 			page 14


 517 00a0 1E20     		movs	r0, #30
 518 00a2 FFF7FEFF 		bl	CyDelay
 519              	.LVL54:
 139:.\movement_functions.c ****         }
 520              		.loc 1 139 0
 521 00a6 FFF7FEFF 		bl	MovementAquireQuadCount
 522              	.LVL55:
 523              	.L33:
 137:.\movement_functions.c ****             CyDelay(30);
 524              		.loc 1 137 0
 525 00aa 294B     		ldr	r3, .L42+24
 526 00ac B3F90400 		ldrsh	r0, [r3, #4]
 527 00b0 FFF7FEFF 		bl	__aeabi_i2d
 528              	.LVL56:
 529 00b4 0646     		mov	r6, r0
 530 00b6 0F46     		mov	r7, r1
 531 00b8 2046     		mov	r0, r4
 532 00ba 2946     		mov	r1, r5
 533 00bc 1EA3     		adr	r3, .L42
 534 00be D3E90023 		ldrd	r2, [r3]
 535 00c2 FFF7FEFF 		bl	__aeabi_dmul
 536              	.LVL57:
 537 00c6 0022     		movs	r2, #0
 538 00c8 224B     		ldr	r3, .L42+28
 539 00ca FFF7FEFF 		bl	__aeabi_ddiv
 540              	.LVL58:
 541 00ce 0246     		mov	r2, r0
 542 00d0 0B46     		mov	r3, r1
 543 00d2 3046     		mov	r0, r6
 544 00d4 3946     		mov	r1, r7
 545 00d6 FFF7FEFF 		bl	__aeabi_dcmpgt
 546              	.LVL59:
 547 00da C8B1     		cbz	r0, .L34
 137:.\movement_functions.c ****             CyDelay(30);
 548              		.loc 1 137 0 is_stmt 0 discriminator 1
 549 00dc 1C4B     		ldr	r3, .L42+24
 550 00de B3F90C00 		ldrsh	r0, [r3, #12]
 551 00e2 FFF7FEFF 		bl	__aeabi_i2d
 552              	.LVL60:
 553 00e6 0646     		mov	r6, r0
 554 00e8 0F46     		mov	r7, r1
 555 00ea 2046     		mov	r0, r4
 556 00ec 2946     		mov	r1, r5
 557 00ee 14A3     		adr	r3, .L42+8
 558 00f0 D3E90023 		ldrd	r2, [r3]
 559 00f4 FFF7FEFF 		bl	__aeabi_dmul
 560              	.LVL61:
 561 00f8 0022     		movs	r2, #0
 562 00fa 164B     		ldr	r3, .L42+28
 563 00fc FFF7FEFF 		bl	__aeabi_ddiv
 564              	.LVL62:
 565 0100 0246     		mov	r2, r0
 566 0102 0B46     		mov	r3, r1
 567 0104 3046     		mov	r0, r6
 568 0106 3946     		mov	r1, r7
 569 0108 FFF7FEFF 		bl	__aeabi_dcmplt
 570              	.LVL63:
ARM GAS  C:\Users\Daniel\AppData\Local\Temp\cc7N0DOD.s 			page 15


 571 010c 0028     		cmp	r0, #0
 572 010e C7D1     		bne	.L38
 573              	.L34:
 141:.\movement_functions.c ****     OE_Control=3;
 574              		.loc 1 141 0 is_stmt 1
 575 0110 0220     		movs	r0, #2
 576 0112 FFF7FEFF 		bl	CS_Write
 577              	.LVL64:
 142:.\movement_functions.c ****     Data_Out_Control=STOP;
 578              		.loc 1 142 0
 579 0116 0C4C     		ldr	r4, .L42+16
 580 0118 0323     		movs	r3, #3
 581 011a 2370     		strb	r3, [r4]
 143:.\movement_functions.c ****     CS_Write(8);
 582              		.loc 1 143 0
 583 011c 0025     		movs	r5, #0
 584 011e 0B4B     		ldr	r3, .L42+20
 585 0120 1D70     		strb	r5, [r3]
 144:.\movement_functions.c ****     OE_Control=0;
 586              		.loc 1 144 0
 587 0122 0820     		movs	r0, #8
 588 0124 FFF7FEFF 		bl	CS_Write
 589              	.LVL65:
 145:.\movement_functions.c ****     CyDelay(10); //10ms Delay to make sure we get steady values for phases.
 590              		.loc 1 145 0
 591 0128 2570     		strb	r5, [r4]
 146:.\movement_functions.c ****     
 592              		.loc 1 146 0
 593 012a 0A20     		movs	r0, #10
 594 012c FFF7FEFF 		bl	CyDelay
 595              	.LVL66:
 596 0130 F8BD     		pop	{r3, r4, r5, r6, r7, pc}
 597              	.L43:
 598 0132 00BFAFF3 		.align	3
 598      0080
 599              	.L42:
 600 0138 00000000 		.word	0
 601 013c 0020ACC0 		.word	-1062461440
 602 0140 00000000 		.word	0
 603 0144 0020AC40 		.word	1085022208
 604 0148 7D640040 		.word	1073767549
 605 014c 7A650040 		.word	1073767802
 606 0150 00000000 		.word	.LANCHOR0
 607 0154 00805640 		.word	1079410688
 608              		.cfi_endproc
 609              	.LFE67:
 610              		.size	MovementPivot, .-MovementPivot
 611              		.section	.text.MovementPivotRight90,"ax",%progbits
 612              		.align	2
 613              		.global	MovementPivotRight90
 614              		.thumb
 615              		.thumb_func
 616              		.type	MovementPivotRight90, %function
 617              	MovementPivotRight90:
 618              	.LFB68:
 151:.\movement_functions.c ****     MovementPivot(PIVOT_RIGHT,90);
 619              		.loc 1 151 0
ARM GAS  C:\Users\Daniel\AppData\Local\Temp\cc7N0DOD.s 			page 16


 620              		.cfi_startproc
 621              		@ args = 0, pretend = 0, frame = 0
 622              		@ frame_needed = 0, uses_anonymous_args = 0
 623 0000 08B5     		push	{r3, lr}
 624              		.cfi_def_cfa_offset 8
 625              		.cfi_offset 3, -8
 626              		.cfi_offset 14, -4
 152:.\movement_functions.c **** }
 627              		.loc 1 152 0
 628 0002 9020     		movs	r0, #144
 629 0004 0022     		movs	r2, #0
 630 0006 024B     		ldr	r3, .L46
 631 0008 FFF7FEFF 		bl	MovementPivot
 632              	.LVL67:
 633 000c 08BD     		pop	{r3, pc}
 634              	.L47:
 635 000e 00BF     		.align	2
 636              	.L46:
 637 0010 00805640 		.word	1079410688
 638              		.cfi_endproc
 639              	.LFE68:
 640              		.size	MovementPivotRight90, .-MovementPivotRight90
 641              		.section	.text.MovementPivotLeft90,"ax",%progbits
 642              		.align	2
 643              		.global	MovementPivotLeft90
 644              		.thumb
 645              		.thumb_func
 646              		.type	MovementPivotLeft90, %function
 647              	MovementPivotLeft90:
 648              	.LFB69:
 155:.\movement_functions.c ****     MovementPivot(PIVOT_LEFT,90);
 649              		.loc 1 155 0
 650              		.cfi_startproc
 651              		@ args = 0, pretend = 0, frame = 0
 652              		@ frame_needed = 0, uses_anonymous_args = 0
 653 0000 08B5     		push	{r3, lr}
 654              		.cfi_def_cfa_offset 8
 655              		.cfi_offset 3, -8
 656              		.cfi_offset 14, -4
 156:.\movement_functions.c **** }
 657              		.loc 1 156 0
 658 0002 6020     		movs	r0, #96
 659 0004 0022     		movs	r2, #0
 660 0006 024B     		ldr	r3, .L50
 661 0008 FFF7FEFF 		bl	MovementPivot
 662              	.LVL68:
 663 000c 08BD     		pop	{r3, pc}
 664              	.L51:
 665 000e 00BF     		.align	2
 666              	.L50:
 667 0010 00805640 		.word	1079410688
 668              		.cfi_endproc
 669              	.LFE69:
 670              		.size	MovementPivotLeft90, .-MovementPivotLeft90
 671              		.section	.text.MovementPivotRight,"ax",%progbits
 672              		.align	2
 673              		.global	MovementPivotRight
ARM GAS  C:\Users\Daniel\AppData\Local\Temp\cc7N0DOD.s 			page 17


 674              		.thumb
 675              		.thumb_func
 676              		.type	MovementPivotRight, %function
 677              	MovementPivotRight:
 678              	.LFB70:
 159:.\movement_functions.c ****     MovementPivot(PIVOT_RIGHT,deg);
 679              		.loc 1 159 0
 680              		.cfi_startproc
 681              		@ args = 0, pretend = 0, frame = 0
 682              		@ frame_needed = 0, uses_anonymous_args = 0
 683              	.LVL69:
 684 0000 08B5     		push	{r3, lr}
 685              		.cfi_def_cfa_offset 8
 686              		.cfi_offset 3, -8
 687              		.cfi_offset 14, -4
 688 0002 0246     		mov	r2, r0
 689 0004 0B46     		mov	r3, r1
 160:.\movement_functions.c **** }
 690              		.loc 1 160 0
 691 0006 9020     		movs	r0, #144
 692              	.LVL70:
 693 0008 FFF7FEFF 		bl	MovementPivot
 694              	.LVL71:
 695 000c 08BD     		pop	{r3, pc}
 696              		.cfi_endproc
 697              	.LFE70:
 698              		.size	MovementPivotRight, .-MovementPivotRight
 699 000e 00BF     		.section	.text.MovementPivotLeft,"ax",%progbits
 700              		.align	2
 701              		.global	MovementPivotLeft
 702              		.thumb
 703              		.thumb_func
 704              		.type	MovementPivotLeft, %function
 705              	MovementPivotLeft:
 706              	.LFB71:
 163:.\movement_functions.c ****     MovementPivot(PIVOT_LEFT,deg);
 707              		.loc 1 163 0
 708              		.cfi_startproc
 709              		@ args = 0, pretend = 0, frame = 0
 710              		@ frame_needed = 0, uses_anonymous_args = 0
 711              	.LVL72:
 712 0000 08B5     		push	{r3, lr}
 713              		.cfi_def_cfa_offset 8
 714              		.cfi_offset 3, -8
 715              		.cfi_offset 14, -4
 716 0002 0246     		mov	r2, r0
 717 0004 0B46     		mov	r3, r1
 164:.\movement_functions.c **** }
 718              		.loc 1 164 0
 719 0006 6020     		movs	r0, #96
 720              	.LVL73:
 721 0008 FFF7FEFF 		bl	MovementPivot
 722              	.LVL74:
 723 000c 08BD     		pop	{r3, pc}
 724              		.cfi_endproc
 725              	.LFE71:
 726              		.size	MovementPivotLeft, .-MovementPivotLeft
ARM GAS  C:\Users\Daniel\AppData\Local\Temp\cc7N0DOD.s 			page 18


 727 000e 00BF     		.section	.text.MovementCorrectionFunction,"ax",%progbits
 728              		.align	2
 729              		.global	MovementCorrectionFunction
 730              		.thumb
 731              		.thumb_func
 732              		.type	MovementCorrectionFunction, %function
 733              	MovementCorrectionFunction:
 734              	.LFB78:
 200:.\movement_functions.c **** }
 201:.\movement_functions.c **** 
 202:.\movement_functions.c **** void MovementCorrectionFunction(bool fwd, int SEL, int SER) {
 735              		.loc 1 202 0
 736              		.cfi_startproc
 737              		@ args = 0, pretend = 0, frame = 0
 738              		@ frame_needed = 0, uses_anonymous_args = 0
 739              	.LVL75:
 740 0000 38B5     		push	{r3, r4, r5, lr}
 741              		.cfi_def_cfa_offset 16
 742              		.cfi_offset 3, -16
 743              		.cfi_offset 4, -12
 744              		.cfi_offset 5, -8
 745              		.cfi_offset 14, -4
 746 0002 0546     		mov	r5, r0
 203:.\movement_functions.c ****     /* 1s of Movement Forward: 
 204:.\movement_functions.c ****         Se1 -> 0x0C7D = 3197 //Right Wheel
 205:.\movement_functions.c **** 	    Se2 -> 0xBCD = 3021
 206:.\movement_functions.c **** 		Difference = 173
 207:.\movement_functions.c ****     */
 208:.\movement_functions.c ****     int diff = SEL-SER;
 747              		.loc 1 208 0
 748 0004 8C1A     		subs	r4, r1, r2
 749              	.LVL76:
 209:.\movement_functions.c ****     const int ratio = 3; //Approx 3 Revolutions per Millisecond.
 210:.\movement_functions.c ****     
 211:.\movement_functions.c ****     //While outside of appropiate bounds:
 212:.\movement_functions.c ****     while (diff > MIN_DIF || diff < -MIN_DIF) {//  &&(abs(diff))// Doesn't work for some reason...(
 750              		.loc 1 212 0
 751 0006 33E0     		b	.L57
 752              	.LVL77:
 753              	.L62:
 213:.\movement_functions.c ****         //Start Counters..
 214:.\movement_functions.c ****         MovementResetQuadCount();
 754              		.loc 1 214 0
 755 0008 FFF7FEFF 		bl	MovementResetQuadCount
 756              	.LVL78:
 215:.\movement_functions.c ****         //Figure out direction of Correction.
 216:.\movement_functions.c ****         if (diff > 0) { //Right ahead of Left
 757              		.loc 1 216 0
 758 000c 002C     		cmp	r4, #0
 759 000e 12DD     		ble	.L58
 217:.\movement_functions.c ****             if(fwd){//Correct by adjusting Right back to left.
 760              		.loc 1 217 0
 761 0010 45B1     		cbz	r5, .L59
 218:.\movement_functions.c ****                MovementRightBack(diff/ratio);
 762              		.loc 1 218 0
 763 0012 1A48     		ldr	r0, .L64
 764 0014 80FB0430 		smull	r3, r0, r0, r4
ARM GAS  C:\Users\Daniel\AppData\Local\Temp\cc7N0DOD.s 			page 19


 765 0018 A0EBE470 		sub	r0, r0, r4, asr #31
 766 001c 80B2     		uxth	r0, r0
 767 001e FFF7FEFF 		bl	MovementRightBack
 768              	.LVL79:
 769 0022 1CE0     		b	.L60
 770              	.L59:
 219:.\movement_functions.c ****             } else { //Correct by adjusting left forward to right.
 220:.\movement_functions.c ****                MovementLeftForward(diff/ratio);
 771              		.loc 1 220 0
 772 0024 1548     		ldr	r0, .L64
 773 0026 80FB0430 		smull	r3, r0, r0, r4
 774 002a A0EBE470 		sub	r0, r0, r4, asr #31
 775 002e 80B2     		uxth	r0, r0
 776 0030 FFF7FEFF 		bl	MovementLeftForward
 777              	.LVL80:
 778 0034 13E0     		b	.L60
 779              	.L58:
 221:.\movement_functions.c ****             }
 222:.\movement_functions.c ****         } else { //Left ahead of Right. Difference is negative, so need to invert sign.
 223:.\movement_functions.c ****             if(fwd){ //Correct by adjusting left back to right.
 780              		.loc 1 223 0
 781 0036 4DB1     		cbz	r5, .L61
 224:.\movement_functions.c ****                 MovementLeftBack(-diff/ratio);
 782              		.loc 1 224 0
 783 0038 6042     		negs	r0, r4
 784 003a 104B     		ldr	r3, .L64
 785 003c 83FB0023 		smull	r2, r3, r3, r0
 786 0040 A3EBE070 		sub	r0, r3, r0, asr #31
 787 0044 80B2     		uxth	r0, r0
 788 0046 FFF7FEFF 		bl	MovementLeftBack
 789              	.LVL81:
 790 004a 08E0     		b	.L60
 791              	.L61:
 225:.\movement_functions.c ****             } else { //Correct by adusting right forward to left.
 226:.\movement_functions.c ****                 MovementRightForward(-diff/ratio);
 792              		.loc 1 226 0
 793 004c 6042     		negs	r0, r4
 794 004e 0B4B     		ldr	r3, .L64
 795 0050 83FB0023 		smull	r2, r3, r3, r0
 796 0054 A3EBE070 		sub	r0, r3, r0, asr #31
 797 0058 80B2     		uxth	r0, r0
 798 005a FFF7FEFF 		bl	MovementRightForward
 799              	.LVL82:
 800              	.L60:
 227:.\movement_functions.c ****             }
 228:.\movement_functions.c ****         }
 229:.\movement_functions.c ****         MovementAquireQuadCount();
 801              		.loc 1 229 0
 802 005e FFF7FEFF 		bl	MovementAquireQuadCount
 803              	.LVL83:
 230:.\movement_functions.c ****         diff = diff + (SELeft-SERight); //Add new diff to counter.
 804              		.loc 1 230 0
 805 0062 074A     		ldr	r2, .L64+4
 806 0064 B2F90C30 		ldrsh	r3, [r2, #12]
 807 0068 B2F90420 		ldrsh	r2, [r2, #4]
 808 006c 9B1A     		subs	r3, r3, r2
 809 006e 1C44     		add	r4, r4, r3
ARM GAS  C:\Users\Daniel\AppData\Local\Temp\cc7N0DOD.s 			page 20


 810              	.LVL84:
 811              	.L57:
 212:.\movement_functions.c ****         //Start Counters..
 812              		.loc 1 212 0
 813 0070 04F11403 		add	r3, r4, #20
 814 0074 282B     		cmp	r3, #40
 815 0076 C7D8     		bhi	.L62
 231:.\movement_functions.c ****     }
 232:.\movement_functions.c **** }
 816              		.loc 1 232 0
 817 0078 38BD     		pop	{r3, r4, r5, pc}
 818              	.LVL85:
 819              	.L65:
 820 007a 00BF     		.align	2
 821              	.L64:
 822 007c 56555555 		.word	1431655766
 823 0080 00000000 		.word	.LANCHOR0
 824              		.cfi_endproc
 825              	.LFE78:
 826              		.size	MovementCorrectionFunction, .-MovementCorrectionFunction
 827              		.global	deg90
 828              		.global	MIN_DIF
 829              		.global	STEP_SIZE
 830              		.global	STOP
 831              		.global	PIVOT_RIGHT
 832              		.global	PIVOT_LEFT
 833              		.global	LEFT_BACKWARD
 834              		.global	LEFT_FORWARD
 835              		.global	RIGHT_BACKWARD
 836              		.global	RIGHT_FORWARD
 837              		.global	BACKWARD
 838              		.global	FORWARD
 839              		.global	SERightTot
 840              		.global	SELeftTot
 841              		.global	SELeft
 842              		.global	SERight
 843              		.comm	Camera_linebuffer,640,4
 844              		.section	.rodata
 845              		.align	1
 846              		.type	deg90, %object
 847              		.size	deg90, 2
 848              	deg90:
 849 0000 100E     		.short	3600
 850              		.type	MIN_DIF, %object
 851              		.size	MIN_DIF, 1
 852              	MIN_DIF:
 853 0002 14       		.byte	20
 854 0003 00       		.space	1
 855              		.type	STEP_SIZE, %object
 856              		.size	STEP_SIZE, 2
 857              	STEP_SIZE:
 858 0004 E803     		.short	1000
 859              		.type	STOP, %object
 860              		.size	STOP, 1
 861              	STOP:
 862 0006 00       		.space	1
 863              		.type	PIVOT_RIGHT, %object
ARM GAS  C:\Users\Daniel\AppData\Local\Temp\cc7N0DOD.s 			page 21


 864              		.size	PIVOT_RIGHT, 1
 865              	PIVOT_RIGHT:
 866 0007 90       		.byte	-112
 867              		.type	PIVOT_LEFT, %object
 868              		.size	PIVOT_LEFT, 1
 869              	PIVOT_LEFT:
 870 0008 60       		.byte	96
 871              		.type	LEFT_BACKWARD, %object
 872              		.size	LEFT_BACKWARD, 1
 873              	LEFT_BACKWARD:
 874 0009 40       		.byte	64
 875              		.type	LEFT_FORWARD, %object
 876              		.size	LEFT_FORWARD, 1
 877              	LEFT_FORWARD:
 878 000a 80       		.byte	-128
 879              		.type	RIGHT_BACKWARD, %object
 880              		.size	RIGHT_BACKWARD, 1
 881              	RIGHT_BACKWARD:
 882 000b 10       		.byte	16
 883              		.type	RIGHT_FORWARD, %object
 884              		.size	RIGHT_FORWARD, 1
 885              	RIGHT_FORWARD:
 886 000c 20       		.byte	32
 887              		.type	BACKWARD, %object
 888              		.size	BACKWARD, 1
 889              	BACKWARD:
 890 000d 50       		.byte	80
 891              		.type	FORWARD, %object
 892              		.size	FORWARD, 1
 893              	FORWARD:
 894 000e A0       		.byte	-96
 895 000f 00       		.bss
 896              		.align	2
 897              		.set	.LANCHOR0,. + 0
 898              		.type	SERightTot, %object
 899              		.size	SERightTot, 4
 900              	SERightTot:
 901 0000 00000000 		.space	4
 902              		.type	SERight, %object
 903              		.size	SERight, 2
 904              	SERight:
 905 0004 0000     		.space	2
 906 0006 0000     		.space	2
 907              		.type	SELeftTot, %object
 908              		.size	SELeftTot, 4
 909              	SELeftTot:
 910 0008 00000000 		.space	4
 911              		.type	SELeft, %object
 912              		.size	SELeft, 2
 913              	SELeft:
 914 000c 0000     		.space	2
 915 000e 0000     		.text
 916              	.Letext0:
 917              		.file 2 "c:\\program files (x86)\\cypress\\psoc creator\\3.3\\psoc creator\\import\\gnu\\arm\\4.9.
 918              		.file 3 "c:\\program files (x86)\\cypress\\psoc creator\\3.3\\psoc creator\\import\\gnu\\arm\\4.9.
 919              		.file 4 "Generated_Source\\PSoC5/cytypes.h"
 920              		.file 5 "Generated_Source\\PSoC5/core_cm3.h"
ARM GAS  C:\Users\Daniel\AppData\Local\Temp\cc7N0DOD.s 			page 22


 921              		.file 6 "Generated_Source\\PSoC5/Camera.h"
 922              		.file 7 "Generated_Source\\PSoC5/CS.h"
 923              		.file 8 "Generated_Source\\PSoC5/CyLib.h"
 924              		.file 9 "Generated_Source\\PSoC5/Quad_1.h"
 925              		.file 10 "Generated_Source\\PSoC5/Quad_2.h"