ARM GAS  C:\Users\Daniel\AppData\Local\Temp\ccnszUA7.s 			page 1


   1              		.syntax unified
   2              		.cpu cortex-m3
   3              		.fpu softvfp
   4              		.eabi_attribute 20, 1
   5              		.eabi_attribute 21, 1
   6              		.eabi_attribute 23, 3
   7              		.eabi_attribute 24, 1
   8              		.eabi_attribute 25, 1
   9              		.eabi_attribute 26, 1
  10              		.eabi_attribute 30, 1
  11              		.eabi_attribute 34, 1
  12              		.eabi_attribute 18, 4
  13              		.thumb
  14              		.file	"pathing.c"
  15              		.text
  16              	.Ltext0:
  17              		.cfi_sections	.debug_frame
  18              		.section	.text.PathForward,"ax",%progbits
  19              		.align	2
  20              		.global	PathForward
  21              		.thumb
  22              		.thumb_func
  23              		.type	PathForward, %function
  24              	PathForward:
  25              	.LFB63:
  26              		.file 1 ".\\pathing.c"
   1:.\pathing.c   **** /*
   2:.\pathing.c   ****  * Copyright @Pucktacular, 2016
   3:.\pathing.c   ****  * @Matt Gebert, Daniel Hranilovic & Kevin Duxbury
   4:.\pathing.c   ****  * All Rights Reserved
   5:.\pathing.c   ****  * UNPUBLISHED, LICENSED SOFTWARE.
   6:.\pathing.c   ****  *
   7:.\pathing.c   ****  * CONFIDENTIAL AND PROPRIETARY INFORMATION
   8:.\pathing.c   ****  * WHICH IS THE PROPERTY OF your company.
   9:.\pathing.c   ****  *
  10:.\pathing.c   ****  * ========================================
  11:.\pathing.c   **** */
  12:.\pathing.c   **** #include <project.h>
  13:.\pathing.c   **** #include <stdbool.h>
  14:.\pathing.c   **** #include <math.h>
  15:.\pathing.c   **** #include <stdlib.h>
  16:.\pathing.c   **** #include "movement_functions.h"
  17:.\pathing.c   **** #include "Ultrasonics.h"
  18:.\pathing.c   **** #include "utils.h"
  19:.\pathing.c   **** #include "pathing.h"
  20:.\pathing.c   **** 
  21:.\pathing.c   **** void PathForward(bool path){
  27              		.loc 1 21 0
  28              		.cfi_startproc
  29              		@ args = 0, pretend = 0, frame = 0
  30              		@ frame_needed = 0, uses_anonymous_args = 0
  31              	.LVL0:
  32 0000 10B5     		push	{r4, lr}
  33              		.cfi_def_cfa_offset 8
  34              		.cfi_offset 4, -8
  35              		.cfi_offset 14, -4
  36 0002 82B0     		sub	sp, sp, #8
ARM GAS  C:\Users\Daniel\AppData\Local\Temp\ccnszUA7.s 			page 2


  37              		.cfi_def_cfa_offset 16
  22:.\pathing.c   ****  //This function assumes that the bot is positioned at 20 cm from back wall & 20cm from side wall
  23:.\pathing.c   ****  //near the stacking zone,facing away from the stacking zone.
  24:.\pathing.c   ****     
  25:.\pathing.c   ****     //path determines which path must be taken to avoid the brick
  26:.\pathing.c   ****     if(!path){  // path==0 -> using shorter path
  38              		.loc 1 26 0
  39 0004 10BB     		cbnz	r0, .L2
  27:.\pathing.c   ****         //drive forward 5s
  28:.\pathing.c   ****         MovementPivotLeft90();
  40              		.loc 1 28 0
  41 0006 FFF7FEFF 		bl	MovementPivotLeft90
  42              	.LVL1:
  29:.\pathing.c   ****         CyDelay(20);
  43              		.loc 1 29 0
  44 000a 1420     		movs	r0, #20
  45 000c FFF7FEFF 		bl	CyDelay
  46              	.LVL2:
  30:.\pathing.c   ****         //MoveAlign(15,false,0,0.8);
  31:.\pathing.c   ****         MoveAlign(15,false,0,0.8); //true to false..
  47              		.loc 1 31 0
  48 0010 1E4C     		ldr	r4, .L5
  49 0012 0094     		str	r4, [sp]	@ float
  50 0014 0020     		movs	r0, #0
  51 0016 1E49     		ldr	r1, .L5+4
  52 0018 0022     		movs	r2, #0
  53 001a 1346     		mov	r3, r2
  54 001c FFF7FEFF 		bl	MoveAlign
  55              	.LVL3:
  32:.\pathing.c   ****         CyDelay(20);
  56              		.loc 1 32 0
  57 0020 1420     		movs	r0, #20
  58 0022 FFF7FEFF 		bl	CyDelay
  59              	.LVL4:
  33:.\pathing.c   ****         MovementPivotRight90();
  60              		.loc 1 33 0
  61 0026 FFF7FEFF 		bl	MovementPivotRight90
  62              	.LVL5:
  34:.\pathing.c   ****         CyDelay(20);
  63              		.loc 1 34 0
  64 002a 1420     		movs	r0, #20
  65 002c FFF7FEFF 		bl	CyDelay
  66              	.LVL6:
  35:.\pathing.c   ****         MovementForward(10000);
  67              		.loc 1 35 0
  68 0030 42F21070 		movw	r0, #10000
  69 0034 FFF7FEFF 		bl	MovementForward
  70              	.LVL7:
  36:.\pathing.c   ****         //use wall_align to get to 20 cm from far wall
  37:.\pathing.c   ****         //MoveAlign(20,false,0,0.8);
  38:.\pathing.c   ****         MoveAlign(12,false,0,0.8);//true to false..
  71              		.loc 1 38 0
  72 0038 0094     		str	r4, [sp]	@ float
  73 003a 0020     		movs	r0, #0
  74 003c 1549     		ldr	r1, .L5+8
  75 003e 0022     		movs	r2, #0
  76 0040 1346     		mov	r3, r2
ARM GAS  C:\Users\Daniel\AppData\Local\Temp\ccnszUA7.s 			page 3


  77 0042 FFF7FEFF 		bl	MoveAlign
  78              	.LVL8:
  39:.\pathing.c   ****         // pivot right 90
  40:.\pathing.c   ****         MovementPivotRight90();
  79              		.loc 1 40 0
  80 0046 FFF7FEFF 		bl	MovementPivotRight90
  81              	.LVL9:
  82 004a 1CE0     		b	.L1
  83              	.LVL10:
  84              	.L2:
  41:.\pathing.c   ****         
  42:.\pathing.c   ****     }else{ // path==1 -> using longer path
  43:.\pathing.c   ****         //pivot right 90 degrees
  44:.\pathing.c   ****         MovementPivotRight90();
  85              		.loc 1 44 0
  86 004c FFF7FEFF 		bl	MovementPivotRight90
  87              	.LVL11:
  45:.\pathing.c   ****         //drive forward 7s
  46:.\pathing.c   ****         MovementForward(8000);
  88              		.loc 1 46 0
  89 0050 4FF4FA50 		mov	r0, #8000
  90 0054 FFF7FEFF 		bl	MovementForward
  91              	.LVL12:
  47:.\pathing.c   ****         //use wall_align to get to 20cm from side wall
  48:.\pathing.c   ****         //MoveAlign(15,false,0,0.8);
  49:.\pathing.c   ****         MoveAlign(10,false,0,0.8);//true to false..
  92              		.loc 1 49 0
  93 0058 0C4C     		ldr	r4, .L5
  94 005a 0094     		str	r4, [sp]	@ float
  95 005c 0020     		movs	r0, #0
  96 005e 0E49     		ldr	r1, .L5+12
  97 0060 0022     		movs	r2, #0
  98 0062 1346     		mov	r3, r2
  99 0064 FFF7FEFF 		bl	MoveAlign
 100              	.LVL13:
  50:.\pathing.c   ****         //pivot left 90
  51:.\pathing.c   ****         MovementPivotLeft90();
 101              		.loc 1 51 0
 102 0068 FFF7FEFF 		bl	MovementPivotLeft90
 103              	.LVL14:
  52:.\pathing.c   ****         //drive forward 5s
  53:.\pathing.c   ****         MovementForward(8000);
 104              		.loc 1 53 0
 105 006c 4FF4FA50 		mov	r0, #8000
 106 0070 FFF7FEFF 		bl	MovementForward
 107              	.LVL15:
  54:.\pathing.c   ****         //use wall_align to get to 20 cm from far wall
  55:.\pathing.c   ****        //MoveAlign(20,false,0,0.8);
  56:.\pathing.c   ****         MoveAlign(12,false,0,0.8);//true to false..
 108              		.loc 1 56 0
 109 0074 0094     		str	r4, [sp]	@ float
 110 0076 0020     		movs	r0, #0
 111 0078 0649     		ldr	r1, .L5+8
 112 007a 0022     		movs	r2, #0
 113 007c 1346     		mov	r3, r2
 114 007e FFF7FEFF 		bl	MoveAlign
 115              	.LVL16:
ARM GAS  C:\Users\Daniel\AppData\Local\Temp\ccnszUA7.s 			page 4


  57:.\pathing.c   ****         // pivot left 90
  58:.\pathing.c   ****         MovementPivotLeft90();
 116              		.loc 1 58 0
 117 0082 FFF7FEFF 		bl	MovementPivotLeft90
 118              	.LVL17:
 119              	.L1:
  59:.\pathing.c   ****         
  60:.\pathing.c   ****     }
  61:.\pathing.c   ****     
  62:.\pathing.c   **** }
 120              		.loc 1 62 0
 121 0086 02B0     		add	sp, sp, #8
 122              		.cfi_def_cfa_offset 8
 123              		@ sp needed
 124 0088 10BD     		pop	{r4, pc}
 125              	.L6:
 126 008a 00BF     		.align	2
 127              	.L5:
 128 008c CDCC4C3F 		.word	1061997773
 129 0090 00002E40 		.word	1076756480
 130 0094 00002840 		.word	1076363264
 131 0098 00002440 		.word	1076101120
 132              		.cfi_endproc
 133              	.LFE63:
 134              		.size	PathForward, .-PathForward
 135              		.section	.text.PathBackward,"ax",%progbits
 136              		.align	2
 137              		.global	PathBackward
 138              		.thumb
 139              		.thumb_func
 140              		.type	PathBackward, %function
 141              	PathBackward:
 142              	.LFB64:
  63:.\pathing.c   **** 
  64:.\pathing.c   **** 
  65:.\pathing.c   **** void PathBackward(bool path){
 143              		.loc 1 65 0
 144              		.cfi_startproc
 145              		@ args = 0, pretend = 0, frame = 0
 146              		@ frame_needed = 0, uses_anonymous_args = 0
 147              	.LVL18:
 148 0000 2DE9D043 		push	{r4, r6, r7, r8, r9, lr}
 149              		.cfi_def_cfa_offset 24
 150              		.cfi_offset 4, -24
 151              		.cfi_offset 6, -20
 152              		.cfi_offset 7, -16
 153              		.cfi_offset 8, -12
 154              		.cfi_offset 9, -8
 155              		.cfi_offset 14, -4
 156 0004 82B0     		sub	sp, sp, #8
 157              		.cfi_def_cfa_offset 32
  66:.\pathing.c   ****     //path determines which path must be taken to avoid the brick
  67:.\pathing.c   ****     if(!path){  // path==0 -> using shorter path
 158              		.loc 1 67 0
 159 0006 0028     		cmp	r0, #0
 160 0008 37D1     		bne	.L8
  68:.\pathing.c   ****         //pivot 180
ARM GAS  C:\Users\Daniel\AppData\Local\Temp\ccnszUA7.s 			page 5


  69:.\pathing.c   ****         MovementPivotRight90();
 161              		.loc 1 69 0
 162 000a FFF7FEFF 		bl	MovementPivotRight90
 163              	.LVL19:
  70:.\pathing.c   ****         CyDelay(100);
 164              		.loc 1 70 0
 165 000e 6420     		movs	r0, #100
 166 0010 FFF7FEFF 		bl	CyDelay
 167              	.LVL20:
  71:.\pathing.c   ****         MovementPivotRight(85);
 168              		.loc 1 71 0
 169 0014 0020     		movs	r0, #0
 170 0016 4249     		ldr	r1, .L11
 171 0018 FFF7FEFF 		bl	MovementPivotRight
 172              	.LVL21:
  72:.\pathing.c   ****         CyDelay(20);
 173              		.loc 1 72 0
 174 001c 1420     		movs	r0, #20
 175 001e FFF7FEFF 		bl	CyDelay
 176              	.LVL22:
  73:.\pathing.c   ****         //use wall_align to get 20 cm from side wall
  74:.\pathing.c   ****         //MoveAlign(18,false,0,0.8);
  75:.\pathing.c   ****         MoveAlign(10,false,0,0.8);
 177              		.loc 1 75 0
 178 0022 404C     		ldr	r4, .L11+4
 179 0024 0094     		str	r4, [sp]	@ float
 180 0026 0020     		movs	r0, #0
 181 0028 3F49     		ldr	r1, .L11+8
 182 002a 0022     		movs	r2, #0
 183 002c 1346     		mov	r3, r2
 184 002e FFF7FEFF 		bl	MoveAlign
 185              	.LVL23:
  76:.\pathing.c   ****         CyDelay(20);
 186              		.loc 1 76 0
 187 0032 1420     		movs	r0, #20
 188 0034 FFF7FEFF 		bl	CyDelay
 189              	.LVL24:
  77:.\pathing.c   ****         //pivot left 90
  78:.\pathing.c   ****         MovementPivotLeft(88);
 190              		.loc 1 78 0
 191 0038 0020     		movs	r0, #0
 192 003a 3C49     		ldr	r1, .L11+12
 193 003c FFF7FEFF 		bl	MovementPivotLeft
 194              	.LVL25:
  79:.\pathing.c   ****         CyDelay(20);
 195              		.loc 1 79 0
 196 0040 1420     		movs	r0, #20
 197 0042 FFF7FEFF 		bl	CyDelay
 198              	.LVL26:
  80:.\pathing.c   ****         //drive forward for 4 sec (4 sec to be safer)
  81:.\pathing.c   ****         MovementForward(10000); //
 199              		.loc 1 81 0
 200 0046 42F21070 		movw	r0, #10000
 201 004a FFF7FEFF 		bl	MovementForward
 202              	.LVL27:
  82:.\pathing.c   ****         CyDelay(20);
 203              		.loc 1 82 0
ARM GAS  C:\Users\Daniel\AppData\Local\Temp\ccnszUA7.s 			page 6


 204 004e 1420     		movs	r0, #20
 205 0050 FFF7FEFF 		bl	CyDelay
 206              	.LVL28:
  83:.\pathing.c   ****         //Remove Extra Check: 
  84:.\pathing.c   ****         /*MovementPivotRight90();
  85:.\pathing.c   ****         CyDelay(20);
  86:.\pathing.c   ****         MoveAlign(10,false,0,0.4);
  87:.\pathing.c   ****         CyDelay(20);
  88:.\pathing.c   ****         MovementPivotLeft90();
  89:.\pathing.c   ****         CyDelay(20);
  90:.\pathing.c   ****         */
  91:.\pathing.c   ****         
  92:.\pathing.c   ****         //use wall_align to get 20 cm from back wall
  93:.\pathing.c   ****         //MoveAlign(23,false,1,0.8);
  94:.\pathing.c   ****         MoveAlign(15,false,1,0.8);//true to false..
 207              		.loc 1 94 0
 208 0054 0094     		str	r4, [sp]	@ float
 209 0056 0020     		movs	r0, #0
 210 0058 3549     		ldr	r1, .L11+16
 211 005a 0022     		movs	r2, #0
 212 005c 0123     		movs	r3, #1
 213 005e FFF7FEFF 		bl	MoveAlign
 214              	.LVL29:
  95:.\pathing.c   ****         //new
  96:.\pathing.c   ****         MovementPivotRight90();
 215              		.loc 1 96 0
 216 0062 FFF7FEFF 		bl	MovementPivotRight90
 217              	.LVL30:
  97:.\pathing.c   ****         MoveAlign(13,true,0,0.8);
 218              		.loc 1 97 0
 219 0066 0094     		str	r4, [sp]	@ float
 220 0068 0020     		movs	r0, #0
 221 006a 3249     		ldr	r1, .L11+20
 222 006c 0122     		movs	r2, #1
 223 006e 0023     		movs	r3, #0
 224 0070 FFF7FEFF 		bl	MoveAlign
 225              	.LVL31:
  98:.\pathing.c   ****         MovementPivotLeft90();
 226              		.loc 1 98 0
 227 0074 FFF7FEFF 		bl	MovementPivotLeft90
 228              	.LVL32:
 229 0078 4FE0     		b	.L7
 230              	.LVL33:
 231              	.L8:
  99:.\pathing.c   ****         /*MoveAlign(10,true,1); //Coded added to the main function. Depends on puck counter...
 100:.\pathing.c   ****         Beep(2);
 101:.\pathing.c   ****         CyDelay(100);
 102:.\pathing.c   ****         Beep(2);*/
 103:.\pathing.c   ****         
 104:.\pathing.c   ****     }else{      // path==1 -> using longer path
 105:.\pathing.c   ****         //pivot 180
 106:.\pathing.c   ****         MovementPivotLeft90();
 232              		.loc 1 106 0
 233 007a FFF7FEFF 		bl	MovementPivotLeft90
 234              	.LVL34:
 107:.\pathing.c   ****         CyDelay(50);
 235              		.loc 1 107 0
ARM GAS  C:\Users\Daniel\AppData\Local\Temp\ccnszUA7.s 			page 7


 236 007e 3220     		movs	r0, #50
 237 0080 FFF7FEFF 		bl	CyDelay
 238              	.LVL35:
 108:.\pathing.c   ****         MovementPivotLeft(80);
 239              		.loc 1 108 0
 240 0084 0020     		movs	r0, #0
 241 0086 2C49     		ldr	r1, .L11+24
 242 0088 FFF7FEFF 		bl	MovementPivotLeft
 243              	.LVL36:
 109:.\pathing.c   ****         //use wall_align to get 20 cm from side wall 
 110:.\pathing.c   ****         CyDelay(20);
 244              		.loc 1 110 0
 245 008c 1420     		movs	r0, #20
 246 008e FFF7FEFF 		bl	CyDelay
 247              	.LVL37:
 111:.\pathing.c   ****         //MoveAlign(18,false,0,0.8);
 112:.\pathing.c   ****         MoveAlign(15,false,0,0.8);//true to false..
 248              		.loc 1 112 0
 249 0092 244C     		ldr	r4, .L11+4
 250 0094 0094     		str	r4, [sp]	@ float
 251 0096 0020     		movs	r0, #0
 252 0098 2549     		ldr	r1, .L11+16
 253 009a 0022     		movs	r2, #0
 254 009c 1346     		mov	r3, r2
 255 009e FFF7FEFF 		bl	MoveAlign
 256              	.LVL38:
 113:.\pathing.c   ****         CyDelay(20);
 257              		.loc 1 113 0
 258 00a2 1420     		movs	r0, #20
 259 00a4 FFF7FEFF 		bl	CyDelay
 260              	.LVL39:
 114:.\pathing.c   ****         //pivot right 90
 115:.\pathing.c   ****         MovementPivotRight(90);
 261              		.loc 1 115 0
 262 00a8 0026     		movs	r6, #0
 263 00aa 244F     		ldr	r7, .L11+28
 264 00ac 3046     		mov	r0, r6
 265 00ae 3946     		mov	r1, r7
 266 00b0 FFF7FEFF 		bl	MovementPivotRight
 267              	.LVL40:
 116:.\pathing.c   ****         CyDelay(20);
 268              		.loc 1 116 0
 269 00b4 1420     		movs	r0, #20
 270 00b6 FFF7FEFF 		bl	CyDelay
 271              	.LVL41:
 117:.\pathing.c   ****         //drive forward for 4 sec (4 sec to be safer)
 118:.\pathing.c   ****         MovementForward(7000);
 272              		.loc 1 118 0
 273 00ba 41F65830 		movw	r0, #7000
 274 00be FFF7FEFF 		bl	MovementForward
 275              	.LVL42:
 119:.\pathing.c   ****         //use wall_align to get 25 cm from back wall (once again on safe side)
 120:.\pathing.c   ****         //MoveAlign(23,false,0,0.8);
 121:.\pathing.c   ****         MoveAlign(25,false,0,0.8);//true to false..
 276              		.loc 1 121 0
 277 00c2 4FF00008 		mov	r8, #0
 278 00c6 DFF87890 		ldr	r9, .L11+32
ARM GAS  C:\Users\Daniel\AppData\Local\Temp\ccnszUA7.s 			page 8


 279 00ca 0094     		str	r4, [sp]	@ float
 280 00cc 4046     		mov	r0, r8
 281 00ce 4946     		mov	r1, r9
 282 00d0 0022     		movs	r2, #0
 283 00d2 1346     		mov	r3, r2
 284 00d4 FFF7FEFF 		bl	MoveAlign
 285              	.LVL43:
 122:.\pathing.c   ****         MoveAlign(25,true,0,0.8);
 286              		.loc 1 122 0
 287 00d8 0094     		str	r4, [sp]	@ float
 288 00da 4046     		mov	r0, r8
 289 00dc 4946     		mov	r1, r9
 290 00de 0122     		movs	r2, #1
 291 00e0 0023     		movs	r3, #0
 292 00e2 FFF7FEFF 		bl	MoveAlign
 293              	.LVL44:
 123:.\pathing.c   ****         //pivot right 90
 124:.\pathing.c   ****         MovementPivotRight(90);
 294              		.loc 1 124 0
 295 00e6 3046     		mov	r0, r6
 296 00e8 3946     		mov	r1, r7
 297 00ea FFF7FEFF 		bl	MovementPivotRight
 298              	.LVL45:
 125:.\pathing.c   ****         //drive forward for 7 sec
 126:.\pathing.c   ****         MovementForward(11000);
 299              		.loc 1 126 0
 300 00ee 42F6F820 		movw	r0, #11000
 301 00f2 FFF7FEFF 		bl	MovementForward
 302              	.LVL46:
 127:.\pathing.c   ****         //use wall_align to get 20 cm from side wall 
 128:.\pathing.c   ****         MoveAlign(13,false,0,0.8);
 303              		.loc 1 128 0
 304 00f6 0026     		movs	r6, #0
 305 00f8 0E4F     		ldr	r7, .L11+20
 306 00fa 0094     		str	r4, [sp]	@ float
 307 00fc 3046     		mov	r0, r6
 308 00fe 3946     		mov	r1, r7
 309 0100 0022     		movs	r2, #0
 310 0102 1346     		mov	r3, r2
 311 0104 FFF7FEFF 		bl	MoveAlign
 312              	.LVL47:
 129:.\pathing.c   ****         MoveAlign(13,true,0,0.8);
 313              		.loc 1 129 0
 314 0108 0094     		str	r4, [sp]	@ float
 315 010a 3046     		mov	r0, r6
 316 010c 3946     		mov	r1, r7
 317 010e 0122     		movs	r2, #1
 318 0110 0023     		movs	r3, #0
 319 0112 FFF7FEFF 		bl	MoveAlign
 320              	.LVL48:
 130:.\pathing.c   ****         //pivot left 90
 131:.\pathing.c   ****         MovementPivotLeft90();
 321              		.loc 1 131 0
 322 0116 FFF7FEFF 		bl	MovementPivotLeft90
 323              	.LVL49:
 324              	.L7:
 132:.\pathing.c   ****     }
ARM GAS  C:\Users\Daniel\AppData\Local\Temp\ccnszUA7.s 			page 9


 133:.\pathing.c   **** }
 325              		.loc 1 133 0
 326 011a 02B0     		add	sp, sp, #8
 327              		.cfi_def_cfa_offset 24
 328              		@ sp needed
 329 011c BDE8D083 		pop	{r4, r6, r7, r8, r9, pc}
 330              	.L12:
 331              		.align	2
 332              	.L11:
 333 0120 00405540 		.word	1079328768
 334 0124 CDCC4C3F 		.word	1061997773
 335 0128 00002440 		.word	1076101120
 336 012c 00005640 		.word	1079377920
 337 0130 00002E40 		.word	1076756480
 338 0134 00002A40 		.word	1076494336
 339 0138 00005440 		.word	1079246848
 340 013c 00805640 		.word	1079410688
 341 0140 00003940 		.word	1077477376
 342              		.cfi_endproc
 343              	.LFE64:
 344              		.size	PathBackward, .-PathBackward
 345              		.comm	Camera_linebuffer,640,4
 346              		.text
 347              	.Letext0:
 348              		.file 2 "c:\\program files (x86)\\cypress\\psoc creator\\3.3\\psoc creator\\import\\gnu\\arm\\4.9.
 349              		.file 3 "c:\\program files (x86)\\cypress\\psoc creator\\3.3\\psoc creator\\import\\gnu\\arm\\4.9.
 350              		.file 4 "Generated_Source\\PSoC5/cytypes.h"
 351              		.file 5 "Generated_Source\\PSoC5/core_cm3.h"
 352              		.file 6 "Generated_Source\\PSoC5/Camera.h"
 353              		.file 7 "Generated_Source\\PSoC5/CyLib.h"
 354              		.file 8 ".\\Ultrasonics.h"
 355              		.file 9 ".\\movement_functions.h"