ARM GAS  C:\Users\Daniel\AppData\Local\Temp\cczCpxmi.s 			page 1


   1              		.syntax unified
   2              		.cpu cortex-m3
   3              		.fpu softvfp
   4              		.eabi_attribute 20, 1
   5              		.eabi_attribute 21, 1
   6              		.eabi_attribute 23, 3
   7              		.eabi_attribute 24, 1
   8              		.eabi_attribute 25, 1
   9              		.eabi_attribute 26, 1
  10              		.eabi_attribute 30, 1
  11              		.eabi_attribute 34, 1
  12              		.eabi_attribute 18, 4
  13              		.thumb
  14              		.file	"puck_functions.c"
  15              		.text
  16              	.Ltext0:
  17              		.cfi_sections	.debug_frame
  18              		.section	.text.PuckCloseScan,"ax",%progbits
  19              		.align	2
  20              		.global	PuckCloseScan
  21              		.thumb
  22              		.thumb_func
  23              		.type	PuckCloseScan, %function
  24              	PuckCloseScan:
  25              	.LFB63:
  26              		.file 1 ".\\puck_functions.c"
   1:.\puck_functions.c **** /*
   2:.\puck_functions.c ****  * Copyright @Pucktacular, 2016
   3:.\puck_functions.c ****  * @Matt Gebert, Daniel Hranilovic & Kevin Duxbury
   4:.\puck_functions.c ****  * All Rights Reserved
   5:.\puck_functions.c ****  * UNPUBLISHED, LICENSED SOFTWARE.
   6:.\puck_functions.c ****  *
   7:.\puck_functions.c ****  * CONFIDENTIAL AND PROPRIETARY INFORMATION
   8:.\puck_functions.c ****  * WHICH IS THE PROPERTY OF your company.
   9:.\puck_functions.c ****  *
  10:.\puck_functions.c ****  * ========================================
  11:.\puck_functions.c ****  * TODO: Do another angle function to make sure claw can pick up, a bit lower than 45'.
  12:.\puck_functions.c ****  * Change pixle offset on the X didrection, to accomodate for centre of robot.
  13:.\puck_functions.c **** */
  14:.\puck_functions.c **** 
  15:.\puck_functions.c **** #include <project.h>
  16:.\puck_functions.c **** #include <stdbool.h>
  17:.\puck_functions.c **** #include <math.h>
  18:.\puck_functions.c **** #include <stdlib.h>
  19:.\puck_functions.c **** #include "camera_functions.h"
  20:.\puck_functions.c **** #include "camera_display.h"
  21:.\puck_functions.c **** #include "movement_functions.h"
  22:.\puck_functions.c **** #include "pwm_functions.h"
  23:.\puck_functions.c **** #include "puck_functions.h"
  24:.\puck_functions.c **** #include "utils.h"
  25:.\puck_functions.c **** 
  26:.\puck_functions.c **** /*Variables from Camera Functions:
  27:.\puck_functions.c **** ---------------------------------*/
  28:.\puck_functions.c **** extern uint16 closestX;
  29:.\puck_functions.c **** extern uint16 closestY;
  30:.\puck_functions.c **** extern uint16 lowestY;
  31:.\puck_functions.c **** extern const uint8 numRows;
ARM GAS  C:\Users\Daniel\AppData\Local\Temp\cczCpxmi.s 			page 2


  32:.\puck_functions.c **** extern const uint16 numCols;
  33:.\puck_functions.c **** extern const uint8 RED;
  34:.\puck_functions.c **** extern const uint8 GREEN;
  35:.\puck_functions.c **** extern const uint8 BLUE;
  36:.\puck_functions.c **** extern const uint8 blobThresholdSizeDefault;
  37:.\puck_functions.c **** extern uint8 lrgClr[5];
  38:.\puck_functions.c **** extern uint16 lrgY[5];
  39:.\puck_functions.c **** /*-------------------------------*/
  40:.\puck_functions.c **** const uint8 CAMERA_Y_OFFSET = 160;
  41:.\puck_functions.c **** const uint8 CAMERA_X_OFFSET = 10;
  42:.\puck_functions.c **** const double PI = 3.1415926535;
  43:.\puck_functions.c **** const double corrFact = 4.0/5/2;
  44:.\puck_functions.c **** /*--------------------------------*/
  45:.\puck_functions.c **** uint16 angleTotal=0; //Negative Is Left, Positive is Right!
  46:.\puck_functions.c **** /*--------------------------------*/
  47:.\puck_functions.c **** bool PuckPositionToStack2(uint8 clr);
  48:.\puck_functions.c **** 
  49:.\puck_functions.c **** /*******************************************************************************
  50:.\puck_functions.c **** * Function Name: PuckCloseScan
  51:.\puck_functions.c **** ****************************************************************************//**
  52:.\puck_functions.c **** *
  53:.\puck_functions.c **** * Tilts the camera to 45' to find & pick up a puck, Scanning for a target.
  54:.\puck_functions.c **** * Scanning works of rotating right in 10 degree increments.
  55:.\puck_functions.c **** * Returns True if a puck of the specified colour is found.
  56:.\puck_functions.c **** * Final Position will be in the ~ direction of the puck.
  57:.\puck_functions.c **** *
  58:.\puck_functions.c **** *******************************************************************************/
  59:.\puck_functions.c **** 
  60:.\puck_functions.c **** bool PuckCloseScan(uint8 clr) {
  27              		.loc 1 60 0
  28              		.cfi_startproc
  29              		@ args = 0, pretend = 0, frame = 0
  30              		@ frame_needed = 0, uses_anonymous_args = 0
  31              	.LVL0:
  32 0000 70B5     		push	{r4, r5, r6, lr}
  33              		.cfi_def_cfa_offset 16
  34              		.cfi_offset 4, -16
  35              		.cfi_offset 5, -12
  36              		.cfi_offset 6, -8
  37              		.cfi_offset 14, -4
  38 0002 0646     		mov	r6, r0
  61:.\puck_functions.c ****     TiltDown45();
  39              		.loc 1 61 0
  40 0004 FFF7FEFF 		bl	TiltDown45
  41              	.LVL1:
  62:.\puck_functions.c ****     CyDelay(100);
  42              		.loc 1 62 0
  43 0008 6420     		movs	r0, #100
  44 000a FFF7FEFF 		bl	CyDelay
  45              	.LVL2:
  63:.\puck_functions.c ****     
  64:.\puck_functions.c ****     uint8 rotation; //degrees
  65:.\puck_functions.c ****     rotation=0;
  66:.\puck_functions.c ****     CaptureFrameWithLights();
  46              		.loc 1 66 0
  47 000e FFF7FEFF 		bl	CaptureFrameWithLights
  48              	.LVL3:
ARM GAS  C:\Users\Daniel\AppData\Local\Temp\cczCpxmi.s 			page 3


  67:.\puck_functions.c ****     bool ClrOnScreen = CamScanClosest(clr, blobThresholdSizeDefault);
  49              		.loc 1 67 0
  50 0012 3046     		mov	r0, r6
  51 0014 194B     		ldr	r3, .L9
  52 0016 1978     		ldrb	r1, [r3]	@ zero_extendqisi2
  53 0018 FFF7FEFF 		bl	CamScanClosest
  54              	.LVL4:
  55 001c 0546     		mov	r5, r0
  56              	.LVL5:
  65:.\puck_functions.c ****     CaptureFrameWithLights();
  57              		.loc 1 65 0
  58 001e 0024     		movs	r4, #0
  68:.\puck_functions.c ****     
  69:.\puck_functions.c ****     while (!ClrOnScreen && rotation<5){
  59              		.loc 1 69 0
  60 0020 1EE0     		b	.L2
  61              	.LVL6:
  62              	.L6:
  70:.\puck_functions.c ****         if(rotation==0){ //Initial Rotation offset.
  63              		.loc 1 70 0
  64 0022 44B9     		cbnz	r4, .L3
  71:.\puck_functions.c ****             MovementPivotLeft(28); 
  65              		.loc 1 71 0
  66 0024 0020     		movs	r0, #0
  67 0026 1649     		ldr	r1, .L9+4
  68 0028 FFF7FEFF 		bl	MovementPivotLeft
  69              	.LVL7:
  72:.\puck_functions.c ****             angleTotal-=28;
  70              		.loc 1 72 0
  71 002c 154A     		ldr	r2, .L9+8
  72 002e 1388     		ldrh	r3, [r2]
  73 0030 1C3B     		subs	r3, r3, #28
  74 0032 1380     		strh	r3, [r2]	@ movhi
  75 0034 0AE0     		b	.L4
  76              	.L3:
  73:.\puck_functions.c ****         } else {
  74:.\puck_functions.c ****             //Keep rotating to scan while finding nothing.
  75:.\puck_functions.c ****             angleTotal+=14;
  77              		.loc 1 75 0
  78 0036 134A     		ldr	r2, .L9+8
  79 0038 1388     		ldrh	r3, [r2]
  80 003a 0E33     		adds	r3, r3, #14
  81 003c 1380     		strh	r3, [r2]	@ movhi
  76:.\puck_functions.c ****             CyDelay(20);    
  82              		.loc 1 76 0
  83 003e 1420     		movs	r0, #20
  84 0040 FFF7FEFF 		bl	CyDelay
  85              	.LVL8:
  77:.\puck_functions.c ****             MovementPivotRight(14); //14 is because of overturning...
  86              		.loc 1 77 0
  87 0044 0020     		movs	r0, #0
  88 0046 1049     		ldr	r1, .L9+12
  89 0048 FFF7FEFF 		bl	MovementPivotRight
  90              	.LVL9:
  91              	.L4:
  78:.\puck_functions.c ****         }
  79:.\puck_functions.c ****         CaptureFrameWithLights();
ARM GAS  C:\Users\Daniel\AppData\Local\Temp\cczCpxmi.s 			page 4


  92              		.loc 1 79 0
  93 004c FFF7FEFF 		bl	CaptureFrameWithLights
  94              	.LVL10:
  80:.\puck_functions.c ****         ClrOnScreen = CamScanClosest(clr, blobThresholdSizeDefault);
  95              		.loc 1 80 0
  96 0050 3046     		mov	r0, r6
  97 0052 0A4B     		ldr	r3, .L9
  98 0054 1978     		ldrb	r1, [r3]	@ zero_extendqisi2
  99 0056 FFF7FEFF 		bl	CamScanClosest
 100              	.LVL11:
 101 005a 0546     		mov	r5, r0
 102              	.LVL12:
  81:.\puck_functions.c ****         rotation=rotation+1;
 103              		.loc 1 81 0
 104 005c 0134     		adds	r4, r4, #1
 105              	.LVL13:
 106 005e E4B2     		uxtb	r4, r4
 107              	.LVL14:
 108              	.L2:
  69:.\puck_functions.c ****         if(rotation==0){ //Initial Rotation offset.
 109              		.loc 1 69 0
 110 0060 0DB9     		cbnz	r5, .L5
  69:.\puck_functions.c ****         if(rotation==0){ //Initial Rotation offset.
 111              		.loc 1 69 0 is_stmt 0 discriminator 1
 112 0062 042C     		cmp	r4, #4
 113 0064 DDD9     		bls	.L6
 114              	.L5:
  82:.\puck_functions.c ****     }
  83:.\puck_functions.c ****     if(!ClrOnScreen){
 115              		.loc 1 83 0 is_stmt 1
 116 0066 3DB9     		cbnz	r5, .L7
  84:.\puck_functions.c ****         MovementPivotLeft(28);
 117              		.loc 1 84 0
 118 0068 0020     		movs	r0, #0
 119 006a 0549     		ldr	r1, .L9+4
 120 006c FFF7FEFF 		bl	MovementPivotLeft
 121              	.LVL15:
  85:.\puck_functions.c ****         angleTotal-=28;
 122              		.loc 1 85 0
 123 0070 044A     		ldr	r2, .L9+8
 124 0072 1388     		ldrh	r3, [r2]
 125 0074 1C3B     		subs	r3, r3, #28
 126 0076 1380     		strh	r3, [r2]	@ movhi
 127              	.L7:
  86:.\puck_functions.c ****     }
  87:.\puck_functions.c ****     return ClrOnScreen;
  88:.\puck_functions.c **** }
 128              		.loc 1 88 0
 129 0078 2846     		mov	r0, r5
 130 007a 70BD     		pop	{r4, r5, r6, pc}
 131              	.LVL16:
 132              	.L10:
 133              		.align	2
 134              	.L9:
 135 007c 00000000 		.word	blobThresholdSizeDefault
 136 0080 00003C40 		.word	1077673984
 137 0084 00000000 		.word	.LANCHOR0
ARM GAS  C:\Users\Daniel\AppData\Local\Temp\cczCpxmi.s 			page 5


 138 0088 00002C40 		.word	1076625408
 139              		.cfi_endproc
 140              	.LFE63:
 141              		.size	PuckCloseScan, .-PuckCloseScan
 142              		.global	__aeabi_i2d
 143              		.global	__aeabi_ddiv
 144              		.global	__aeabi_dmul
 145              		.global	__aeabi_dadd
 146              		.global	__aeabi_d2uiz
 147              		.global	__aeabi_dsub
 148              		.section	.text.PuckCloseAquire,"ax",%progbits
 149              		.align	2
 150              		.global	PuckCloseAquire
 151              		.thumb
 152              		.thumb_func
 153              		.type	PuckCloseAquire, %function
 154              	PuckCloseAquire:
 155              	.LFB64:
  89:.\puck_functions.c **** 
  90:.\puck_functions.c **** /*******************************************************************************
  91:.\puck_functions.c **** * Function Name: PuckCloseAquire
  92:.\puck_functions.c **** ****************************************************************************//**
  93:.\puck_functions.c **** *
  94:.\puck_functions.c **** * Tilts the camera to 45' to find & pick up a puck, somewhere in front of the target.
  95:.\puck_functions.c **** *
  96:.\puck_functions.c **** *******************************************************************************/
  97:.\puck_functions.c **** bool PuckCloseAquire(uint8 clr, bool path) {
 156              		.loc 1 97 0
 157              		.cfi_startproc
 158              		@ args = 0, pretend = 0, frame = 0
 159              		@ frame_needed = 0, uses_anonymous_args = 0
 160              	.LVL17:
 161 0000 2DE9F843 		push	{r3, r4, r5, r6, r7, r8, r9, lr}
 162              		.cfi_def_cfa_offset 32
 163              		.cfi_offset 3, -32
 164              		.cfi_offset 4, -28
 165              		.cfi_offset 5, -24
 166              		.cfi_offset 6, -20
 167              		.cfi_offset 7, -16
 168              		.cfi_offset 8, -12
 169              		.cfi_offset 9, -8
 170              		.cfi_offset 14, -4
 171 0004 0446     		mov	r4, r0
 172 0006 8946     		mov	r9, r1
  98:.\puck_functions.c ****     TiltDown45();
 173              		.loc 1 98 0
 174 0008 FFF7FEFF 		bl	TiltDown45
 175              	.LVL18:
  99:.\puck_functions.c ****     CyDelay(20);
 176              		.loc 1 99 0
 177 000c 1420     		movs	r0, #20
 178 000e FFF7FEFF 		bl	CyDelay
 179              	.LVL19:
 100:.\puck_functions.c ****     
 101:.\puck_functions.c ****     bool found = false;
 102:.\puck_functions.c ****     
 103:.\puck_functions.c ****     //Find Puck (this was previously a while loops, while not found.
ARM GAS  C:\Users\Daniel\AppData\Local\Temp\cczCpxmi.s 			page 6


 104:.\puck_functions.c ****     CaptureFrameWithLights();
 180              		.loc 1 104 0
 181 0012 FFF7FEFF 		bl	CaptureFrameWithLights
 182              	.LVL20:
 105:.\puck_functions.c ****     bool ClrOnScreen = CamScanClosest(clr, blobThresholdSizeDefault);
 183              		.loc 1 105 0
 184 0016 2046     		mov	r0, r4
 185 0018 8D4B     		ldr	r3, .L28+16
 186 001a 1978     		ldrb	r1, [r3]	@ zero_extendqisi2
 187 001c FFF7FEFF 		bl	CamScanClosest
 188              	.LVL21:
 106:.\puck_functions.c ****     
 107:.\puck_functions.c ****     if (ClrOnScreen) {
 189              		.loc 1 107 0
 190 0020 0028     		cmp	r0, #0
 191 0022 68D1     		bne	.L12
 192 0024 FEE0     		b	.L26
 193              	.LVL22:
 194              	.L17:
 195              	.LBB2:
 108:.\puck_functions.c ****         //Found a puck..
 109:.\puck_functions.c ****         //..Turn to puck!
 110:.\puck_functions.c ****         double angle;
 111:.\puck_functions.c ****         double XYRatio;
 112:.\puck_functions.c ****         while(((abs(closestX - numCols/2 - CAMERA_X_OFFSET) > 15) && (240-closestY) > 65)) { //Keep
 113:.\puck_functions.c ****             if (closestX > numCols/2 + CAMERA_X_OFFSET) {
 196              		.loc 1 113 0
 197 0026 03F10A01 		add	r1, r3, #10
 198 002a 8A42     		cmp	r2, r1
 199 002c 2DDD     		ble	.L14
 114:.\puck_functions.c ****                 XYRatio = ((double)(closestX-numCols/2-CAMERA_X_OFFSET))/(240-closestY + CAMERA_Y_O
 200              		.loc 1 114 0
 201 002e FFF7FEFF 		bl	__aeabi_i2d
 202              	.LVL23:
 203 0032 0646     		mov	r6, r0
 204 0034 0F46     		mov	r7, r1
 205 0036 C8F5C870 		rsb	r0, r8, #400
 206 003a FFF7FEFF 		bl	__aeabi_i2d
 207              	.LVL24:
 208 003e 0246     		mov	r2, r0
 209 0040 0B46     		mov	r3, r1
 210 0042 3046     		mov	r0, r6
 211 0044 3946     		mov	r1, r7
 212 0046 FFF7FEFF 		bl	__aeabi_ddiv
 213              	.LVL25:
 115:.\puck_functions.c ****                 angle = (atan(XYRatio)*180)/PI*corrFact;
 214              		.loc 1 115 0
 215 004a FFF7FEFF 		bl	atan
 216              	.LVL26:
 217 004e 0022     		movs	r2, #0
 218 0050 804B     		ldr	r3, .L28+20
 219 0052 FFF7FEFF 		bl	__aeabi_dmul
 220              	.LVL27:
 221 0056 7AA3     		adr	r3, .L28
 222 0058 D3E90023 		ldrd	r2, [r3]
 223 005c FFF7FEFF 		bl	__aeabi_ddiv
 224              	.LVL28:
ARM GAS  C:\Users\Daniel\AppData\Local\Temp\cczCpxmi.s 			page 7


 225 0060 79A3     		adr	r3, .L28+8
 226 0062 D3E90023 		ldrd	r2, [r3]
 227 0066 FFF7FEFF 		bl	__aeabi_dmul
 228              	.LVL29:
 229 006a 0646     		mov	r6, r0
 230 006c 0F46     		mov	r7, r1
 231              	.LVL30:
 116:.\puck_functions.c ****                 MovementPivotRight(angle);
 232              		.loc 1 116 0
 233 006e FFF7FEFF 		bl	MovementPivotRight
 234              	.LVL31:
 117:.\puck_functions.c ****                 angleTotal+=angle;
 235              		.loc 1 117 0
 236 0072 794D     		ldr	r5, .L28+24
 237 0074 2888     		ldrh	r0, [r5]
 238 0076 FFF7FEFF 		bl	__aeabi_i2d
 239              	.LVL32:
 240 007a 3246     		mov	r2, r6
 241 007c 3B46     		mov	r3, r7
 242 007e FFF7FEFF 		bl	__aeabi_dadd
 243              	.LVL33:
 244 0082 FFF7FEFF 		bl	__aeabi_d2uiz
 245              	.LVL34:
 246 0086 2880     		strh	r0, [r5]	@ movhi
 247 0088 2EE0     		b	.L15
 248              	.LVL35:
 249              	.L14:
 118:.\puck_functions.c ****             } else {
 119:.\puck_functions.c ****                 XYRatio=((double)(numCols/2-closestX-CAMERA_X_OFFSET))/(240-closestY + CAMERA_Y_OFF
 250              		.loc 1 119 0
 251 008a 981A     		subs	r0, r3, r2
 252 008c 0A38     		subs	r0, r0, #10
 253 008e FFF7FEFF 		bl	__aeabi_i2d
 254              	.LVL36:
 255 0092 0646     		mov	r6, r0
 256 0094 0F46     		mov	r7, r1
 257 0096 C8F5C870 		rsb	r0, r8, #400
 258 009a FFF7FEFF 		bl	__aeabi_i2d
 259              	.LVL37:
 260 009e 0246     		mov	r2, r0
 261 00a0 0B46     		mov	r3, r1
 262 00a2 3046     		mov	r0, r6
 263 00a4 3946     		mov	r1, r7
 264 00a6 FFF7FEFF 		bl	__aeabi_ddiv
 265              	.LVL38:
 120:.\puck_functions.c ****                 angle = (atan(XYRatio)*180)/PI*corrFact;
 266              		.loc 1 120 0
 267 00aa FFF7FEFF 		bl	atan
 268              	.LVL39:
 269 00ae 0022     		movs	r2, #0
 270 00b0 684B     		ldr	r3, .L28+20
 271 00b2 FFF7FEFF 		bl	__aeabi_dmul
 272              	.LVL40:
 273 00b6 62A3     		adr	r3, .L28
 274 00b8 D3E90023 		ldrd	r2, [r3]
 275 00bc FFF7FEFF 		bl	__aeabi_ddiv
 276              	.LVL41:
ARM GAS  C:\Users\Daniel\AppData\Local\Temp\cczCpxmi.s 			page 8


 277 00c0 61A3     		adr	r3, .L28+8
 278 00c2 D3E90023 		ldrd	r2, [r3]
 279 00c6 FFF7FEFF 		bl	__aeabi_dmul
 280              	.LVL42:
 281 00ca 0646     		mov	r6, r0
 282 00cc 0F46     		mov	r7, r1
 283              	.LVL43:
 121:.\puck_functions.c ****                 MovementPivotLeft(angle);
 284              		.loc 1 121 0
 285 00ce FFF7FEFF 		bl	MovementPivotLeft
 286              	.LVL44:
 122:.\puck_functions.c ****                 angleTotal-=angle;
 287              		.loc 1 122 0
 288 00d2 614D     		ldr	r5, .L28+24
 289 00d4 2888     		ldrh	r0, [r5]
 290 00d6 FFF7FEFF 		bl	__aeabi_i2d
 291              	.LVL45:
 292 00da 3246     		mov	r2, r6
 293 00dc 3B46     		mov	r3, r7
 294 00de FFF7FEFF 		bl	__aeabi_dsub
 295              	.LVL46:
 296 00e2 FFF7FEFF 		bl	__aeabi_d2uiz
 297              	.LVL47:
 298 00e6 2880     		strh	r0, [r5]	@ movhi
 299              	.L15:
 123:.\puck_functions.c ****             }
 124:.\puck_functions.c ****             //Rescan for new position.
 125:.\puck_functions.c ****             CaptureFrameWithLights(); 
 300              		.loc 1 125 0
 301 00e8 FFF7FEFF 		bl	CaptureFrameWithLights
 302              	.LVL48:
 126:.\puck_functions.c ****             CamScanClosest(clr, blobThresholdSizeDefault);
 303              		.loc 1 126 0
 304 00ec 2046     		mov	r0, r4
 305 00ee 584B     		ldr	r3, .L28+16
 306 00f0 1978     		ldrb	r1, [r3]	@ zero_extendqisi2
 307 00f2 FFF7FEFF 		bl	CamScanClosest
 308              	.LVL49:
 309              	.L12:
 112:.\puck_functions.c ****             if (closestX > numCols/2 + CAMERA_X_OFFSET) {
 310              		.loc 1 112 0
 311 00f6 594B     		ldr	r3, .L28+28
 312 00f8 1A88     		ldrh	r2, [r3]
 313 00fa 594B     		ldr	r3, .L28+32
 314 00fc 1B88     		ldrh	r3, [r3]
 315 00fe 5B08     		lsrs	r3, r3, #1
 316 0100 D01A     		subs	r0, r2, r3
 317 0102 0A38     		subs	r0, r0, #10
 318 0104 80EAE071 		eor	r1, r0, r0, asr #31
 319 0108 A1EBE071 		sub	r1, r1, r0, asr #31
 320 010c 0F29     		cmp	r1, #15
 321 010e 06DD     		ble	.L16
 112:.\puck_functions.c ****             if (closestX > numCols/2 + CAMERA_X_OFFSET) {
 322              		.loc 1 112 0 is_stmt 0 discriminator 1
 323 0110 5449     		ldr	r1, .L28+36
 324 0112 B1F80080 		ldrh	r8, [r1]
 325 0116 C8F1F001 		rsb	r1, r8, #240
ARM GAS  C:\Users\Daniel\AppData\Local\Temp\cczCpxmi.s 			page 9


 326 011a 4129     		cmp	r1, #65
 327 011c 83DC     		bgt	.L17
 328              	.L16:
 127:.\puck_functions.c ****         }
 128:.\puck_functions.c ****         //Close enough to pick up?
 129:.\puck_functions.c ****         if (240-closestY < 65){
 329              		.loc 1 129 0 is_stmt 1
 330 011e 514B     		ldr	r3, .L28+36
 331 0120 1888     		ldrh	r0, [r3]
 332 0122 C0F1F003 		rsb	r3, r0, #240
 333 0126 402B     		cmp	r3, #64
 334 0128 40F38780 		ble	.L25
 130:.\puck_functions.c ****             //Pickup.
 131:.\puck_functions.c ****             found=true; 
 132:.\puck_functions.c ****             return true;
 133:.\puck_functions.c ****         } else { //Puck inbetween 65 and 100.
 134:.\puck_functions.c ****             //Drive closer.
 135:.\puck_functions.c ****             //MovementForward(240-closestY);
 136:.\puck_functions.c ****             if (240-closestY < 160) {
 335              		.loc 1 136 0
 336 012c 9F2B     		cmp	r3, #159
 337 012e 55DC     		bgt	.L19
 137:.\puck_functions.c ****                 CamSeqOperations(); //Find Largest 5 Pucks with default threshold.
 338              		.loc 1 137 0
 339 0130 FFF7FEFF 		bl	CamSeqOperations
 340              	.LVL50:
 138:.\puck_functions.c ****                 if(lrgClr[0]!=clr && lrgY[0] > closestY) //TODO: Won't Handle RED, due to default a
 341              		.loc 1 138 0
 342 0134 4C4B     		ldr	r3, .L28+40
 343 0136 1B78     		ldrb	r3, [r3]	@ zero_extendqisi2
 344 0138 A342     		cmp	r3, r4
 345 013a 32D0     		beq	.L20
 346              		.loc 1 138 0 is_stmt 0 discriminator 1
 347 013c 4B4B     		ldr	r3, .L28+44
 348 013e 1A88     		ldrh	r2, [r3]
 349 0140 484B     		ldr	r3, .L28+36
 350 0142 1B88     		ldrh	r3, [r3]
 351 0144 9A42     		cmp	r2, r3
 352 0146 2CD9     		bls	.L20
 139:.\puck_functions.c ****                 {
 140:.\puck_functions.c ****                     //Pickup Puck, Turn around, release, turn back.
 141:.\puck_functions.c ****                     ClawClose();
 353              		.loc 1 141 0 is_stmt 1
 354 0148 FFF7FEFF 		bl	ClawClose
 355              	.LVL51:
 142:.\puck_functions.c ****                     MovementBackward(3000);
 356              		.loc 1 142 0
 357 014c 40F6B830 		movw	r0, #3000
 358 0150 FFF7FEFF 		bl	MovementBackward
 359              	.LVL52:
 143:.\puck_functions.c ****                     if(path)
 360              		.loc 1 143 0
 361 0154 B9F1000F 		cmp	r9, #0
 362 0158 04D0     		beq	.L21
 144:.\puck_functions.c ****                         MovementPivotLeft(90);
 363              		.loc 1 144 0
 364 015a 0020     		movs	r0, #0
ARM GAS  C:\Users\Daniel\AppData\Local\Temp\cczCpxmi.s 			page 10


 365 015c 4449     		ldr	r1, .L28+48
 366 015e FFF7FEFF 		bl	MovementPivotLeft
 367              	.LVL53:
 368 0162 03E0     		b	.L22
 369              	.L21:
 145:.\puck_functions.c ****                     else
 146:.\puck_functions.c ****                         MovementPivotRight(90);
 370              		.loc 1 146 0
 371 0164 0020     		movs	r0, #0
 372 0166 4249     		ldr	r1, .L28+48
 373 0168 FFF7FEFF 		bl	MovementPivotRight
 374              	.LVL54:
 375              	.L22:
 147:.\puck_functions.c ****                     
 148:.\puck_functions.c ****                     MovementForward(500);
 376              		.loc 1 148 0
 377 016c 4FF4FA70 		mov	r0, #500
 378 0170 FFF7FEFF 		bl	MovementForward
 379              	.LVL55:
 149:.\puck_functions.c ****                     ClawOpen();
 380              		.loc 1 149 0
 381 0174 FFF7FEFF 		bl	ClawOpen
 382              	.LVL56:
 150:.\puck_functions.c ****                     MovementBackward(500);
 383              		.loc 1 150 0
 384 0178 4FF4FA70 		mov	r0, #500
 385 017c FFF7FEFF 		bl	MovementBackward
 386              	.LVL57:
 151:.\puck_functions.c ****                     MovementBackward(1000);
 387              		.loc 1 151 0
 388 0180 4FF47A70 		mov	r0, #1000
 389 0184 FFF7FEFF 		bl	MovementBackward
 390              	.LVL58:
 152:.\puck_functions.c ****                     if(path)
 391              		.loc 1 152 0
 392 0188 B9F1000F 		cmp	r9, #0
 393 018c 04D0     		beq	.L23
 153:.\puck_functions.c ****                         MovementPivotRight(90);
 394              		.loc 1 153 0
 395 018e 0020     		movs	r0, #0
 396 0190 3749     		ldr	r1, .L28+48
 397 0192 FFF7FEFF 		bl	MovementPivotRight
 398              	.LVL59:
 399 0196 3BE0     		b	.L24
 400              	.L23:
 154:.\puck_functions.c ****                     else
 155:.\puck_functions.c ****                         MovementPivotLeft(90);
 401              		.loc 1 155 0
 402 0198 0020     		movs	r0, #0
 403 019a 3549     		ldr	r1, .L28+48
 404 019c FFF7FEFF 		bl	MovementPivotLeft
 405              	.LVL60:
 406 01a0 36E0     		b	.L24
 407              	.L20:
 156:.\puck_functions.c ****                 } else {
 157:.\puck_functions.c ****                     MovementForward(pow(((CAMERA_Y_OFFSET + 240.0-closestY)/140),2)*400);
 408              		.loc 1 157 0
ARM GAS  C:\Users\Daniel\AppData\Local\Temp\cczCpxmi.s 			page 11


 409 01a2 304B     		ldr	r3, .L28+36
 410 01a4 1888     		ldrh	r0, [r3]
 411 01a6 FFF7FEFF 		bl	__aeabi_i2d
 412              	.LVL61:
 413 01aa 0246     		mov	r2, r0
 414 01ac 0B46     		mov	r3, r1
 415 01ae 0020     		movs	r0, #0
 416 01b0 3049     		ldr	r1, .L28+52
 417 01b2 FFF7FEFF 		bl	__aeabi_dsub
 418              	.LVL62:
 419 01b6 0022     		movs	r2, #0
 420 01b8 2F4B     		ldr	r3, .L28+56
 421 01ba FFF7FEFF 		bl	__aeabi_ddiv
 422              	.LVL63:
 423 01be 0022     		movs	r2, #0
 424 01c0 4FF08043 		mov	r3, #1073741824
 425 01c4 FFF7FEFF 		bl	pow
 426              	.LVL64:
 427 01c8 0022     		movs	r2, #0
 428 01ca 2A4B     		ldr	r3, .L28+52
 429 01cc FFF7FEFF 		bl	__aeabi_dmul
 430              	.LVL65:
 431 01d0 FFF7FEFF 		bl	__aeabi_d2uiz
 432              	.LVL66:
 433 01d4 80B2     		uxth	r0, r0
 434 01d6 FFF7FEFF 		bl	MovementForward
 435              	.LVL67:
 436 01da 19E0     		b	.L24
 437              	.L19:
 158:.\puck_functions.c ****                 }
 159:.\puck_functions.c ****             } else {
 160:.\puck_functions.c ****                 MovementForward(pow(((CAMERA_Y_OFFSET + 240.0-closestY)/140),2)*550);
 438              		.loc 1 160 0
 439 01dc FFF7FEFF 		bl	__aeabi_i2d
 440              	.LVL68:
 441 01e0 0246     		mov	r2, r0
 442 01e2 0B46     		mov	r3, r1
 443 01e4 0020     		movs	r0, #0
 444 01e6 2349     		ldr	r1, .L28+52
 445 01e8 FFF7FEFF 		bl	__aeabi_dsub
 446              	.LVL69:
 447 01ec 0022     		movs	r2, #0
 448 01ee 224B     		ldr	r3, .L28+56
 449 01f0 FFF7FEFF 		bl	__aeabi_ddiv
 450              	.LVL70:
 451 01f4 0022     		movs	r2, #0
 452 01f6 4FF08043 		mov	r3, #1073741824
 453 01fa FFF7FEFF 		bl	pow
 454              	.LVL71:
 455 01fe 0022     		movs	r2, #0
 456 0200 1E4B     		ldr	r3, .L28+60
 457 0202 FFF7FEFF 		bl	__aeabi_dmul
 458              	.LVL72:
 459 0206 FFF7FEFF 		bl	__aeabi_d2uiz
 460              	.LVL73:
 461 020a 80B2     		uxth	r0, r0
 462 020c FFF7FEFF 		bl	MovementForward
ARM GAS  C:\Users\Daniel\AppData\Local\Temp\cczCpxmi.s 			page 12


 463              	.LVL74:
 464              	.L24:
 161:.\puck_functions.c ****             }
 162:.\puck_functions.c ****             CaptureFrameWithLights(); 
 465              		.loc 1 162 0
 466 0210 FFF7FEFF 		bl	CaptureFrameWithLights
 467              	.LVL75:
 163:.\puck_functions.c ****             CamScanClosest(clr, blobThresholdSizeDefault);
 468              		.loc 1 163 0
 469 0214 2046     		mov	r0, r4
 470 0216 0E4B     		ldr	r3, .L28+16
 471 0218 1978     		ldrb	r1, [r3]	@ zero_extendqisi2
 472 021a FFF7FEFF 		bl	CamScanClosest
 473              	.LVL76:
 474              	.LBE2:
 164:.\puck_functions.c ****         }
 165:.\puck_functions.c ****     } else {
 166:.\puck_functions.c ****         MovementPivotLeft(10);
 167:.\puck_functions.c ****         angleTotal-=10;
 168:.\puck_functions.c ****     }
 169:.\puck_functions.c ****     return found;
 475              		.loc 1 169 0
 476 021e 0020     		movs	r0, #0
 477 0220 BDE8F883 		pop	{r3, r4, r5, r6, r7, r8, r9, pc}
 478              	.LVL77:
 479              	.L26:
 166:.\puck_functions.c ****         angleTotal-=10;
 480              		.loc 1 166 0
 481 0224 0020     		movs	r0, #0
 482              	.LVL78:
 483 0226 1649     		ldr	r1, .L28+64
 484 0228 FFF7FEFF 		bl	MovementPivotLeft
 485              	.LVL79:
 167:.\puck_functions.c ****     }
 486              		.loc 1 167 0
 487 022c 0A4A     		ldr	r2, .L28+24
 488 022e 1388     		ldrh	r3, [r2]
 489 0230 0A3B     		subs	r3, r3, #10
 490 0232 1380     		strh	r3, [r2]	@ movhi
 491              		.loc 1 169 0
 492 0234 0020     		movs	r0, #0
 493 0236 BDE8F883 		pop	{r3, r4, r5, r6, r7, r8, r9, pc}
 494              	.L25:
 495              	.LBB3:
 132:.\puck_functions.c ****         } else { //Puck inbetween 65 and 100.
 496              		.loc 1 132 0
 497 023a 0120     		movs	r0, #1
 498              	.LBE3:
 170:.\puck_functions.c **** }
 499              		.loc 1 170 0
 500 023c BDE8F883 		pop	{r3, r4, r5, r6, r7, r8, r9, pc}
 501              	.L29:
 502              		.align	3
 503              	.L28:
 504 0240 44174154 		.word	1413551940
 505 0244 FB210940 		.word	1074340347
 506 0248 9A999999 		.word	-1717986918
ARM GAS  C:\Users\Daniel\AppData\Local\Temp\cczCpxmi.s 			page 13


 507 024c 9999D93F 		.word	1071225241
 508 0250 00000000 		.word	blobThresholdSizeDefault
 509 0254 00806640 		.word	1080459264
 510 0258 00000000 		.word	.LANCHOR0
 511 025c 00000000 		.word	closestX
 512 0260 00000000 		.word	numCols
 513 0264 00000000 		.word	closestY
 514 0268 00000000 		.word	lrgClr
 515 026c 00000000 		.word	lrgY
 516 0270 00805640 		.word	1079410688
 517 0274 00007940 		.word	1081671680
 518 0278 00806140 		.word	1080131584
 519 027c 00308140 		.word	1082208256
 520 0280 00002440 		.word	1076101120
 521              		.cfi_endproc
 522              	.LFE64:
 523              		.size	PuckCloseAquire, .-PuckCloseAquire
 524 0284 AFF30080 		.section	.text.PuckFarScan,"ax",%progbits
 525              		.align	2
 526              		.global	PuckFarScan
 527              		.thumb
 528              		.thumb_func
 529              		.type	PuckFarScan, %function
 530              	PuckFarScan:
 531              	.LFB65:
 171:.\puck_functions.c **** /*******************************************************************************
 172:.\puck_functions.c **** * Function Name: PuckFarScan
 173:.\puck_functions.c **** ****************************************************************************//**
 174:.\puck_functions.c **** *
 175:.\puck_functions.c **** * Tilts the camera to ~ 20' to find pucks that are far away.
 176:.\puck_functions.c **** * Rotates 10 degree increments to align to a discovered puck.
 177:.\puck_functions.c **** * Returns TRUE if a puck is found.
 178:.\puck_functions.c **** *
 179:.\puck_functions.c **** *******************************************************************************/
 180:.\puck_functions.c **** 
 181:.\puck_functions.c **** bool PuckFarScan(uint8 clr) {
 532              		.loc 1 181 0
 533              		.cfi_startproc
 534              		@ args = 0, pretend = 0, frame = 0
 535              		@ frame_needed = 0, uses_anonymous_args = 0
 536              	.LVL80:
 537 0000 70B5     		push	{r4, r5, r6, lr}
 538              		.cfi_def_cfa_offset 16
 539              		.cfi_offset 4, -16
 540              		.cfi_offset 5, -12
 541              		.cfi_offset 6, -8
 542              		.cfi_offset 14, -4
 543 0002 0646     		mov	r6, r0
 182:.\puck_functions.c ****     PWM_Tilt_WriteCompare(135);
 544              		.loc 1 182 0
 545 0004 8720     		movs	r0, #135
 546              	.LVL81:
 547 0006 FFF7FEFF 		bl	PWM_Tilt_WriteCompare
 548              	.LVL82:
 183:.\puck_functions.c ****     CyDelay(20);
 549              		.loc 1 183 0
 550 000a 1420     		movs	r0, #20
ARM GAS  C:\Users\Daniel\AppData\Local\Temp\cczCpxmi.s 			page 14


 551 000c FFF7FEFF 		bl	CyDelay
 552              	.LVL83:
 184:.\puck_functions.c ****     
 185:.\puck_functions.c ****     uint8 rotation; //degrees
 186:.\puck_functions.c ****     rotation=0;
 187:.\puck_functions.c ****     
 188:.\puck_functions.c ****     CaptureFrameWithLights();
 553              		.loc 1 188 0
 554 0010 FFF7FEFF 		bl	CaptureFrameWithLights
 555              	.LVL84:
 189:.\puck_functions.c ****     bool ClrOnScreen = CamScanClosest(clr, blobThresholdSizeDefault);
 556              		.loc 1 189 0
 557 0014 3046     		mov	r0, r6
 558 0016 184B     		ldr	r3, .L38
 559 0018 1978     		ldrb	r1, [r3]	@ zero_extendqisi2
 560 001a FFF7FEFF 		bl	CamScanClosest
 561              	.LVL85:
 562 001e 0546     		mov	r5, r0
 563              	.LVL86:
 186:.\puck_functions.c ****     
 564              		.loc 1 186 0
 565 0020 0024     		movs	r4, #0
 190:.\puck_functions.c ****     
 191:.\puck_functions.c ****     while (!ClrOnScreen && rotation<3){
 566              		.loc 1 191 0
 567 0022 1BE0     		b	.L31
 568              	.LVL87:
 569              	.L35:
 192:.\puck_functions.c ****         if(rotation==0){
 570              		.loc 1 192 0
 571 0024 44B9     		cbnz	r4, .L32
 193:.\puck_functions.c ****             MovementPivotLeft(10);//Initialize Turning Arc.
 572              		.loc 1 193 0
 573 0026 0020     		movs	r0, #0
 574 0028 1449     		ldr	r1, .L38+4
 575 002a FFF7FEFF 		bl	MovementPivotLeft
 576              	.LVL88:
 194:.\puck_functions.c ****             angleTotal-=10;
 577              		.loc 1 194 0
 578 002e 144A     		ldr	r2, .L38+8
 579 0030 1388     		ldrh	r3, [r2]
 580 0032 0A3B     		subs	r3, r3, #10
 581 0034 1380     		strh	r3, [r2]	@ movhi
 582 0036 07E0     		b	.L33
 583              	.L32:
 195:.\puck_functions.c ****         } else {
 196:.\puck_functions.c ****             //Keep rotating to scan while finding nothing.
 197:.\puck_functions.c ****             MovementPivotRight(10);
 584              		.loc 1 197 0
 585 0038 0020     		movs	r0, #0
 586 003a 1049     		ldr	r1, .L38+4
 587 003c FFF7FEFF 		bl	MovementPivotRight
 588              	.LVL89:
 198:.\puck_functions.c ****             angleTotal+=10;
 589              		.loc 1 198 0
 590 0040 0F4A     		ldr	r2, .L38+8
 591 0042 1388     		ldrh	r3, [r2]
ARM GAS  C:\Users\Daniel\AppData\Local\Temp\cczCpxmi.s 			page 15


 592 0044 0A33     		adds	r3, r3, #10
 593 0046 1380     		strh	r3, [r2]	@ movhi
 594              	.L33:
 199:.\puck_functions.c ****         }
 200:.\puck_functions.c ****         CaptureFrameWithLights();
 595              		.loc 1 200 0
 596 0048 FFF7FEFF 		bl	CaptureFrameWithLights
 597              	.LVL90:
 201:.\puck_functions.c ****         ClrOnScreen = CamScanClosest(clr, blobThresholdSizeDefault);
 598              		.loc 1 201 0
 599 004c 3046     		mov	r0, r6
 600 004e 0A4B     		ldr	r3, .L38
 601 0050 1978     		ldrb	r1, [r3]	@ zero_extendqisi2
 602 0052 FFF7FEFF 		bl	CamScanClosest
 603              	.LVL91:
 604 0056 0546     		mov	r5, r0
 605              	.LVL92:
 202:.\puck_functions.c ****         rotation=rotation+1;
 606              		.loc 1 202 0
 607 0058 0134     		adds	r4, r4, #1
 608              	.LVL93:
 609 005a E4B2     		uxtb	r4, r4
 610              	.LVL94:
 611              	.L31:
 191:.\puck_functions.c ****         if(rotation==0){
 612              		.loc 1 191 0
 613 005c 0DB9     		cbnz	r5, .L34
 191:.\puck_functions.c ****         if(rotation==0){
 614              		.loc 1 191 0 is_stmt 0 discriminator 1
 615 005e 022C     		cmp	r4, #2
 616 0060 E0D9     		bls	.L35
 617              	.L34:
 203:.\puck_functions.c ****     }
 204:.\puck_functions.c ****     if(!ClrOnScreen){ //Rotate back straight if not seeing anyhing.
 618              		.loc 1 204 0 is_stmt 1
 619 0062 3DB9     		cbnz	r5, .L36
 205:.\puck_functions.c ****         MovementPivotLeft(10);
 620              		.loc 1 205 0
 621 0064 0020     		movs	r0, #0
 622 0066 0549     		ldr	r1, .L38+4
 623 0068 FFF7FEFF 		bl	MovementPivotLeft
 624              	.LVL95:
 206:.\puck_functions.c ****         angleTotal-=10;
 625              		.loc 1 206 0
 626 006c 044A     		ldr	r2, .L38+8
 627 006e 1388     		ldrh	r3, [r2]
 628 0070 0A3B     		subs	r3, r3, #10
 629 0072 1380     		strh	r3, [r2]	@ movhi
 630              	.L36:
 207:.\puck_functions.c ****     }
 208:.\puck_functions.c ****     return ClrOnScreen;
 209:.\puck_functions.c **** }
 631              		.loc 1 209 0
 632 0074 2846     		mov	r0, r5
 633 0076 70BD     		pop	{r4, r5, r6, pc}
 634              	.LVL96:
 635              	.L39:
ARM GAS  C:\Users\Daniel\AppData\Local\Temp\cczCpxmi.s 			page 16


 636              		.align	2
 637              	.L38:
 638 0078 00000000 		.word	blobThresholdSizeDefault
 639 007c 00002440 		.word	1076101120
 640 0080 00000000 		.word	.LANCHOR0
 641              		.cfi_endproc
 642              	.LFE65:
 643              		.size	PuckFarScan, .-PuckFarScan
 644              		.section	.text.PuckFarAquire,"ax",%progbits
 645              		.align	2
 646              		.global	PuckFarAquire
 647              		.thumb
 648              		.thumb_func
 649              		.type	PuckFarAquire, %function
 650              	PuckFarAquire:
 651              	.LFB66:
 210:.\puck_functions.c **** 
 211:.\puck_functions.c **** /*******************************************************************************
 212:.\puck_functions.c **** * Function Name: PuckFarAquire
 213:.\puck_functions.c **** ****************************************************************************//**
 214:.\puck_functions.c **** *
 215:.\puck_functions.c **** * Tilts the camera to ~ 20' to find pucks that are far away.
 216:.\puck_functions.c **** * Moves towards the a found puck.
 217:.\puck_functions.c **** *
 218:.\puck_functions.c **** *******************************************************************************/
 219:.\puck_functions.c **** 
 220:.\puck_functions.c **** bool PuckFarAquire(uint8 clr) {
 652              		.loc 1 220 0
 653              		.cfi_startproc
 654              		@ args = 0, pretend = 0, frame = 0
 655              		@ frame_needed = 0, uses_anonymous_args = 0
 656              	.LVL97:
 657 0000 2DE9F041 		push	{r4, r5, r6, r7, r8, lr}
 658              		.cfi_def_cfa_offset 24
 659              		.cfi_offset 4, -24
 660              		.cfi_offset 5, -20
 661              		.cfi_offset 6, -16
 662              		.cfi_offset 7, -12
 663              		.cfi_offset 8, -8
 664              		.cfi_offset 14, -4
 665 0004 0546     		mov	r5, r0
 221:.\puck_functions.c ****     PWM_Tilt_WriteCompare(135);
 666              		.loc 1 221 0
 667 0006 8720     		movs	r0, #135
 668              	.LVL98:
 669 0008 FFF7FEFF 		bl	PWM_Tilt_WriteCompare
 670              	.LVL99:
 222:.\puck_functions.c ****     CyDelay(20);
 671              		.loc 1 222 0
 672 000c 1420     		movs	r0, #20
 673 000e FFF7FEFF 		bl	CyDelay
 674              	.LVL100:
 223:.\puck_functions.c ****     
 224:.\puck_functions.c ****     CaptureFrameWithLights();
 675              		.loc 1 224 0
 676 0012 FFF7FEFF 		bl	CaptureFrameWithLights
 677              	.LVL101:
ARM GAS  C:\Users\Daniel\AppData\Local\Temp\cczCpxmi.s 			page 17


 225:.\puck_functions.c ****     bool ClrOnScreen = CamScanClosest(clr, blobThresholdSizeDefault);
 678              		.loc 1 225 0
 679 0016 4E4B     		ldr	r3, .L48+24
 680 0018 1C78     		ldrb	r4, [r3]	@ zero_extendqisi2
 681 001a 2846     		mov	r0, r5
 682 001c 2146     		mov	r1, r4
 683 001e FFF7FEFF 		bl	CamScanClosest
 684              	.LVL102:
 226:.\puck_functions.c ****     
 227:.\puck_functions.c ****     if (ClrOnScreen) {
 685              		.loc 1 227 0
 686 0022 8046     		mov	r8, r0
 687 0024 0028     		cmp	r0, #0
 688 0026 7CD1     		bne	.L41
 689              	.LBB4:
 690 0028 82E0     		b	.L42
 691              	.LVL103:
 692              	.L45:
 228:.\puck_functions.c ****         //Found a puck..
 229:.\puck_functions.c ****         //..Turn to puck!
 230:.\puck_functions.c ****         double angle;
 231:.\puck_functions.c ****         double XYRatio;
 232:.\puck_functions.c ****         
 233:.\puck_functions.c ****         while(closestY  < (numRows-60)){
 234:.\puck_functions.c ****             while(abs(closestX - numCols/2 - CAMERA_X_OFFSET) > 20) { //Keep turning untill we get 
 235:.\puck_functions.c ****                 if (closestX > numCols/2 + CAMERA_X_OFFSET) {
 693              		.loc 1 235 0
 694 002a 03F10A02 		add	r2, r3, #10
 695 002e 9142     		cmp	r1, r2
 696 0030 22DD     		ble	.L43
 236:.\puck_functions.c ****                     XYRatio = ((double)(closestX-numCols/2))/(240-closestY + CAMERA_Y_OFFSET);
 697              		.loc 1 236 0
 698 0032 FFF7FEFF 		bl	__aeabi_i2d
 699              	.LVL104:
 700 0036 0646     		mov	r6, r0
 701 0038 0F46     		mov	r7, r1
 702 003a 464B     		ldr	r3, .L48+28
 703 003c 1888     		ldrh	r0, [r3]
 704 003e C0F5C870 		rsb	r0, r0, #400
 705 0042 FFF7FEFF 		bl	__aeabi_i2d
 706              	.LVL105:
 707 0046 0246     		mov	r2, r0
 708 0048 0B46     		mov	r3, r1
 709 004a 3046     		mov	r0, r6
 710 004c 3946     		mov	r1, r7
 711 004e FFF7FEFF 		bl	__aeabi_ddiv
 712              	.LVL106:
 237:.\puck_functions.c ****                     angle = (atan(XYRatio)*180)/PI*corrFact;
 713              		.loc 1 237 0
 714 0052 FFF7FEFF 		bl	atan
 715              	.LVL107:
 716 0056 0022     		movs	r2, #0
 717 0058 3F4B     		ldr	r3, .L48+32
 718 005a FFF7FEFF 		bl	__aeabi_dmul
 719              	.LVL108:
 720 005e 36A3     		adr	r3, .L48
 721 0060 D3E90023 		ldrd	r2, [r3]
ARM GAS  C:\Users\Daniel\AppData\Local\Temp\cczCpxmi.s 			page 18


 722 0064 FFF7FEFF 		bl	__aeabi_ddiv
 723              	.LVL109:
 724 0068 35A3     		adr	r3, .L48+8
 725 006a D3E90023 		ldrd	r2, [r3]
 726 006e FFF7FEFF 		bl	__aeabi_dmul
 727              	.LVL110:
 238:.\puck_functions.c ****                     MovementPivotRight(angle);
 728              		.loc 1 238 0
 729 0072 FFF7FEFF 		bl	MovementPivotRight
 730              	.LVL111:
 731 0076 22E0     		b	.L44
 732              	.L43:
 239:.\puck_functions.c ****                 } else {
 240:.\puck_functions.c ****                     XYRatio=((double)(numCols/2-closestX))/(240-closestY + CAMERA_Y_OFFSET);
 733              		.loc 1 240 0
 734 0078 581A     		subs	r0, r3, r1
 735 007a FFF7FEFF 		bl	__aeabi_i2d
 736              	.LVL112:
 737 007e 0646     		mov	r6, r0
 738 0080 0F46     		mov	r7, r1
 739 0082 344B     		ldr	r3, .L48+28
 740 0084 1888     		ldrh	r0, [r3]
 741 0086 C0F5C870 		rsb	r0, r0, #400
 742 008a FFF7FEFF 		bl	__aeabi_i2d
 743              	.LVL113:
 744 008e 0246     		mov	r2, r0
 745 0090 0B46     		mov	r3, r1
 746 0092 3046     		mov	r0, r6
 747 0094 3946     		mov	r1, r7
 748 0096 FFF7FEFF 		bl	__aeabi_ddiv
 749              	.LVL114:
 241:.\puck_functions.c ****                     angle = (atan(XYRatio)*180)/PI*corrFact;
 750              		.loc 1 241 0
 751 009a FFF7FEFF 		bl	atan
 752              	.LVL115:
 753 009e 0022     		movs	r2, #0
 754 00a0 2D4B     		ldr	r3, .L48+32
 755 00a2 FFF7FEFF 		bl	__aeabi_dmul
 756              	.LVL116:
 757 00a6 24A3     		adr	r3, .L48
 758 00a8 D3E90023 		ldrd	r2, [r3]
 759 00ac FFF7FEFF 		bl	__aeabi_ddiv
 760              	.LVL117:
 761 00b0 23A3     		adr	r3, .L48+8
 762 00b2 D3E90023 		ldrd	r2, [r3]
 763 00b6 FFF7FEFF 		bl	__aeabi_dmul
 764              	.LVL118:
 242:.\puck_functions.c ****                     MovementPivotLeft(angle);
 765              		.loc 1 242 0
 766 00ba FFF7FEFF 		bl	MovementPivotLeft
 767              	.LVL119:
 768              	.L44:
 243:.\puck_functions.c ****                 }
 244:.\puck_functions.c ****                 //Rescan for new position.
 245:.\puck_functions.c ****                 CaptureFrameWithLights(); 
 769              		.loc 1 245 0
 770 00be FFF7FEFF 		bl	CaptureFrameWithLights
ARM GAS  C:\Users\Daniel\AppData\Local\Temp\cczCpxmi.s 			page 19


 771              	.LVL120:
 246:.\puck_functions.c ****                 CamScanClosest(clr, blobThresholdSizeDefault);
 772              		.loc 1 246 0
 773 00c2 2846     		mov	r0, r5
 774 00c4 2146     		mov	r1, r4
 775 00c6 FFF7FEFF 		bl	CamScanClosest
 776              	.LVL121:
 777              	.L46:
 234:.\puck_functions.c ****                 if (closestX > numCols/2 + CAMERA_X_OFFSET) {
 778              		.loc 1 234 0
 779 00ca 244B     		ldr	r3, .L48+36
 780 00cc 1988     		ldrh	r1, [r3]
 781 00ce 244B     		ldr	r3, .L48+40
 782 00d0 1B88     		ldrh	r3, [r3]
 783 00d2 5B08     		lsrs	r3, r3, #1
 784 00d4 C81A     		subs	r0, r1, r3
 785 00d6 A0F10A02 		sub	r2, r0, #10
 786 00da 002A     		cmp	r2, #0
 787 00dc B8BF     		it	lt
 788 00de 5242     		rsblt	r2, r2, #0
 789 00e0 142A     		cmp	r2, #20
 790 00e2 A2DC     		bgt	.L45
 247:.\puck_functions.c ****             }
 248:.\puck_functions.c ****             //Move Towards Puck   
 249:.\puck_functions.c ****             MovementForward(pow(((double)(240-closestY)/120),2)*3000.0);
 791              		.loc 1 249 0
 792 00e4 1B4B     		ldr	r3, .L48+28
 793 00e6 1888     		ldrh	r0, [r3]
 794 00e8 C0F1F000 		rsb	r0, r0, #240
 795 00ec FFF7FEFF 		bl	__aeabi_i2d
 796              	.LVL122:
 797 00f0 0022     		movs	r2, #0
 798 00f2 1C4B     		ldr	r3, .L48+44
 799 00f4 FFF7FEFF 		bl	__aeabi_ddiv
 800              	.LVL123:
 801 00f8 0022     		movs	r2, #0
 802 00fa 4FF08043 		mov	r3, #1073741824
 803 00fe FFF7FEFF 		bl	pow
 804              	.LVL124:
 805 0102 11A3     		adr	r3, .L48+16
 806 0104 D3E90023 		ldrd	r2, [r3]
 807 0108 FFF7FEFF 		bl	__aeabi_dmul
 808              	.LVL125:
 809 010c FFF7FEFF 		bl	__aeabi_d2uiz
 810              	.LVL126:
 811 0110 80B2     		uxth	r0, r0
 812 0112 FFF7FEFF 		bl	MovementForward
 813              	.LVL127:
 250:.\puck_functions.c ****             CaptureFrameWithLights(); 
 814              		.loc 1 250 0
 815 0116 FFF7FEFF 		bl	CaptureFrameWithLights
 816              	.LVL128:
 251:.\puck_functions.c ****             CamScanClosest(clr, blobThresholdSizeDefault);
 817              		.loc 1 251 0
 818 011a 2846     		mov	r0, r5
 819 011c 2146     		mov	r1, r4
 820 011e FFF7FEFF 		bl	CamScanClosest
ARM GAS  C:\Users\Daniel\AppData\Local\Temp\cczCpxmi.s 			page 20


 821              	.LVL129:
 822              	.L41:
 233:.\puck_functions.c ****             while(abs(closestX - numCols/2 - CAMERA_X_OFFSET) > 20) { //Keep turning untill we get 
 823              		.loc 1 233 0
 824 0122 0C4B     		ldr	r3, .L48+28
 825 0124 1A88     		ldrh	r2, [r3]
 826 0126 104B     		ldr	r3, .L48+48
 827 0128 1B78     		ldrb	r3, [r3]	@ zero_extendqisi2
 828 012a 3C3B     		subs	r3, r3, #60
 829 012c 9A42     		cmp	r2, r3
 830 012e CCDB     		blt	.L46
 831              	.L42:
 832              	.LBE4:
 252:.\puck_functions.c ****         }
 253:.\puck_functions.c ****     }
 254:.\puck_functions.c ****     return ClrOnScreen;
 255:.\puck_functions.c **** }
 833              		.loc 1 255 0
 834 0130 4046     		mov	r0, r8
 835 0132 BDE8F081 		pop	{r4, r5, r6, r7, r8, pc}
 836              	.L49:
 837 0136 00BF     		.align	3
 838              	.L48:
 839 0138 44174154 		.word	1413551940
 840 013c FB210940 		.word	1074340347
 841 0140 9A999999 		.word	-1717986918
 842 0144 9999D93F 		.word	1071225241
 843 0148 00000000 		.word	0
 844 014c 0070A740 		.word	1084715008
 845 0150 00000000 		.word	blobThresholdSizeDefault
 846 0154 00000000 		.word	closestY
 847 0158 00806640 		.word	1080459264
 848 015c 00000000 		.word	closestX
 849 0160 00000000 		.word	numCols
 850 0164 00005E40 		.word	1079902208
 851 0168 00000000 		.word	numRows
 852              		.cfi_endproc
 853              	.LFE66:
 854              		.size	PuckFarAquire, .-PuckFarAquire
 855 016c AFF30080 		.section	.text.PuckCanCollect,"ax",%progbits
 856              		.align	2
 857              		.global	PuckCanCollect
 858              		.thumb
 859              		.thumb_func
 860              		.type	PuckCanCollect, %function
 861              	PuckCanCollect:
 862              	.LFB67:
 256:.\puck_functions.c **** /*******************************************************************************
 257:.\puck_functions.c **** * Function Name: PuckCanCollect
 258:.\puck_functions.c **** ****************************************************************************//**
 259:.\puck_functions.c **** *
 260:.\puck_functions.c **** * Checks if the puck is able to be picked up, at close proximity.
 261:.\puck_functions.c **** *
 262:.\puck_functions.c **** *******************************************************************************/
 263:.\puck_functions.c **** bool PuckCanCollect(uint8 clr, bool path) {
 863              		.loc 1 263 0
 864              		.cfi_startproc
ARM GAS  C:\Users\Daniel\AppData\Local\Temp\cczCpxmi.s 			page 21


 865              		@ args = 0, pretend = 0, frame = 0
 866              		@ frame_needed = 0, uses_anonymous_args = 0
 867              	.LVL130:
 868 0000 2DE9F041 		push	{r4, r5, r6, r7, r8, lr}
 869              		.cfi_def_cfa_offset 24
 870              		.cfi_offset 4, -24
 871              		.cfi_offset 5, -20
 872              		.cfi_offset 6, -16
 873              		.cfi_offset 7, -12
 874              		.cfi_offset 8, -8
 875              		.cfi_offset 14, -4
 876 0004 0646     		mov	r6, r0
 877 0006 0F46     		mov	r7, r1
 264:.\puck_functions.c ****     PWM_Tilt_WriteCompare(177); //Halfway=162, Upwards = 135
 878              		.loc 1 264 0
 879 0008 B120     		movs	r0, #177
 880              	.LVL131:
 881 000a FFF7FEFF 		bl	PWM_Tilt_WriteCompare
 882              	.LVL132:
 265:.\puck_functions.c ****     const uint16 detectHeight = 240*6/8;
 266:.\puck_functions.c ****     
 267:.\puck_functions.c ****     CaptureFrameWithLights();
 883              		.loc 1 267 0
 884 000e FFF7FEFF 		bl	CaptureFrameWithLights
 885              	.LVL133:
 268:.\puck_functions.c ****     bool ClrOnScreen = CamScanClosest(clr, 1200);
 886              		.loc 1 268 0
 887 0012 3046     		mov	r0, r6
 888 0014 4FF49661 		mov	r1, #1200
 889 0018 FFF7FEFF 		bl	CamScanClosest
 890              	.LVL134:
 269:.\puck_functions.c ****     uint8 const range = 40;
 270:.\puck_functions.c ****     uint8 const yOffset = 60;
 271:.\puck_functions.c ****     if(ClrOnScreen){
 891              		.loc 1 271 0
 892 001c 0546     		mov	r5, r0
 893 001e 60B9     		cbnz	r0, .L51
 894 0020 BDE8F081 		pop	{r4, r5, r6, r7, r8, pc}
 895              	.LVL135:
 896              	.L53:
 897              	.LBB5:
 272:.\puck_functions.c ****         while (240-closestY > detectHeight) { //A quarter of the screen
 273:.\puck_functions.c ****             MovementForward(100);
 898              		.loc 1 273 0
 899 0024 6420     		movs	r0, #100
 900 0026 FFF7FEFF 		bl	MovementForward
 901              	.LVL136:
 274:.\puck_functions.c ****             CaptureFrameWithLights();
 902              		.loc 1 274 0
 903 002a FFF7FEFF 		bl	CaptureFrameWithLights
 904              	.LVL137:
 275:.\puck_functions.c ****             ClrOnScreen=CamScanClosest(clr,5000);
 905              		.loc 1 275 0
 906 002e 3046     		mov	r0, r6
 907 0030 41F28831 		movw	r1, #5000
 908 0034 FFF7FEFF 		bl	CamScanClosest
 909              	.LVL138:
ARM GAS  C:\Users\Daniel\AppData\Local\Temp\cczCpxmi.s 			page 22


 910 0038 0546     		mov	r5, r0
 911              	.LVL139:
 912              	.L51:
 272:.\puck_functions.c ****         while (240-closestY > detectHeight) { //A quarter of the screen
 913              		.loc 1 272 0
 914 003a 364B     		ldr	r3, .L65
 915 003c 1B88     		ldrh	r3, [r3]
 916 003e C3F1F003 		rsb	r3, r3, #240
 917 0042 B42B     		cmp	r3, #180
 918 0044 EEDC     		bgt	.L53
 272:.\puck_functions.c ****         while (240-closestY > detectHeight) { //A quarter of the screen
 919              		.loc 1 272 0 is_stmt 0 discriminator 1
 920 0046 4FF00108 		mov	r8, #1
 921 004a 0024     		movs	r4, #0
 922 004c 51E0     		b	.L54
 923              	.LVL140:
 924              	.L61:
 276:.\puck_functions.c ****         }
 277:.\puck_functions.c ****         uint8 i;
 278:.\puck_functions.c ****         bool consistent = true;
 279:.\puck_functions.c ****         for (i=0; i<2; i++) {
 280:.\puck_functions.c ****             CaptureFrameWithLights();
 925              		.loc 1 280 0 is_stmt 1
 926 004e FFF7FEFF 		bl	CaptureFrameWithLights
 927              	.LVL141:
 281:.\puck_functions.c ****             ClrOnScreen=CamScanClosest(clr,5000);
 928              		.loc 1 281 0
 929 0052 3046     		mov	r0, r6
 930 0054 41F28831 		movw	r1, #5000
 931 0058 FFF7FEFF 		bl	CamScanClosest
 932              	.LVL142:
 933 005c 0546     		mov	r5, r0
 934              	.LVL143:
 282:.\puck_functions.c ****             if (240-closestY > detectHeight) {//|| closestY > (numRows/2+range+yOffset)
 935              		.loc 1 282 0
 936 005e 2D4B     		ldr	r3, .L65
 937 0060 1B88     		ldrh	r3, [r3]
 938 0062 C3F1F003 		rsb	r3, r3, #240
 939 0066 B42B     		cmp	r3, #180
 940 0068 07DD     		ble	.L55
 941              	.LVL144:
 283:.\puck_functions.c ****                 consistent = false;
 284:.\puck_functions.c ****                 i=5;
 285:.\puck_functions.c ****                 MovementBackward(2000);
 942              		.loc 1 285 0
 943 006a 4FF4FA60 		mov	r0, #2000
 944              	.LVL145:
 945 006e FFF7FEFF 		bl	MovementBackward
 946              	.LVL146:
 283:.\puck_functions.c ****                 consistent = false;
 947              		.loc 1 283 0
 948 0072 4FF00008 		mov	r8, #0
 284:.\puck_functions.c ****                 MovementBackward(2000);
 949              		.loc 1 284 0
 950 0076 0524     		movs	r4, #5
 951 0078 39E0     		b	.L56
 952              	.LVL147:
ARM GAS  C:\Users\Daniel\AppData\Local\Temp\cczCpxmi.s 			page 23


 953              	.L55:
 286:.\puck_functions.c ****             } else if (!ClrOnScreen) {
 954              		.loc 1 286 0
 955 007a 0028     		cmp	r0, #0
 956 007c 37D1     		bne	.L56
 287:.\puck_functions.c ****                 CamSeqOperations(); //Find Largest 5 Pucks with default threshold.
 957              		.loc 1 287 0
 958 007e FFF7FEFF 		bl	CamSeqOperations
 959              	.LVL148:
 288:.\puck_functions.c ****                 if(lrgClr[0]!=clr && lrgY[0]>closestY) //TODO: Won't Handle RED, due to default arr
 960              		.loc 1 288 0
 961 0082 254B     		ldr	r3, .L65+4
 962 0084 1B78     		ldrb	r3, [r3]	@ zero_extendqisi2
 963 0086 B342     		cmp	r3, r6
 964 0088 31D0     		beq	.L56
 965              		.loc 1 288 0 is_stmt 0 discriminator 1
 966 008a 244B     		ldr	r3, .L65+8
 967 008c 1A88     		ldrh	r2, [r3]
 968 008e 214B     		ldr	r3, .L65
 969 0090 1B88     		ldrh	r3, [r3]
 970 0092 9A42     		cmp	r2, r3
 971 0094 2BD9     		bls	.L56
 289:.\puck_functions.c ****                 {
 290:.\puck_functions.c ****                     //Pickup Puck, Turn around, release, turn back.
 291:.\puck_functions.c ****                     ClawClose();
 972              		.loc 1 291 0 is_stmt 1
 973 0096 FFF7FEFF 		bl	ClawClose
 974              	.LVL149:
 292:.\puck_functions.c ****                     MovementBackward(2000);
 975              		.loc 1 292 0
 976 009a 4FF4FA60 		mov	r0, #2000
 977 009e FFF7FEFF 		bl	MovementBackward
 978              	.LVL150:
 293:.\puck_functions.c ****                     if(path)
 979              		.loc 1 293 0
 980 00a2 27B1     		cbz	r7, .L57
 294:.\puck_functions.c ****                         MovementPivotLeft(90);
 981              		.loc 1 294 0
 982 00a4 0020     		movs	r0, #0
 983 00a6 1E49     		ldr	r1, .L65+12
 984 00a8 FFF7FEFF 		bl	MovementPivotLeft
 985              	.LVL151:
 986 00ac 03E0     		b	.L58
 987              	.L57:
 295:.\puck_functions.c ****                     else
 296:.\puck_functions.c ****                         MovementPivotRight(90);
 988              		.loc 1 296 0
 989 00ae 0020     		movs	r0, #0
 990 00b0 1B49     		ldr	r1, .L65+12
 991 00b2 FFF7FEFF 		bl	MovementPivotRight
 992              	.LVL152:
 993              	.L58:
 297:.\puck_functions.c ****                     
 298:.\puck_functions.c ****                      MovementForward(500);
 994              		.loc 1 298 0
 995 00b6 4FF4FA70 		mov	r0, #500
 996 00ba FFF7FEFF 		bl	MovementForward
ARM GAS  C:\Users\Daniel\AppData\Local\Temp\cczCpxmi.s 			page 24


 997              	.LVL153:
 299:.\puck_functions.c ****                     ClawOpen();
 998              		.loc 1 299 0
 999 00be FFF7FEFF 		bl	ClawOpen
 1000              	.LVL154:
 300:.\puck_functions.c ****                     MovementBackward(500);
 1001              		.loc 1 300 0
 1002 00c2 4FF4FA70 		mov	r0, #500
 1003 00c6 FFF7FEFF 		bl	MovementBackward
 1004              	.LVL155:
 301:.\puck_functions.c ****                     MovementBackward(1000);
 1005              		.loc 1 301 0
 1006 00ca 4FF47A70 		mov	r0, #1000
 1007 00ce FFF7FEFF 		bl	MovementBackward
 1008              	.LVL156:
 302:.\puck_functions.c ****                     if(path)
 1009              		.loc 1 302 0
 1010 00d2 27B1     		cbz	r7, .L59
 303:.\puck_functions.c ****                         MovementPivotRight(90);
 1011              		.loc 1 303 0
 1012 00d4 0020     		movs	r0, #0
 1013 00d6 1249     		ldr	r1, .L65+12
 1014 00d8 FFF7FEFF 		bl	MovementPivotRight
 1015              	.LVL157:
 1016 00dc 03E0     		b	.L60
 1017              	.L59:
 304:.\puck_functions.c ****                     else
 305:.\puck_functions.c ****                         MovementPivotLeft(90);
 1018              		.loc 1 305 0
 1019 00de 0020     		movs	r0, #0
 1020 00e0 0F49     		ldr	r1, .L65+12
 1021 00e2 FFF7FEFF 		bl	MovementPivotLeft
 1022              	.LVL158:
 1023              	.L60:
 306:.\puck_functions.c ****                     MovementForward(900);
 1024              		.loc 1 306 0
 1025 00e6 4FF46170 		mov	r0, #900
 1026 00ea FFF7FEFF 		bl	MovementForward
 1027              	.LVL159:
 1028              	.L56:
 279:.\puck_functions.c ****             CaptureFrameWithLights();
 1029              		.loc 1 279 0 discriminator 2
 1030 00ee 0134     		adds	r4, r4, #1
 1031              	.LVL160:
 1032 00f0 E4B2     		uxtb	r4, r4
 1033              	.LVL161:
 1034              	.L54:
 279:.\puck_functions.c ****             CaptureFrameWithLights();
 1035              		.loc 1 279 0 is_stmt 0 discriminator 1
 1036 00f2 012C     		cmp	r4, #1
 1037 00f4 ABD9     		bls	.L61
 307:.\puck_functions.c ****                 }
 308:.\puck_functions.c ****             }
 309:.\puck_functions.c ****         }
 310:.\puck_functions.c ****         if (consistent && ClrOnScreen){
 1038              		.loc 1 310 0 is_stmt 1
 1039 00f6 B8F1000F 		cmp	r8, #0
ARM GAS  C:\Users\Daniel\AppData\Local\Temp\cczCpxmi.s 			page 25


 1040 00fa 05D0     		beq	.L62
 1041              		.loc 1 310 0 is_stmt 0 discriminator 1
 1042 00fc 3DB1     		cbz	r5, .L63
 311:.\puck_functions.c ****             ClawClose();
 1043              		.loc 1 311 0 is_stmt 1
 1044 00fe FFF7FEFF 		bl	ClawClose
 1045              	.LVL162:
 312:.\puck_functions.c ****             return true;
 1046              		.loc 1 312 0
 1047 0102 0120     		movs	r0, #1
 1048 0104 BDE8F081 		pop	{r4, r5, r6, r7, r8, pc}
 1049              	.LVL163:
 1050              	.L62:
 1051              	.LBE5:
 313:.\puck_functions.c ****         }
 314:.\puck_functions.c ****     }
 315:.\puck_functions.c ****     return false;
 1052              		.loc 1 315 0
 1053 0108 0020     		movs	r0, #0
 1054 010a BDE8F081 		pop	{r4, r5, r6, r7, r8, pc}
 1055              	.LVL164:
 1056              	.L63:
 1057 010e 0020     		movs	r0, #0
 316:.\puck_functions.c **** }
 1058              		.loc 1 316 0
 1059 0110 BDE8F081 		pop	{r4, r5, r6, r7, r8, pc}
 1060              	.LVL165:
 1061              	.L66:
 1062              		.align	2
 1063              	.L65:
 1064 0114 00000000 		.word	closestY
 1065 0118 00000000 		.word	lrgClr
 1066 011c 00000000 		.word	lrgY
 1067 0120 00805640 		.word	1079410688
 1068              		.cfi_endproc
 1069              	.LFE67:
 1070              		.size	PuckCanCollect, .-PuckCanCollect
 1071              		.section	.text.PuckFindEndzone,"ax",%progbits
 1072              		.align	2
 1073              		.global	PuckFindEndzone
 1074              		.thumb
 1075              		.thumb_func
 1076              		.type	PuckFindEndzone, %function
 1077              	PuckFindEndzone:
 1078              	.LFB68:
 317:.\puck_functions.c **** 
 318:.\puck_functions.c **** /*******************************************************************************
 319:.\puck_functions.c **** * Function Name: PuckFindEndzone
 320:.\puck_functions.c **** ****************************************************************************//**
 321:.\puck_functions.c **** *
 322:.\puck_functions.c **** * Moves the robot to the endzone if it's visible.
 323:.\puck_functions.c **** *
 324:.\puck_functions.c **** *******************************************************************************/
 325:.\puck_functions.c **** 
 326:.\puck_functions.c **** bool PuckFindEndzone() {
 1079              		.loc 1 326 0
 1080              		.cfi_startproc
ARM GAS  C:\Users\Daniel\AppData\Local\Temp\cczCpxmi.s 			page 26


 1081              		@ args = 0, pretend = 0, frame = 0
 1082              		@ frame_needed = 0, uses_anonymous_args = 0
 1083 0000 10B5     		push	{r4, lr}
 1084              		.cfi_def_cfa_offset 8
 1085              		.cfi_offset 4, -8
 1086              		.cfi_offset 14, -4
 1087 0002 84B0     		sub	sp, sp, #16
 1088              		.cfi_def_cfa_offset 24
 327:.\puck_functions.c ****     //Set new Threshold for Magenta.
 328:.\puck_functions.c ****     Camera_SetEGWB(160,0,128,128); //set exposure, gain and white balance
 1089              		.loc 1 328 0
 1090 0004 A020     		movs	r0, #160
 1091 0006 0021     		movs	r1, #0
 1092 0008 8022     		movs	r2, #128
 1093 000a 1346     		mov	r3, r2
 1094 000c FFF7FEFF 		bl	Camera_SetEGWB
 1095              	.LVL166:
 329:.\puck_functions.c ****     Camera_SetThresholds(-32,64,0,-64,48,-32,-16,16); //set thresholds for the 4 colours - last two
 1096              		.loc 1 329 0
 1097 0010 3023     		movs	r3, #48
 1098 0012 0093     		str	r3, [sp]
 1099 0014 6FF01F00 		mvn	r0, #31
 1100 0018 0190     		str	r0, [sp, #4]
 1101 001a 6FF00F03 		mvn	r3, #15
 1102 001e 0293     		str	r3, [sp, #8]
 1103 0020 1023     		movs	r3, #16
 1104 0022 0393     		str	r3, [sp, #12]
 1105 0024 4021     		movs	r1, #64
 1106 0026 0022     		movs	r2, #0
 1107 0028 6FF03F03 		mvn	r3, #63
 1108 002c FFF7FEFF 		bl	Camera_SetThresholds
 1109              	.LVL167:
 330:.\puck_functions.c ****     TiltDown45();
 1110              		.loc 1 330 0
 1111 0030 FFF7FEFF 		bl	TiltDown45
 1112              	.LVL168:
 331:.\puck_functions.c ****     CaptureFrameWithLights();
 1113              		.loc 1 331 0
 1114 0034 FFF7FEFF 		bl	CaptureFrameWithLights
 1115              	.LVL169:
 332:.\puck_functions.c ****     if (CamIdentifyEndzone()) {
 1116              		.loc 1 332 0
 1117 0038 FFF7FEFF 		bl	CamIdentifyEndzone
 1118              	.LVL170:
 1119 003c 0446     		mov	r4, r0
 1120 003e D0B9     		cbnz	r0, .L68
 1121 0040 34E0     		b	.L72
 1122              	.L70:
 333:.\puck_functions.c ****         while(lowestY < 230) {
 334:.\puck_functions.c ****             MovementForward( pow(((double)(240-lowestY))/240.0,3)*300.0); 
 1123              		.loc 1 334 0
 1124 0042 C0F1F000 		rsb	r0, r0, #240
 1125 0046 FFF7FEFF 		bl	__aeabi_i2d
 1126              	.LVL171:
 1127 004a 0022     		movs	r2, #0
 1128 004c 264B     		ldr	r3, .L74+8
 1129 004e FFF7FEFF 		bl	__aeabi_ddiv
ARM GAS  C:\Users\Daniel\AppData\Local\Temp\cczCpxmi.s 			page 27


 1130              	.LVL172:
 1131 0052 0022     		movs	r2, #0
 1132 0054 254B     		ldr	r3, .L74+12
 1133 0056 FFF7FEFF 		bl	pow
 1134              	.LVL173:
 1135 005a 21A3     		adr	r3, .L74
 1136 005c D3E90023 		ldrd	r2, [r3]
 1137 0060 FFF7FEFF 		bl	__aeabi_dmul
 1138              	.LVL174:
 1139 0064 FFF7FEFF 		bl	__aeabi_d2uiz
 1140              	.LVL175:
 1141 0068 80B2     		uxth	r0, r0
 1142 006a FFF7FEFF 		bl	MovementForward
 1143              	.LVL176:
 335:.\puck_functions.c ****             CaptureFrameWithLights();
 1144              		.loc 1 335 0
 1145 006e FFF7FEFF 		bl	CaptureFrameWithLights
 1146              	.LVL177:
 336:.\puck_functions.c ****             CamIdentifyEndzone();
 1147              		.loc 1 336 0
 1148 0072 FFF7FEFF 		bl	CamIdentifyEndzone
 1149              	.LVL178:
 1150              	.L68:
 333:.\puck_functions.c ****         while(lowestY < 230) {
 1151              		.loc 1 333 0
 1152 0076 1E4B     		ldr	r3, .L74+16
 1153 0078 1888     		ldrh	r0, [r3]
 1154 007a E528     		cmp	r0, #229
 1155 007c E1D9     		bls	.L70
 337:.\puck_functions.c ****         }
 338:.\puck_functions.c ****         
 339:.\puck_functions.c ****         //Return to old Threshold: DONT MODIFY.
 340:.\puck_functions.c ****         Camera_SetEGWB(160,0,128,128);
 1156              		.loc 1 340 0
 1157 007e A020     		movs	r0, #160
 1158 0080 0021     		movs	r1, #0
 1159 0082 8022     		movs	r2, #128
 1160 0084 1346     		mov	r3, r2
 1161 0086 FFF7FEFF 		bl	Camera_SetEGWB
 1162              	.LVL179:
 341:.\puck_functions.c ****         Camera_SetThresholds(-32,64,0,-64,48,-32,-16,32);
 1163              		.loc 1 341 0
 1164 008a 3023     		movs	r3, #48
 1165 008c 0093     		str	r3, [sp]
 1166 008e 6FF01F00 		mvn	r0, #31
 1167 0092 0190     		str	r0, [sp, #4]
 1168 0094 6FF00F03 		mvn	r3, #15
 1169 0098 0293     		str	r3, [sp, #8]
 1170 009a 2023     		movs	r3, #32
 1171 009c 0393     		str	r3, [sp, #12]
 1172 009e 4021     		movs	r1, #64
 1173 00a0 0022     		movs	r2, #0
 1174 00a2 6FF03F03 		mvn	r3, #63
 1175 00a6 FFF7FEFF 		bl	Camera_SetThresholds
 1176              	.LVL180:
 342:.\puck_functions.c ****         return true;
 1177              		.loc 1 342 0
ARM GAS  C:\Users\Daniel\AppData\Local\Temp\cczCpxmi.s 			page 28


 1178 00aa 15E0     		b	.L71
 1179              	.L72:
 343:.\puck_functions.c ****     }
 344:.\puck_functions.c ****     //Return to old Threshold: DONT MODIFY.
 345:.\puck_functions.c ****     Camera_SetEGWB(160,0,128,128);
 1180              		.loc 1 345 0
 1181 00ac A020     		movs	r0, #160
 1182 00ae 0021     		movs	r1, #0
 1183 00b0 8022     		movs	r2, #128
 1184 00b2 1346     		mov	r3, r2
 1185 00b4 FFF7FEFF 		bl	Camera_SetEGWB
 1186              	.LVL181:
 346:.\puck_functions.c ****     Camera_SetThresholds(-32,64,0,-64,48,-32,-16,32);
 1187              		.loc 1 346 0
 1188 00b8 3023     		movs	r3, #48
 1189 00ba 0093     		str	r3, [sp]
 1190 00bc 6FF01F00 		mvn	r0, #31
 1191 00c0 0190     		str	r0, [sp, #4]
 1192 00c2 6FF00F03 		mvn	r3, #15
 1193 00c6 0293     		str	r3, [sp, #8]
 1194 00c8 2023     		movs	r3, #32
 1195 00ca 0393     		str	r3, [sp, #12]
 1196 00cc 4021     		movs	r1, #64
 1197 00ce 0022     		movs	r2, #0
 1198 00d0 6FF03F03 		mvn	r3, #63
 1199 00d4 FFF7FEFF 		bl	Camera_SetThresholds
 1200              	.LVL182:
 1201              	.L71:
 347:.\puck_functions.c ****     return false;
 348:.\puck_functions.c **** }
 1202              		.loc 1 348 0
 1203 00d8 2046     		mov	r0, r4
 1204 00da 04B0     		add	sp, sp, #16
 1205              		.cfi_def_cfa_offset 8
 1206              		@ sp needed
 1207 00dc 10BD     		pop	{r4, pc}
 1208              	.L75:
 1209 00de 00BF     		.align	3
 1210              	.L74:
 1211 00e0 00000000 		.word	0
 1212 00e4 00C07240 		.word	1081262080
 1213 00e8 00006E40 		.word	1080950784
 1214 00ec 00000840 		.word	1074266112
 1215 00f0 00000000 		.word	lowestY
 1216              		.cfi_endproc
 1217              	.LFE68:
 1218              		.size	PuckFindEndzone, .-PuckFindEndzone
 1219 00f4 AFF30080 		.section	.text.PuckResetAngleTotal,"ax",%progbits
 1220              		.align	2
 1221              		.global	PuckResetAngleTotal
 1222              		.thumb
 1223              		.thumb_func
 1224              		.type	PuckResetAngleTotal, %function
 1225              	PuckResetAngleTotal:
 1226              	.LFB70:
 349:.\puck_functions.c **** /*******************************************************************************
 350:.\puck_functions.c **** * Function Name: PuckAquire
ARM GAS  C:\Users\Daniel\AppData\Local\Temp\cczCpxmi.s 			page 29


 351:.\puck_functions.c **** ****************************************************************************//**
 352:.\puck_functions.c **** *
 353:.\puck_functions.c **** * Uses puck function libraries to aquire a puck (find & pickup).
 354:.\puck_functions.c **** *
 355:.\puck_functions.c **** *******************************************************************************/
 356:.\puck_functions.c **** void PuckAquire(uint8 clr, bool path) {
 357:.\puck_functions.c ****     
 358:.\puck_functions.c ****     PanMid();
 359:.\puck_functions.c ****     CyDelay(50);
 360:.\puck_functions.c ****     
 361:.\puck_functions.c ****     bool found = false;
 362:.\puck_functions.c ****     PuckFarScan(clr);
 363:.\puck_functions.c ****     PuckFarAquire(clr);
 364:.\puck_functions.c ****     while(!found) {
 365:.\puck_functions.c ****             if (PuckCloseScan(clr)){
 366:.\puck_functions.c ****                 if(PuckCloseAquire(clr,path))
 367:.\puck_functions.c ****                     found=PuckCanCollect(clr,path);
 368:.\puck_functions.c ****             } else if(PuckFarScan(clr)){
 369:.\puck_functions.c ****                 PuckFarAquire(clr);
 370:.\puck_functions.c ****             }
 371:.\puck_functions.c ****             CamDisplaySeq();
 372:.\puck_functions.c ****             CyDelay(500);
 373:.\puck_functions.c ****         }
 374:.\puck_functions.c ****     MovementBackward(3000);
 375:.\puck_functions.c ****     if(angleTotal > 0)
 376:.\puck_functions.c ****         MovementPivotLeft(angleTotal%360);
 377:.\puck_functions.c ****     else
 378:.\puck_functions.c ****         MovementPivotRight((-angleTotal)%360);
 379:.\puck_functions.c ****     PuckResetAngleTotal();
 380:.\puck_functions.c **** }
 381:.\puck_functions.c **** /*******************************************************************************
 382:.\puck_functions.c **** * Function Name: PuckResetAngleTotal.
 383:.\puck_functions.c **** ****************************************************************************//**
 384:.\puck_functions.c **** *
 385:.\puck_functions.c **** * Resets angle counter.
 386:.\puck_functions.c **** *
 387:.\puck_functions.c **** *******************************************************************************/
 388:.\puck_functions.c **** void PuckResetAngleTotal() {
 1227              		.loc 1 388 0
 1228              		.cfi_startproc
 1229              		@ args = 0, pretend = 0, frame = 0
 1230              		@ frame_needed = 0, uses_anonymous_args = 0
 1231              		@ link register save eliminated.
 389:.\puck_functions.c ****     angleTotal=0;
 1232              		.loc 1 389 0
 1233 0000 0022     		movs	r2, #0
 1234 0002 014B     		ldr	r3, .L77
 1235 0004 1A80     		strh	r2, [r3]	@ movhi
 1236 0006 7047     		bx	lr
 1237              	.L78:
 1238              		.align	2
 1239              	.L77:
 1240 0008 00000000 		.word	.LANCHOR0
 1241              		.cfi_endproc
 1242              	.LFE70:
 1243              		.size	PuckResetAngleTotal, .-PuckResetAngleTotal
 1244              		.section	.text.PuckAquire,"ax",%progbits
ARM GAS  C:\Users\Daniel\AppData\Local\Temp\cczCpxmi.s 			page 30


 1245              		.align	2
 1246              		.global	PuckAquire
 1247              		.thumb
 1248              		.thumb_func
 1249              		.type	PuckAquire, %function
 1250              	PuckAquire:
 1251              	.LFB69:
 356:.\puck_functions.c ****     
 1252              		.loc 1 356 0
 1253              		.cfi_startproc
 1254              		@ args = 0, pretend = 0, frame = 0
 1255              		@ frame_needed = 0, uses_anonymous_args = 0
 1256              	.LVL183:
 1257 0000 70B5     		push	{r4, r5, r6, lr}
 1258              		.cfi_def_cfa_offset 16
 1259              		.cfi_offset 4, -16
 1260              		.cfi_offset 5, -12
 1261              		.cfi_offset 6, -8
 1262              		.cfi_offset 14, -4
 1263 0002 0446     		mov	r4, r0
 1264 0004 0E46     		mov	r6, r1
 358:.\puck_functions.c ****     CyDelay(50);
 1265              		.loc 1 358 0
 1266 0006 FFF7FEFF 		bl	PanMid
 1267              	.LVL184:
 359:.\puck_functions.c ****     
 1268              		.loc 1 359 0
 1269 000a 3220     		movs	r0, #50
 1270 000c FFF7FEFF 		bl	CyDelay
 1271              	.LVL185:
 362:.\puck_functions.c ****     PuckFarAquire(clr);
 1272              		.loc 1 362 0
 1273 0010 2046     		mov	r0, r4
 1274 0012 FFF7FEFF 		bl	PuckFarScan
 1275              	.LVL186:
 363:.\puck_functions.c ****     while(!found) {
 1276              		.loc 1 363 0
 1277 0016 2046     		mov	r0, r4
 1278 0018 FFF7FEFF 		bl	PuckFarAquire
 1279              	.LVL187:
 361:.\puck_functions.c ****     PuckFarScan(clr);
 1280              		.loc 1 361 0
 1281 001c 0025     		movs	r5, #0
 364:.\puck_functions.c ****             if (PuckCloseScan(clr)){
 1282              		.loc 1 364 0
 1283 001e 1BE0     		b	.L80
 1284              	.LVL188:
 1285              	.L83:
 365:.\puck_functions.c ****                 if(PuckCloseAquire(clr,path))
 1286              		.loc 1 365 0
 1287 0020 2046     		mov	r0, r4
 1288 0022 FFF7FEFF 		bl	PuckCloseScan
 1289              	.LVL189:
 1290 0026 50B1     		cbz	r0, .L81
 366:.\puck_functions.c ****                     found=PuckCanCollect(clr,path);
 1291              		.loc 1 366 0
 1292 0028 2046     		mov	r0, r4
ARM GAS  C:\Users\Daniel\AppData\Local\Temp\cczCpxmi.s 			page 31


 1293 002a 3146     		mov	r1, r6
 1294 002c FFF7FEFF 		bl	PuckCloseAquire
 1295              	.LVL190:
 1296 0030 60B1     		cbz	r0, .L82
 367:.\puck_functions.c ****             } else if(PuckFarScan(clr)){
 1297              		.loc 1 367 0
 1298 0032 2046     		mov	r0, r4
 1299 0034 3146     		mov	r1, r6
 1300 0036 FFF7FEFF 		bl	PuckCanCollect
 1301              	.LVL191:
 1302 003a 0546     		mov	r5, r0
 1303              	.LVL192:
 1304 003c 06E0     		b	.L82
 1305              	.L81:
 368:.\puck_functions.c ****                 PuckFarAquire(clr);
 1306              		.loc 1 368 0
 1307 003e 2046     		mov	r0, r4
 1308 0040 FFF7FEFF 		bl	PuckFarScan
 1309              	.LVL193:
 1310 0044 10B1     		cbz	r0, .L82
 369:.\puck_functions.c ****             }
 1311              		.loc 1 369 0
 1312 0046 2046     		mov	r0, r4
 1313 0048 FFF7FEFF 		bl	PuckFarAquire
 1314              	.LVL194:
 1315              	.L82:
 371:.\puck_functions.c ****             CyDelay(500);
 1316              		.loc 1 371 0
 1317 004c FFF7FEFF 		bl	CamDisplaySeq
 1318              	.LVL195:
 372:.\puck_functions.c ****         }
 1319              		.loc 1 372 0
 1320 0050 4FF4FA70 		mov	r0, #500
 1321 0054 FFF7FEFF 		bl	CyDelay
 1322              	.LVL196:
 1323              	.L80:
 364:.\puck_functions.c ****             if (PuckCloseScan(clr)){
 1324              		.loc 1 364 0
 1325 0058 002D     		cmp	r5, #0
 1326 005a E1D0     		beq	.L83
 374:.\puck_functions.c ****     if(angleTotal > 0)
 1327              		.loc 1 374 0
 1328 005c 40F6B830 		movw	r0, #3000
 1329 0060 FFF7FEFF 		bl	MovementBackward
 1330              	.LVL197:
 375:.\puck_functions.c ****         MovementPivotLeft(angleTotal%360);
 1331              		.loc 1 375 0
 1332 0064 124B     		ldr	r3, .L87
 1333 0066 1888     		ldrh	r0, [r3]
 1334 0068 70B1     		cbz	r0, .L84
 376:.\puck_functions.c ****     else
 1335              		.loc 1 376 0
 1336 006a C308     		lsrs	r3, r0, #3
 1337 006c 114A     		ldr	r2, .L87+4
 1338 006e A2FB0323 		umull	r2, r3, r2, r3
 1339 0072 9B08     		lsrs	r3, r3, #2
 1340 0074 4FF4B472 		mov	r2, #360
ARM GAS  C:\Users\Daniel\AppData\Local\Temp\cczCpxmi.s 			page 32


 1341 0078 02FB1300 		mls	r0, r2, r3, r0
 1342 007c 80B2     		uxth	r0, r0
 1343 007e FFF7FEFF 		bl	__aeabi_i2d
 1344              	.LVL198:
 1345 0082 FFF7FEFF 		bl	MovementPivotLeft
 1346              	.LVL199:
 1347 0086 0FE0     		b	.L85
 1348              	.L84:
 378:.\puck_functions.c ****     PuckResetAngleTotal();
 1349              		.loc 1 378 0
 1350 0088 4342     		negs	r3, r0
 1351 008a 0B48     		ldr	r0, .L87+8
 1352 008c 83FB0001 		smull	r0, r1, r3, r0
 1353 0090 5818     		adds	r0, r3, r1
 1354 0092 DA17     		asrs	r2, r3, #31
 1355 0094 C2EB2022 		rsb	r2, r2, r0, asr #8
 1356 0098 4FF4B470 		mov	r0, #360
 1357 009c 00FB1230 		mls	r0, r0, r2, r3
 1358 00a0 FFF7FEFF 		bl	__aeabi_i2d
 1359              	.LVL200:
 1360 00a4 FFF7FEFF 		bl	MovementPivotRight
 1361              	.LVL201:
 1362              	.L85:
 379:.\puck_functions.c **** }
 1363              		.loc 1 379 0
 1364 00a8 FFF7FEFF 		bl	PuckResetAngleTotal
 1365              	.LVL202:
 1366 00ac 70BD     		pop	{r4, r5, r6, pc}
 1367              	.LVL203:
 1368              	.L88:
 1369 00ae 00BF     		.align	2
 1370              	.L87:
 1371 00b0 00000000 		.word	.LANCHOR0
 1372 00b4 176CC116 		.word	381774871
 1373 00b8 B7600BB6 		.word	-1240768329
 1374              		.cfi_endproc
 1375              	.LFE69:
 1376              		.size	PuckAquire, .-PuckAquire
 1377              		.global	__aeabi_dcmpgt
 1378              		.global	__aeabi_dcmplt
 1379              		.section	.text.PuckPositionToStack2,"ax",%progbits
 1380              		.align	2
 1381              		.global	PuckPositionToStack2
 1382              		.thumb
 1383              		.thumb_func
 1384              		.type	PuckPositionToStack2, %function
 1385              	PuckPositionToStack2:
 1386              	.LFB72:
 390:.\puck_functions.c **** }
 391:.\puck_functions.c **** 
 392:.\puck_functions.c **** /*******************************************************************************
 393:.\puck_functions.c **** * Function Name: PuckPositionToStack
 394:.\puck_functions.c **** ****************************************************************************//**
 395:.\puck_functions.c **** *
 396:.\puck_functions.c **** * Aligns the robot to the stack if it's visible.
 397:.\puck_functions.c **** *
 398:.\puck_functions.c **** *******************************************************************************/
ARM GAS  C:\Users\Daniel\AppData\Local\Temp\cczCpxmi.s 			page 33


 399:.\puck_functions.c **** void PuckPositionToStack(uint8 clr){
 400:.\puck_functions.c ****     //clr == Colour --> R,G,B == 0,1,2.
 401:.\puck_functions.c ****     //extern uint8 orderedScaledClr[5]; -> vector of colour sequence
 402:.\puck_functions.c ****     PanMid(); //Make sure camera is in correct direction.
 403:.\puck_functions.c ****     CyDelay(200);
 404:.\puck_functions.c ****     TiltDown45();
 405:.\puck_functions.c ****     CyDelay(200);
 406:.\puck_functions.c ****     
 407:.\puck_functions.c ****     PWM_Tilt_WriteCompare(162);
 408:.\puck_functions.c ****     CyDelay(20);
 409:.\puck_functions.c ****     //Hold Weighting Sums & Colours.
 410:.\puck_functions.c ****     //Initialize Vals.
 411:.\puck_functions.c ****     int Yend;
 412:.\puck_functions.c ****     double angle, XYRatio;
 413:.\puck_functions.c ****     int centreX, centreY;
 414:.\puck_functions.c ****     CaptureFrameWithLights();
 415:.\puck_functions.c ****     Yend = CamIdenifyEndzonePuck(clr);
 416:.\puck_functions.c ****     centreX = closestX-numCols/2;
 417:.\puck_functions.c ****     centreY = 240-closestY + CAMERA_Y_OFFSET;
 418:.\puck_functions.c ****     
 419:.\puck_functions.c ****     bool positioned = false;
 420:.\puck_functions.c ****     while (!positioned){
 421:.\puck_functions.c ****         if(240-closestY > numRows*3.0/8.0){ //Align: CloseAquire uses 240-Y > 65...
 422:.\puck_functions.c ****             while(abs(centreX) > 8) { //Keep turning untill we get a decent alignment //(abs(closes
 423:.\puck_functions.c ****                 if (centreX > 0) {
 424:.\puck_functions.c ****                     XYRatio = ((double)(centreX))/(centreY);
 425:.\puck_functions.c ****                     angle = cbrt((atan(XYRatio)*180)/PI*corrFact*0.8);
 426:.\puck_functions.c ****                     MovementPivotRight(angle);
 427:.\puck_functions.c ****                     angleTotal+=angle;
 428:.\puck_functions.c ****                 } else { //centreX < 0
 429:.\puck_functions.c ****                     XYRatio=((double)(-centreX))/(centreY);
 430:.\puck_functions.c ****                     angle = cbrt((atan(XYRatio)*180)/PI*corrFact*0.8);
 431:.\puck_functions.c ****                     MovementPivotLeft(angle);
 432:.\puck_functions.c ****                     angleTotal+=angle;
 433:.\puck_functions.c ****                 }
 434:.\puck_functions.c ****                 //Rescan for new position.
 435:.\puck_functions.c ****                 CaptureFrameWithLights();
 436:.\puck_functions.c ****                 Yend = CamIdenifyEndzonePuck(clr);
 437:.\puck_functions.c ****                 centreX = closestX-numCols/2;
 438:.\puck_functions.c ****                 centreY = 240-closestY + CAMERA_Y_OFFSET;
 439:.\puck_functions.c ****             }
 440:.\puck_functions.c ****             MovementForward(pow(((240.0-lowestY)/60),2)*300);
 441:.\puck_functions.c ****             CaptureFrameWithLights();
 442:.\puck_functions.c ****             Yend = CamIdenifyEndzonePuck(clr);
 443:.\puck_functions.c ****             centreX = closestX-numCols/2;
 444:.\puck_functions.c ****             centreY = 240-closestY + CAMERA_Y_OFFSET;
 445:.\puck_functions.c ****         } else {
 446:.\puck_functions.c ****             //Close enough to stack?
 447:.\puck_functions.c ****             if (240 - lowestY < numRows*1.0/8.0 ){
 448:.\puck_functions.c ****                 //Stack.
 449:.\puck_functions.c ****                 positioned=PuckPositionToStack2(clr);
 450:.\puck_functions.c ****                 PWM_Tilt_WriteCompare(162);
 451:.\puck_functions.c ****                 CyDelay(200);
 452:.\puck_functions.c ****                 CaptureFrameWithLights();
 453:.\puck_functions.c ****                 Yend = CamIdenifyEndzonePuck(clr);
 454:.\puck_functions.c ****                 centreX = closestX-numCols/2;
 455:.\puck_functions.c ****                 centreY = 240-closestY + CAMERA_Y_OFFSET;
ARM GAS  C:\Users\Daniel\AppData\Local\Temp\cczCpxmi.s 			page 34


 456:.\puck_functions.c ****             } else {
 457:.\puck_functions.c ****                 //Drive closer.
 458:.\puck_functions.c ****                 MovementForward(pow(((240.0-lowestY)/90),2)*300); //From 120 to 90.
 459:.\puck_functions.c ****                 CaptureFrameWithLights();
 460:.\puck_functions.c ****                 Yend = CamIdenifyEndzonePuck(clr);
 461:.\puck_functions.c ****                 centreX = closestX-numCols/2;
 462:.\puck_functions.c ****                 centreY = 240-closestY + CAMERA_Y_OFFSET;
 463:.\puck_functions.c ****             }
 464:.\puck_functions.c ****                 
 465:.\puck_functions.c ****         }
 466:.\puck_functions.c ****     }
 467:.\puck_functions.c **** }
 468:.\puck_functions.c **** 
 469:.\puck_functions.c **** bool PuckPositionToStack2(uint8 clr){
 1387              		.loc 1 469 0
 1388              		.cfi_startproc
 1389              		@ args = 0, pretend = 0, frame = 16
 1390              		@ frame_needed = 0, uses_anonymous_args = 0
 1391              	.LVL204:
 1392 0000 2DE9F047 		push	{r4, r5, r6, r7, r8, r9, r10, lr}
 1393              		.cfi_def_cfa_offset 32
 1394              		.cfi_offset 4, -32
 1395              		.cfi_offset 5, -28
 1396              		.cfi_offset 6, -24
 1397              		.cfi_offset 7, -20
 1398              		.cfi_offset 8, -16
 1399              		.cfi_offset 9, -12
 1400              		.cfi_offset 10, -8
 1401              		.cfi_offset 14, -4
 1402 0004 84B0     		sub	sp, sp, #16
 1403              		.cfi_def_cfa_offset 48
 1404 0006 8146     		mov	r9, r0
 470:.\puck_functions.c **** //clr == Colour --> R,G,B == 0,1,2.
 471:.\puck_functions.c **** //extern uint8 orderedScaledClr[5]; -> vector of colour sequence
 472:.\puck_functions.c ****     PWM_Tilt_WriteCompare(180);
 1405              		.loc 1 472 0
 1406 0008 B420     		movs	r0, #180
 1407              	.LVL205:
 1408 000a FFF7FEFF 		bl	PWM_Tilt_WriteCompare
 1409              	.LVL206:
 473:.\puck_functions.c ****     CyDelay(20);
 1410              		.loc 1 473 0
 1411 000e 1420     		movs	r0, #20
 1412 0010 FFF7FEFF 		bl	CyDelay
 1413              	.LVL207:
 474:.\puck_functions.c ****     //Hold Weighting Sums & Colours.
 475:.\puck_functions.c ****     //Initialize Vals.
 476:.\puck_functions.c ****     double angle, XYRatio, angleTot=0;
 477:.\puck_functions.c ****     int centreX, centreY;
 478:.\puck_functions.c ****     CaptureFrameWithLights();
 1414              		.loc 1 478 0
 1415 0014 FFF7FEFF 		bl	CaptureFrameWithLights
 1416              	.LVL208:
 479:.\puck_functions.c ****     bool canSee = CamIdenifyEndzonePuck(clr);
 1417              		.loc 1 479 0
 1418 0018 4846     		mov	r0, r9
 1419 001a FFF7FEFF 		bl	CamIdenifyEndzonePuck
ARM GAS  C:\Users\Daniel\AppData\Local\Temp\cczCpxmi.s 			page 35


 1420              	.LVL209:
 1421 001e 0746     		mov	r7, r0
 1422              	.LVL210:
 480:.\puck_functions.c ****     centreX = closestX-numCols/2;
 1423              		.loc 1 480 0
 1424 0020 8F4B     		ldr	r3, .L114+24
 1425 0022 1E88     		ldrh	r6, [r3]
 1426 0024 8F4B     		ldr	r3, .L114+28
 1427 0026 B3F80080 		ldrh	r8, [r3]
 1428 002a 4FEA5808 		lsr	r8, r8, #1
 1429 002e C8EB0606 		rsb	r6, r8, r6
 1430              	.LVL211:
 481:.\puck_functions.c ****     centreY = 240-closestY + CAMERA_Y_OFFSET;
 1431              		.loc 1 481 0
 1432 0032 8D4B     		ldr	r3, .L114+32
 1433 0034 B3F800A0 		ldrh	r10, [r3]
 1434 0038 CAF5C87A 		rsb	r10, r10, #400
 1435              	.LVL212:
 476:.\puck_functions.c ****     int centreX, centreY;
 1436              		.loc 1 476 0
 1437 003c 0024     		movs	r4, #0
 1438 003e 0025     		movs	r5, #0
 482:.\puck_functions.c ****     
 483:.\puck_functions.c ****     
 484:.\puck_functions.c ****     bool positioned = false;
 485:.\puck_functions.c ****     while (!positioned && canSee){
 1439              		.loc 1 485 0
 1440 0040 EEE0     		b	.L90
 1441              	.LVL213:
 1442              	.L102:
 486:.\puck_functions.c ****         if(240-closestY > numRows*0.33){ //Align: CloseAquire uses 240-Y > 65...
 1443              		.loc 1 486 0
 1444 0042 894B     		ldr	r3, .L114+32
 1445 0044 1888     		ldrh	r0, [r3]
 1446 0046 C0F1F000 		rsb	r0, r0, #240
 1447 004a FFF7FEFF 		bl	__aeabi_i2d
 1448              	.LVL214:
 1449 004e CDE90201 		strd	r0, [sp, #8]
 1450 0052 864B     		ldr	r3, .L114+36
 1451 0054 1878     		ldrb	r0, [r3]	@ zero_extendqisi2
 1452 0056 FFF7FEFF 		bl	__aeabi_i2d
 1453              	.LVL215:
 1454 005a 7BA3     		adr	r3, .L114
 1455 005c D3E90023 		ldrd	r2, [r3]
 1456 0060 FFF7FEFF 		bl	__aeabi_dmul
 1457              	.LVL216:
 1458 0064 CDE90001 		strd	r0, [sp]
 1459 0068 DDE90201 		ldrd	r0, [sp, #8]
 1460 006c DDE90023 		ldrd	r2, [sp]
 1461 0070 FFF7FEFF 		bl	__aeabi_dcmpgt
 1462              	.LVL217:
 1463 0074 0028     		cmp	r0, #0
 1464 0076 40F08980 		bne	.L91
 1465 007a BAE0     		b	.L109
 1466              	.LVL218:
 1467              	.L98:
 487:.\puck_functions.c ****             while(abs(centreX) > 8) { //Keep turning untill we get a decent alignment //(abs(closes
ARM GAS  C:\Users\Daniel\AppData\Local\Temp\cczCpxmi.s 			page 36


 488:.\puck_functions.c ****                 if (centreX > 0) {
 1468              		.loc 1 488 0
 1469 007c 002E     		cmp	r6, #0
 1470 007e 39DD     		ble	.L93
 489:.\puck_functions.c ****                     XYRatio = ((double)(centreX))/(centreY);
 1471              		.loc 1 489 0
 1472 0080 3046     		mov	r0, r6
 1473 0082 FFF7FEFF 		bl	__aeabi_i2d
 1474              	.LVL219:
 1475 0086 0646     		mov	r6, r0
 1476              	.LVL220:
 1477 0088 0F46     		mov	r7, r1
 1478 008a 5046     		mov	r0, r10
 1479 008c FFF7FEFF 		bl	__aeabi_i2d
 1480              	.LVL221:
 1481 0090 0246     		mov	r2, r0
 1482 0092 0B46     		mov	r3, r1
 1483 0094 3046     		mov	r0, r6
 1484 0096 3946     		mov	r1, r7
 1485 0098 FFF7FEFF 		bl	__aeabi_ddiv
 1486              	.LVL222:
 490:.\puck_functions.c ****                     angle = cbrt((atan(XYRatio)*180)/PI*corrFact/3.0);
 1487              		.loc 1 490 0
 1488 009c FFF7FEFF 		bl	atan
 1489              	.LVL223:
 1490 00a0 0022     		movs	r2, #0
 1491 00a2 734B     		ldr	r3, .L114+40
 1492 00a4 FFF7FEFF 		bl	__aeabi_dmul
 1493              	.LVL224:
 1494 00a8 69A3     		adr	r3, .L114+8
 1495 00aa D3E90023 		ldrd	r2, [r3]
 1496 00ae FFF7FEFF 		bl	__aeabi_ddiv
 1497              	.LVL225:
 1498 00b2 69A3     		adr	r3, .L114+16
 1499 00b4 D3E90023 		ldrd	r2, [r3]
 1500 00b8 FFF7FEFF 		bl	__aeabi_dmul
 1501              	.LVL226:
 1502 00bc 0022     		movs	r2, #0
 1503 00be 6D4B     		ldr	r3, .L114+44
 1504 00c0 FFF7FEFF 		bl	__aeabi_ddiv
 1505              	.LVL227:
 1506 00c4 FFF7FEFF 		bl	cbrt
 1507              	.LVL228:
 1508 00c8 0646     		mov	r6, r0
 1509 00ca 0F46     		mov	r7, r1
 1510              	.LVL229:
 491:.\puck_functions.c ****                     if (angleTot+angle < 20) {
 1511              		.loc 1 491 0
 1512 00cc 2046     		mov	r0, r4
 1513 00ce 2946     		mov	r1, r5
 1514 00d0 3246     		mov	r2, r6
 1515 00d2 3B46     		mov	r3, r7
 1516 00d4 FFF7FEFF 		bl	__aeabi_dadd
 1517              	.LVL230:
 1518 00d8 0446     		mov	r4, r0
 1519              	.LVL231:
 1520 00da 0D46     		mov	r5, r1
ARM GAS  C:\Users\Daniel\AppData\Local\Temp\cczCpxmi.s 			page 37


 1521 00dc 0022     		movs	r2, #0
 1522 00de 664B     		ldr	r3, .L114+48
 1523 00e0 FFF7FEFF 		bl	__aeabi_dcmplt
 1524              	.LVL232:
 1525 00e4 0028     		cmp	r0, #0
 1526 00e6 00F0A480 		beq	.L110
 492:.\puck_functions.c ****                         MovementPivotRight(angle);
 1527              		.loc 1 492 0
 1528 00ea 3046     		mov	r0, r6
 1529 00ec 3946     		mov	r1, r7
 1530 00ee FFF7FEFF 		bl	MovementPivotRight
 1531              	.LVL233:
 1532 00f2 3DE0     		b	.L96
 1533              	.LVL234:
 1534              	.L93:
 493:.\puck_functions.c ****                         angleTot+=angle;
 494:.\puck_functions.c ****                     } else {
 495:.\puck_functions.c ****                         //MovementBackward(1000);
 496:.\puck_functions.c ****                         return false;
 497:.\puck_functions.c ****                     }
 498:.\puck_functions.c ****                 } else { //centreX < 0
 499:.\puck_functions.c ****                     XYRatio=((double)(-centreX))/(centreY);
 1535              		.loc 1 499 0
 1536 00f4 7042     		negs	r0, r6
 1537 00f6 FFF7FEFF 		bl	__aeabi_i2d
 1538              	.LVL235:
 1539 00fa 0646     		mov	r6, r0
 1540              	.LVL236:
 1541 00fc 0F46     		mov	r7, r1
 1542 00fe 5046     		mov	r0, r10
 1543 0100 FFF7FEFF 		bl	__aeabi_i2d
 1544              	.LVL237:
 1545 0104 0246     		mov	r2, r0
 1546 0106 0B46     		mov	r3, r1
 1547 0108 3046     		mov	r0, r6
 1548 010a 3946     		mov	r1, r7
 1549 010c FFF7FEFF 		bl	__aeabi_ddiv
 1550              	.LVL238:
 500:.\puck_functions.c ****                     angle = cbrt((atan(XYRatio)*180)/PI*corrFact/3.0);
 1551              		.loc 1 500 0
 1552 0110 FFF7FEFF 		bl	atan
 1553              	.LVL239:
 1554 0114 0022     		movs	r2, #0
 1555 0116 564B     		ldr	r3, .L114+40
 1556 0118 FFF7FEFF 		bl	__aeabi_dmul
 1557              	.LVL240:
 1558 011c 4CA3     		adr	r3, .L114+8
 1559 011e D3E90023 		ldrd	r2, [r3]
 1560 0122 FFF7FEFF 		bl	__aeabi_ddiv
 1561              	.LVL241:
 1562 0126 4CA3     		adr	r3, .L114+16
 1563 0128 D3E90023 		ldrd	r2, [r3]
 1564 012c FFF7FEFF 		bl	__aeabi_dmul
 1565              	.LVL242:
 1566 0130 0022     		movs	r2, #0
 1567 0132 504B     		ldr	r3, .L114+44
 1568 0134 FFF7FEFF 		bl	__aeabi_ddiv
ARM GAS  C:\Users\Daniel\AppData\Local\Temp\cczCpxmi.s 			page 38


 1569              	.LVL243:
 1570 0138 FFF7FEFF 		bl	cbrt
 1571              	.LVL244:
 1572 013c 0646     		mov	r6, r0
 1573 013e 0F46     		mov	r7, r1
 1574              	.LVL245:
 501:.\puck_functions.c ****                     if (angleTot-angle > -20) {
 1575              		.loc 1 501 0
 1576 0140 2046     		mov	r0, r4
 1577 0142 2946     		mov	r1, r5
 1578 0144 3246     		mov	r2, r6
 1579 0146 3B46     		mov	r3, r7
 1580 0148 FFF7FEFF 		bl	__aeabi_dsub
 1581              	.LVL246:
 1582 014c 0022     		movs	r2, #0
 1583 014e 4B4B     		ldr	r3, .L114+52
 1584 0150 FFF7FEFF 		bl	__aeabi_dcmpgt
 1585              	.LVL247:
 1586 0154 0028     		cmp	r0, #0
 1587 0156 6ED0     		beq	.L111
 502:.\puck_functions.c ****                         MovementPivotLeft(angle);
 1588              		.loc 1 502 0
 1589 0158 3046     		mov	r0, r6
 1590 015a 3946     		mov	r1, r7
 1591 015c FFF7FEFF 		bl	MovementPivotLeft
 1592              	.LVL248:
 503:.\puck_functions.c ****                         angleTot+=angle;
 1593              		.loc 1 503 0
 1594 0160 2046     		mov	r0, r4
 1595 0162 2946     		mov	r1, r5
 1596 0164 3246     		mov	r2, r6
 1597 0166 3B46     		mov	r3, r7
 1598 0168 FFF7FEFF 		bl	__aeabi_dadd
 1599              	.LVL249:
 1600 016c 0446     		mov	r4, r0
 1601              	.LVL250:
 1602 016e 0D46     		mov	r5, r1
 1603              	.LVL251:
 1604              	.L96:
 504:.\puck_functions.c ****                     } else {
 505:.\puck_functions.c ****                         //MovementBackward(1000);
 506:.\puck_functions.c ****                         return false;
 507:.\puck_functions.c ****                     }
 508:.\puck_functions.c ****                 }
 509:.\puck_functions.c ****                 //Rescan for new position.
 510:.\puck_functions.c ****                 CaptureFrameWithLights();
 1605              		.loc 1 510 0
 1606 0170 FFF7FEFF 		bl	CaptureFrameWithLights
 1607              	.LVL252:
 511:.\puck_functions.c ****                 canSee = CamIdenifyEndzonePuck(clr);
 1608              		.loc 1 511 0
 1609 0174 4846     		mov	r0, r9
 1610 0176 FFF7FEFF 		bl	CamIdenifyEndzonePuck
 1611              	.LVL253:
 512:.\puck_functions.c ****                 centreX = closestX-numCols/2;
 1612              		.loc 1 512 0
 1613 017a 394B     		ldr	r3, .L114+24
ARM GAS  C:\Users\Daniel\AppData\Local\Temp\cczCpxmi.s 			page 39


 1614 017c 1E88     		ldrh	r6, [r3]
 1615              	.LVL254:
 1616 017e C8EB0606 		rsb	r6, r8, r6
 1617              	.LVL255:
 513:.\puck_functions.c ****                 centreY = 240-closestY + CAMERA_Y_OFFSET;
 1618              		.loc 1 513 0
 1619 0182 394B     		ldr	r3, .L114+32
 1620 0184 B3F800A0 		ldrh	r10, [r3]
 1621              	.LVL256:
 1622 0188 CAF5C87A 		rsb	r10, r10, #400
 1623              	.LVL257:
 1624              	.L91:
 487:.\puck_functions.c ****                 if (centreX > 0) {
 1625              		.loc 1 487 0
 1626 018c 86EAE673 		eor	r3, r6, r6, asr #31
 1627 0190 A3EBE673 		sub	r3, r3, r6, asr #31
 1628 0194 082B     		cmp	r3, #8
 1629 0196 3FF771AF 		bgt	.L98
 514:.\puck_functions.c ****             }
 515:.\puck_functions.c ****             MovementForward(pow(((240.0-lowestY)/100),2)*100);
 1630              		.loc 1 515 0
 1631 019a 394B     		ldr	r3, .L114+56
 1632 019c 1888     		ldrh	r0, [r3]
 1633 019e FFF7FEFF 		bl	__aeabi_i2d
 1634              	.LVL258:
 1635 01a2 0246     		mov	r2, r0
 1636 01a4 0B46     		mov	r3, r1
 1637 01a6 0020     		movs	r0, #0
 1638 01a8 3649     		ldr	r1, .L114+60
 1639 01aa FFF7FEFF 		bl	__aeabi_dsub
 1640              	.LVL259:
 1641 01ae 0022     		movs	r2, #0
 1642 01b0 354B     		ldr	r3, .L114+64
 1643 01b2 FFF7FEFF 		bl	__aeabi_ddiv
 1644              	.LVL260:
 1645 01b6 0022     		movs	r2, #0
 1646 01b8 4FF08043 		mov	r3, #1073741824
 1647 01bc FFF7FEFF 		bl	pow
 1648              	.LVL261:
 1649 01c0 0022     		movs	r2, #0
 1650 01c2 314B     		ldr	r3, .L114+64
 1651 01c4 FFF7FEFF 		bl	__aeabi_dmul
 1652              	.LVL262:
 1653 01c8 FFF7FEFF 		bl	__aeabi_d2uiz
 1654              	.LVL263:
 1655 01cc 80B2     		uxth	r0, r0
 1656 01ce FFF7FEFF 		bl	MovementForward
 1657              	.LVL264:
 516:.\puck_functions.c ****             CaptureFrameWithLights();
 1658              		.loc 1 516 0
 1659 01d2 FFF7FEFF 		bl	CaptureFrameWithLights
 1660              	.LVL265:
 517:.\puck_functions.c ****             canSee = CamIdenifyEndzonePuck(clr);
 1661              		.loc 1 517 0
 1662 01d6 4846     		mov	r0, r9
 1663 01d8 FFF7FEFF 		bl	CamIdenifyEndzonePuck
 1664              	.LVL266:
ARM GAS  C:\Users\Daniel\AppData\Local\Temp\cczCpxmi.s 			page 40


 1665 01dc 0746     		mov	r7, r0
 1666              	.LVL267:
 518:.\puck_functions.c ****             centreX = closestX-numCols/2;
 1667              		.loc 1 518 0
 1668 01de 204B     		ldr	r3, .L114+24
 1669 01e0 1E88     		ldrh	r6, [r3]
 1670              	.LVL268:
 1671 01e2 C8EB0606 		rsb	r6, r8, r6
 1672              	.LVL269:
 519:.\puck_functions.c ****             centreY = 240-closestY + CAMERA_Y_OFFSET;
 1673              		.loc 1 519 0
 1674 01e6 204B     		ldr	r3, .L114+32
 1675 01e8 B3F800A0 		ldrh	r10, [r3]
 1676              	.LVL270:
 1677 01ec CAF5C87A 		rsb	r10, r10, #400
 1678              	.LVL271:
 1679 01f0 16E0     		b	.L90
 1680              	.L109:
 520:.\puck_functions.c ****         } else {
 521:.\puck_functions.c ****             //Close enough to stack?
 522:.\puck_functions.c ****             if (240 - lowestY < numRows*0.33 ){
 1681              		.loc 1 522 0
 1682 01f2 234B     		ldr	r3, .L114+56
 1683 01f4 1888     		ldrh	r0, [r3]
 1684 01f6 C0F1F000 		rsb	r0, r0, #240
 1685 01fa FFF7FEFF 		bl	__aeabi_i2d
 1686              	.LVL272:
 1687 01fe 0246     		mov	r2, r0
 1688 0200 0B46     		mov	r3, r1
 1689 0202 DDE90001 		ldrd	r0, [sp]
 1690 0206 FFF7FEFF 		bl	__aeabi_dcmpgt
 1691              	.LVL273:
 1692 020a 28B1     		cbz	r0, .L112
 523:.\puck_functions.c ****                 //Stack.
 524:.\puck_functions.c ****                 MovementForward(400);
 1693              		.loc 1 524 0
 1694 020c 4FF4C870 		mov	r0, #400
 1695 0210 FFF7FEFF 		bl	MovementForward
 1696              	.LVL274:
 525:.\puck_functions.c ****                 return true;
 1697              		.loc 1 525 0
 1698 0214 0120     		movs	r0, #1
 1699 0216 11E0     		b	.L94
 1700              	.L112:
 526:.\puck_functions.c ****             } else {
 527:.\puck_functions.c ****                 //Drive closer. SHOULDN'T EXECUTE.
 528:.\puck_functions.c ****                 MovementBackward(500);
 1701              		.loc 1 528 0
 1702 0218 4FF4FA70 		mov	r0, #500
 1703 021c FFF7FEFF 		bl	MovementBackward
 1704              	.LVL275:
 1705              	.L90:
 485:.\puck_functions.c ****         if(240-closestY > numRows*0.33){ //Align: CloseAquire uses 240-Y > 65...
 1706              		.loc 1 485 0
 1707 0220 002F     		cmp	r7, #0
 1708 0222 7FF40EAF 		bne	.L102
 529:.\puck_functions.c ****             }
ARM GAS  C:\Users\Daniel\AppData\Local\Temp\cczCpxmi.s 			page 41


 530:.\puck_functions.c ****                 
 531:.\puck_functions.c ****         }
 532:.\puck_functions.c ****     }
 533:.\puck_functions.c ****     if(!canSee) {
 1709              		.loc 1 533 0
 1710 0226 47B9     		cbnz	r7, .L105
 534:.\puck_functions.c ****         MovementBackward(100);
 1711              		.loc 1 534 0
 1712 0228 6420     		movs	r0, #100
 1713 022a FFF7FEFF 		bl	MovementBackward
 1714              	.LVL276:
 535:.\puck_functions.c ****         return false;
 1715              		.loc 1 535 0
 1716 022e 0020     		movs	r0, #0
 1717 0230 04E0     		b	.L94
 1718              	.LVL277:
 1719              	.L110:
 496:.\puck_functions.c ****                     }
 1720              		.loc 1 496 0
 1721 0232 0020     		movs	r0, #0
 1722 0234 02E0     		b	.L94
 1723              	.LVL278:
 1724              	.L111:
 506:.\puck_functions.c ****                     }
 1725              		.loc 1 506 0
 1726 0236 0020     		movs	r0, #0
 1727 0238 00E0     		b	.L94
 1728              	.LVL279:
 1729              	.L105:
 536:.\puck_functions.c ****     }
 537:.\puck_functions.c ****     return positioned;
 1730              		.loc 1 537 0
 1731 023a 0020     		movs	r0, #0
 1732              	.LVL280:
 1733              	.L94:
 538:.\puck_functions.c **** }
 1734              		.loc 1 538 0
 1735 023c 04B0     		add	sp, sp, #16
 1736              		.cfi_def_cfa_offset 32
 1737              		@ sp needed
 1738 023e BDE8F087 		pop	{r4, r5, r6, r7, r8, r9, r10, pc}
 1739              	.LVL281:
 1740              	.L115:
 1741 0242 00BFAFF3 		.align	3
 1741      0080
 1742              	.L114:
 1743 0248 1F85EB51 		.word	1374389535
 1744 024c B81ED53F 		.word	1070931640
 1745 0250 44174154 		.word	1413551940
 1746 0254 FB210940 		.word	1074340347
 1747 0258 9A999999 		.word	-1717986918
 1748 025c 9999D93F 		.word	1071225241
 1749 0260 00000000 		.word	closestX
 1750 0264 00000000 		.word	numCols
 1751 0268 00000000 		.word	closestY
 1752 026c 00000000 		.word	numRows
 1753 0270 00806640 		.word	1080459264
ARM GAS  C:\Users\Daniel\AppData\Local\Temp\cczCpxmi.s 			page 42


 1754 0274 00000840 		.word	1074266112
 1755 0278 00003440 		.word	1077149696
 1756 027c 000034C0 		.word	-1070333952
 1757 0280 00000000 		.word	lowestY
 1758 0284 00006E40 		.word	1080950784
 1759 0288 00005940 		.word	1079574528
 1760              		.cfi_endproc
 1761              	.LFE72:
 1762              		.size	PuckPositionToStack2, .-PuckPositionToStack2
 1763 028c AFF30080 		.section	.text.PuckPositionToStack,"ax",%progbits
 1764              		.align	2
 1765              		.global	PuckPositionToStack
 1766              		.thumb
 1767              		.thumb_func
 1768              		.type	PuckPositionToStack, %function
 1769              	PuckPositionToStack:
 1770              	.LFB71:
 399:.\puck_functions.c ****     //clr == Colour --> R,G,B == 0,1,2.
 1771              		.loc 1 399 0
 1772              		.cfi_startproc
 1773              		@ args = 0, pretend = 0, frame = 0
 1774              		@ frame_needed = 0, uses_anonymous_args = 0
 1775              	.LVL282:
 1776 0000 2DE9F84F 		push	{r3, r4, r5, r6, r7, r8, r9, r10, fp, lr}
 1777              		.cfi_def_cfa_offset 40
 1778              		.cfi_offset 3, -40
 1779              		.cfi_offset 4, -36
 1780              		.cfi_offset 5, -32
 1781              		.cfi_offset 6, -28
 1782              		.cfi_offset 7, -24
 1783              		.cfi_offset 8, -20
 1784              		.cfi_offset 9, -16
 1785              		.cfi_offset 10, -12
 1786              		.cfi_offset 11, -8
 1787              		.cfi_offset 14, -4
 1788 0004 0546     		mov	r5, r0
 402:.\puck_functions.c ****     CyDelay(200);
 1789              		.loc 1 402 0
 1790 0006 FFF7FEFF 		bl	PanMid
 1791              	.LVL283:
 403:.\puck_functions.c ****     TiltDown45();
 1792              		.loc 1 403 0
 1793 000a C820     		movs	r0, #200
 1794 000c FFF7FEFF 		bl	CyDelay
 1795              	.LVL284:
 404:.\puck_functions.c ****     CyDelay(200);
 1796              		.loc 1 404 0
 1797 0010 FFF7FEFF 		bl	TiltDown45
 1798              	.LVL285:
 405:.\puck_functions.c ****     
 1799              		.loc 1 405 0
 1800 0014 C820     		movs	r0, #200
 1801 0016 FFF7FEFF 		bl	CyDelay
 1802              	.LVL286:
 407:.\puck_functions.c ****     CyDelay(20);
 1803              		.loc 1 407 0
 1804 001a A220     		movs	r0, #162
ARM GAS  C:\Users\Daniel\AppData\Local\Temp\cczCpxmi.s 			page 43


 1805 001c FFF7FEFF 		bl	PWM_Tilt_WriteCompare
 1806              	.LVL287:
 408:.\puck_functions.c ****     //Hold Weighting Sums & Colours.
 1807              		.loc 1 408 0
 1808 0020 1420     		movs	r0, #20
 1809 0022 FFF7FEFF 		bl	CyDelay
 1810              	.LVL288:
 414:.\puck_functions.c ****     Yend = CamIdenifyEndzonePuck(clr);
 1811              		.loc 1 414 0
 1812 0026 FFF7FEFF 		bl	CaptureFrameWithLights
 1813              	.LVL289:
 415:.\puck_functions.c ****     centreX = closestX-numCols/2;
 1814              		.loc 1 415 0
 1815 002a 2846     		mov	r0, r5
 1816 002c FFF7FEFF 		bl	CamIdenifyEndzonePuck
 1817              	.LVL290:
 416:.\puck_functions.c ****     centreY = 240-closestY + CAMERA_Y_OFFSET;
 1818              		.loc 1 416 0
 1819 0030 A94B     		ldr	r3, .L131+32
 1820 0032 B3F80090 		ldrh	r9, [r3]
 1821 0036 A94B     		ldr	r3, .L131+36
 1822 0038 1B88     		ldrh	r3, [r3]
 1823 003a A9EB5309 		sub	r9, r9, r3, lsr #1
 1824              	.LVL291:
 417:.\puck_functions.c ****     
 1825              		.loc 1 417 0
 1826 003e A84B     		ldr	r3, .L131+40
 1827 0040 1C88     		ldrh	r4, [r3]
 1828 0042 C4F5C874 		rsb	r4, r4, #400
 1829              	.LVL292:
 419:.\puck_functions.c ****     while (!positioned){
 1830              		.loc 1 419 0
 1831 0046 4FF00008 		mov	r8, #0
 420:.\puck_functions.c ****         if(240-closestY > numRows*3.0/8.0){ //Align: CloseAquire uses 240-Y > 65...
 1832              		.loc 1 420 0
 1833 004a 2EE1     		b	.L117
 1834              	.LVL293:
 1835              	.L126:
 421:.\puck_functions.c ****             while(abs(centreX) > 8) { //Keep turning untill we get a decent alignment //(abs(closes
 1836              		.loc 1 421 0
 1837 004c A44B     		ldr	r3, .L131+40
 1838 004e 1888     		ldrh	r0, [r3]
 1839 0050 C0F1F000 		rsb	r0, r0, #240
 1840 0054 FFF7FEFF 		bl	__aeabi_i2d
 1841              	.LVL294:
 1842 0058 0646     		mov	r6, r0
 1843 005a 0F46     		mov	r7, r1
 1844 005c A14B     		ldr	r3, .L131+44
 1845 005e 1878     		ldrb	r0, [r3]	@ zero_extendqisi2
 1846 0060 FFF7FEFF 		bl	__aeabi_i2d
 1847              	.LVL295:
 1848 0064 8246     		mov	r10, r0
 1849 0066 8B46     		mov	fp, r1
 1850 0068 0022     		movs	r2, #0
 1851 006a 9F4B     		ldr	r3, .L131+48
 1852 006c FFF7FEFF 		bl	__aeabi_dmul
 1853              	.LVL296:
ARM GAS  C:\Users\Daniel\AppData\Local\Temp\cczCpxmi.s 			page 44


 1854 0070 0022     		movs	r2, #0
 1855 0072 4FF07F53 		mov	r3, #1069547520
 1856 0076 FFF7FEFF 		bl	__aeabi_dmul
 1857              	.LVL297:
 1858 007a 0246     		mov	r2, r0
 1859 007c 0B46     		mov	r3, r1
 1860 007e 3046     		mov	r0, r6
 1861 0080 3946     		mov	r1, r7
 1862 0082 FFF7FEFF 		bl	__aeabi_dcmpgt
 1863              	.LVL298:
 1864 0086 0028     		cmp	r0, #0
 1865 0088 7DD1     		bne	.L118
 1866 008a B1E0     		b	.L128
 1867              	.L122:
 423:.\puck_functions.c ****                     XYRatio = ((double)(centreX))/(centreY);
 1868              		.loc 1 423 0
 1869 008c B9F1000F 		cmp	r9, #0
 1870 0090 34DD     		ble	.L120
 424:.\puck_functions.c ****                     angle = cbrt((atan(XYRatio)*180)/PI*corrFact*0.8);
 1871              		.loc 1 424 0
 1872 0092 4846     		mov	r0, r9
 1873 0094 FFF7FEFF 		bl	__aeabi_i2d
 1874              	.LVL299:
 1875 0098 0646     		mov	r6, r0
 1876 009a 0F46     		mov	r7, r1
 1877 009c 2046     		mov	r0, r4
 1878 009e FFF7FEFF 		bl	__aeabi_i2d
 1879              	.LVL300:
 1880 00a2 0246     		mov	r2, r0
 1881 00a4 0B46     		mov	r3, r1
 1882 00a6 3046     		mov	r0, r6
 1883 00a8 3946     		mov	r1, r7
 1884 00aa FFF7FEFF 		bl	__aeabi_ddiv
 1885              	.LVL301:
 425:.\puck_functions.c ****                     MovementPivotRight(angle);
 1886              		.loc 1 425 0
 1887 00ae FFF7FEFF 		bl	atan
 1888              	.LVL302:
 1889 00b2 0022     		movs	r2, #0
 1890 00b4 8D4B     		ldr	r3, .L131+52
 1891 00b6 FFF7FEFF 		bl	__aeabi_dmul
 1892              	.LVL303:
 1893 00ba 7FA3     		adr	r3, .L131
 1894 00bc D3E90023 		ldrd	r2, [r3]
 1895 00c0 FFF7FEFF 		bl	__aeabi_ddiv
 1896              	.LVL304:
 1897 00c4 7EA3     		adr	r3, .L131+8
 1898 00c6 D3E90023 		ldrd	r2, [r3]
 1899 00ca FFF7FEFF 		bl	__aeabi_dmul
 1900              	.LVL305:
 1901 00ce 7EA3     		adr	r3, .L131+16
 1902 00d0 D3E90023 		ldrd	r2, [r3]
 1903 00d4 FFF7FEFF 		bl	__aeabi_dmul
 1904              	.LVL306:
 1905 00d8 FFF7FEFF 		bl	cbrt
 1906              	.LVL307:
 1907 00dc 0646     		mov	r6, r0
ARM GAS  C:\Users\Daniel\AppData\Local\Temp\cczCpxmi.s 			page 45


 1908 00de 0F46     		mov	r7, r1
 1909              	.LVL308:
 426:.\puck_functions.c ****                     angleTotal+=angle;
 1910              		.loc 1 426 0
 1911 00e0 FFF7FEFF 		bl	MovementPivotRight
 1912              	.LVL309:
 427:.\puck_functions.c ****                 } else { //centreX < 0
 1913              		.loc 1 427 0
 1914 00e4 824C     		ldr	r4, .L131+56
 1915              	.LVL310:
 1916 00e6 2088     		ldrh	r0, [r4]
 1917 00e8 FFF7FEFF 		bl	__aeabi_i2d
 1918              	.LVL311:
 1919 00ec 3246     		mov	r2, r6
 1920 00ee 3B46     		mov	r3, r7
 1921 00f0 FFF7FEFF 		bl	__aeabi_dadd
 1922              	.LVL312:
 1923 00f4 FFF7FEFF 		bl	__aeabi_d2uiz
 1924              	.LVL313:
 1925 00f8 2080     		strh	r0, [r4]	@ movhi
 1926 00fa 34E0     		b	.L121
 1927              	.LVL314:
 1928              	.L120:
 429:.\puck_functions.c ****                     angle = cbrt((atan(XYRatio)*180)/PI*corrFact*0.8);
 1929              		.loc 1 429 0
 1930 00fc C9F10000 		rsb	r0, r9, #0
 1931 0100 FFF7FEFF 		bl	__aeabi_i2d
 1932              	.LVL315:
 1933 0104 0646     		mov	r6, r0
 1934 0106 0F46     		mov	r7, r1
 1935 0108 2046     		mov	r0, r4
 1936 010a FFF7FEFF 		bl	__aeabi_i2d
 1937              	.LVL316:
 1938 010e 0246     		mov	r2, r0
 1939 0110 0B46     		mov	r3, r1
 1940 0112 3046     		mov	r0, r6
 1941 0114 3946     		mov	r1, r7
 1942 0116 FFF7FEFF 		bl	__aeabi_ddiv
 1943              	.LVL317:
 430:.\puck_functions.c ****                     MovementPivotLeft(angle);
 1944              		.loc 1 430 0
 1945 011a FFF7FEFF 		bl	atan
 1946              	.LVL318:
 1947 011e 0022     		movs	r2, #0
 1948 0120 724B     		ldr	r3, .L131+52
 1949 0122 FFF7FEFF 		bl	__aeabi_dmul
 1950              	.LVL319:
 1951 0126 64A3     		adr	r3, .L131
 1952 0128 D3E90023 		ldrd	r2, [r3]
 1953 012c FFF7FEFF 		bl	__aeabi_ddiv
 1954              	.LVL320:
 1955 0130 63A3     		adr	r3, .L131+8
 1956 0132 D3E90023 		ldrd	r2, [r3]
 1957 0136 FFF7FEFF 		bl	__aeabi_dmul
 1958              	.LVL321:
 1959 013a 63A3     		adr	r3, .L131+16
 1960 013c D3E90023 		ldrd	r2, [r3]
ARM GAS  C:\Users\Daniel\AppData\Local\Temp\cczCpxmi.s 			page 46


 1961 0140 FFF7FEFF 		bl	__aeabi_dmul
 1962              	.LVL322:
 1963 0144 FFF7FEFF 		bl	cbrt
 1964              	.LVL323:
 1965 0148 0646     		mov	r6, r0
 1966 014a 0F46     		mov	r7, r1
 1967              	.LVL324:
 431:.\puck_functions.c ****                     angleTotal+=angle;
 1968              		.loc 1 431 0
 1969 014c FFF7FEFF 		bl	MovementPivotLeft
 1970              	.LVL325:
 432:.\puck_functions.c ****                 }
 1971              		.loc 1 432 0
 1972 0150 674C     		ldr	r4, .L131+56
 1973              	.LVL326:
 1974 0152 2088     		ldrh	r0, [r4]
 1975 0154 FFF7FEFF 		bl	__aeabi_i2d
 1976              	.LVL327:
 1977 0158 3246     		mov	r2, r6
 1978 015a 3B46     		mov	r3, r7
 1979 015c FFF7FEFF 		bl	__aeabi_dadd
 1980              	.LVL328:
 1981 0160 FFF7FEFF 		bl	__aeabi_d2uiz
 1982              	.LVL329:
 1983 0164 2080     		strh	r0, [r4]	@ movhi
 1984              	.L121:
 435:.\puck_functions.c ****                 Yend = CamIdenifyEndzonePuck(clr);
 1985              		.loc 1 435 0
 1986 0166 FFF7FEFF 		bl	CaptureFrameWithLights
 1987              	.LVL330:
 436:.\puck_functions.c ****                 centreX = closestX-numCols/2;
 1988              		.loc 1 436 0
 1989 016a 2846     		mov	r0, r5
 1990 016c FFF7FEFF 		bl	CamIdenifyEndzonePuck
 1991              	.LVL331:
 437:.\puck_functions.c ****                 centreY = 240-closestY + CAMERA_Y_OFFSET;
 1992              		.loc 1 437 0
 1993 0170 594B     		ldr	r3, .L131+32
 1994 0172 B3F80090 		ldrh	r9, [r3]
 1995              	.LVL332:
 1996 0176 594B     		ldr	r3, .L131+36
 1997 0178 1B88     		ldrh	r3, [r3]
 1998 017a A9EB5309 		sub	r9, r9, r3, lsr #1
 1999              	.LVL333:
 438:.\puck_functions.c ****             }
 2000              		.loc 1 438 0
 2001 017e 584B     		ldr	r3, .L131+40
 2002 0180 1C88     		ldrh	r4, [r3]
 2003 0182 C4F5C874 		rsb	r4, r4, #400
 2004              	.LVL334:
 2005              	.L118:
 422:.\puck_functions.c ****                 if (centreX > 0) {
 2006              		.loc 1 422 0
 2007 0186 89EAE973 		eor	r3, r9, r9, asr #31
 2008 018a A3EBE973 		sub	r3, r3, r9, asr #31
 2009 018e 082B     		cmp	r3, #8
 2010 0190 3FF77CAF 		bgt	.L122
ARM GAS  C:\Users\Daniel\AppData\Local\Temp\cczCpxmi.s 			page 47


 440:.\puck_functions.c ****             CaptureFrameWithLights();
 2011              		.loc 1 440 0
 2012 0194 574B     		ldr	r3, .L131+60
 2013 0196 1888     		ldrh	r0, [r3]
 2014 0198 FFF7FEFF 		bl	__aeabi_i2d
 2015              	.LVL335:
 2016 019c 0246     		mov	r2, r0
 2017 019e 0B46     		mov	r3, r1
 2018 01a0 0020     		movs	r0, #0
 2019 01a2 5549     		ldr	r1, .L131+64
 2020 01a4 FFF7FEFF 		bl	__aeabi_dsub
 2021              	.LVL336:
 2022 01a8 0022     		movs	r2, #0
 2023 01aa 544B     		ldr	r3, .L131+68
 2024 01ac FFF7FEFF 		bl	__aeabi_ddiv
 2025              	.LVL337:
 2026 01b0 0022     		movs	r2, #0
 2027 01b2 4FF08043 		mov	r3, #1073741824
 2028 01b6 FFF7FEFF 		bl	pow
 2029              	.LVL338:
 2030 01ba 45A3     		adr	r3, .L131+24
 2031 01bc D3E90023 		ldrd	r2, [r3]
 2032 01c0 FFF7FEFF 		bl	__aeabi_dmul
 2033              	.LVL339:
 2034 01c4 FFF7FEFF 		bl	__aeabi_d2uiz
 2035              	.LVL340:
 2036 01c8 80B2     		uxth	r0, r0
 2037 01ca FFF7FEFF 		bl	MovementForward
 2038              	.LVL341:
 441:.\puck_functions.c ****             Yend = CamIdenifyEndzonePuck(clr);
 2039              		.loc 1 441 0
 2040 01ce FFF7FEFF 		bl	CaptureFrameWithLights
 2041              	.LVL342:
 442:.\puck_functions.c ****             centreX = closestX-numCols/2;
 2042              		.loc 1 442 0
 2043 01d2 2846     		mov	r0, r5
 2044 01d4 FFF7FEFF 		bl	CamIdenifyEndzonePuck
 2045              	.LVL343:
 443:.\puck_functions.c ****             centreY = 240-closestY + CAMERA_Y_OFFSET;
 2046              		.loc 1 443 0
 2047 01d8 3F4B     		ldr	r3, .L131+32
 2048 01da B3F80090 		ldrh	r9, [r3]
 2049              	.LVL344:
 2050 01de 3F4B     		ldr	r3, .L131+36
 2051 01e0 1B88     		ldrh	r3, [r3]
 2052 01e2 A9EB5309 		sub	r9, r9, r3, lsr #1
 2053              	.LVL345:
 444:.\puck_functions.c ****         } else {
 2054              		.loc 1 444 0
 2055 01e6 3E4B     		ldr	r3, .L131+40
 2056 01e8 1C88     		ldrh	r4, [r3]
 2057              	.LVL346:
 2058 01ea C4F5C874 		rsb	r4, r4, #400
 2059              	.LVL347:
 2060 01ee 5CE0     		b	.L117
 2061              	.L128:
 447:.\puck_functions.c ****                 //Stack.
ARM GAS  C:\Users\Daniel\AppData\Local\Temp\cczCpxmi.s 			page 48


 2062              		.loc 1 447 0
 2063 01f0 404B     		ldr	r3, .L131+60
 2064 01f2 1C88     		ldrh	r4, [r3]
 2065              	.LVL348:
 2066 01f4 C4F1F000 		rsb	r0, r4, #240
 2067 01f8 FFF7FEFF 		bl	__aeabi_i2d
 2068              	.LVL349:
 2069 01fc 0646     		mov	r6, r0
 2070 01fe 0F46     		mov	r7, r1
 2071 0200 5046     		mov	r0, r10
 2072 0202 5946     		mov	r1, fp
 2073 0204 0022     		movs	r2, #0
 2074 0206 4FF07F53 		mov	r3, #1069547520
 2075 020a FFF7FEFF 		bl	__aeabi_dmul
 2076              	.LVL350:
 2077 020e 0246     		mov	r2, r0
 2078 0210 0B46     		mov	r3, r1
 2079 0212 3046     		mov	r0, r6
 2080 0214 3946     		mov	r1, r7
 2081 0216 FFF7FEFF 		bl	__aeabi_dcmplt
 2082              	.LVL351:
 2083 021a D0B1     		cbz	r0, .L129
 449:.\puck_functions.c ****                 PWM_Tilt_WriteCompare(162);
 2084              		.loc 1 449 0
 2085 021c 2846     		mov	r0, r5
 2086 021e FFF7FEFF 		bl	PuckPositionToStack2
 2087              	.LVL352:
 2088 0222 8046     		mov	r8, r0
 2089              	.LVL353:
 450:.\puck_functions.c ****                 CyDelay(200);
 2090              		.loc 1 450 0
 2091 0224 A220     		movs	r0, #162
 2092 0226 FFF7FEFF 		bl	PWM_Tilt_WriteCompare
 2093              	.LVL354:
 451:.\puck_functions.c ****                 CaptureFrameWithLights();
 2094              		.loc 1 451 0
 2095 022a C820     		movs	r0, #200
 2096 022c FFF7FEFF 		bl	CyDelay
 2097              	.LVL355:
 452:.\puck_functions.c ****                 Yend = CamIdenifyEndzonePuck(clr);
 2098              		.loc 1 452 0
 2099 0230 FFF7FEFF 		bl	CaptureFrameWithLights
 2100              	.LVL356:
 453:.\puck_functions.c ****                 centreX = closestX-numCols/2;
 2101              		.loc 1 453 0
 2102 0234 2846     		mov	r0, r5
 2103 0236 FFF7FEFF 		bl	CamIdenifyEndzonePuck
 2104              	.LVL357:
 454:.\puck_functions.c ****                 centreY = 240-closestY + CAMERA_Y_OFFSET;
 2105              		.loc 1 454 0
 2106 023a 274B     		ldr	r3, .L131+32
 2107 023c B3F80090 		ldrh	r9, [r3]
 2108              	.LVL358:
 2109 0240 264B     		ldr	r3, .L131+36
 2110 0242 1B88     		ldrh	r3, [r3]
 2111 0244 A9EB5309 		sub	r9, r9, r3, lsr #1
 2112              	.LVL359:
ARM GAS  C:\Users\Daniel\AppData\Local\Temp\cczCpxmi.s 			page 49


 455:.\puck_functions.c ****             } else {
 2113              		.loc 1 455 0
 2114 0248 254B     		ldr	r3, .L131+40
 2115 024a 1C88     		ldrh	r4, [r3]
 2116 024c C4F5C874 		rsb	r4, r4, #400
 2117              	.LVL360:
 2118 0250 2BE0     		b	.L117
 2119              	.LVL361:
 2120              	.L129:
 458:.\puck_functions.c ****                 CaptureFrameWithLights();
 2121              		.loc 1 458 0
 2122 0252 2046     		mov	r0, r4
 2123 0254 FFF7FEFF 		bl	__aeabi_i2d
 2124              	.LVL362:
 2125 0258 0246     		mov	r2, r0
 2126 025a 0B46     		mov	r3, r1
 2127 025c 0020     		movs	r0, #0
 2128 025e 2649     		ldr	r1, .L131+64
 2129 0260 FFF7FEFF 		bl	__aeabi_dsub
 2130              	.LVL363:
 2131 0264 0022     		movs	r2, #0
 2132 0266 264B     		ldr	r3, .L131+72
 2133 0268 FFF7FEFF 		bl	__aeabi_ddiv
 2134              	.LVL364:
 2135 026c 0022     		movs	r2, #0
 2136 026e 4FF08043 		mov	r3, #1073741824
 2137 0272 FFF7FEFF 		bl	pow
 2138              	.LVL365:
 2139 0276 16A3     		adr	r3, .L131+24
 2140 0278 D3E90023 		ldrd	r2, [r3]
 2141 027c FFF7FEFF 		bl	__aeabi_dmul
 2142              	.LVL366:
 2143 0280 FFF7FEFF 		bl	__aeabi_d2uiz
 2144              	.LVL367:
 2145 0284 80B2     		uxth	r0, r0
 2146 0286 FFF7FEFF 		bl	MovementForward
 2147              	.LVL368:
 459:.\puck_functions.c ****                 Yend = CamIdenifyEndzonePuck(clr);
 2148              		.loc 1 459 0
 2149 028a FFF7FEFF 		bl	CaptureFrameWithLights
 2150              	.LVL369:
 460:.\puck_functions.c ****                 centreX = closestX-numCols/2;
 2151              		.loc 1 460 0
 2152 028e 2846     		mov	r0, r5
 2153 0290 FFF7FEFF 		bl	CamIdenifyEndzonePuck
 2154              	.LVL370:
 461:.\puck_functions.c ****                 centreY = 240-closestY + CAMERA_Y_OFFSET;
 2155              		.loc 1 461 0
 2156 0294 104B     		ldr	r3, .L131+32
 2157 0296 B3F80090 		ldrh	r9, [r3]
 2158              	.LVL371:
 2159 029a 104B     		ldr	r3, .L131+36
 2160 029c 1B88     		ldrh	r3, [r3]
 2161 029e A9EB5309 		sub	r9, r9, r3, lsr #1
 2162              	.LVL372:
 462:.\puck_functions.c ****             }
 2163              		.loc 1 462 0
ARM GAS  C:\Users\Daniel\AppData\Local\Temp\cczCpxmi.s 			page 50


 2164 02a2 0F4B     		ldr	r3, .L131+40
 2165 02a4 1C88     		ldrh	r4, [r3]
 2166 02a6 C4F5C874 		rsb	r4, r4, #400
 2167              	.LVL373:
 2168              	.L117:
 420:.\puck_functions.c ****         if(240-closestY > numRows*3.0/8.0){ //Align: CloseAquire uses 240-Y > 65...
 2169              		.loc 1 420 0
 2170 02aa B8F1000F 		cmp	r8, #0
 2171 02ae 3FF4CDAE 		beq	.L126
 467:.\puck_functions.c **** 
 2172              		.loc 1 467 0
 2173 02b2 BDE8F88F 		pop	{r3, r4, r5, r6, r7, r8, r9, r10, fp, pc}
 2174              	.LVL374:
 2175              	.L132:
 2176 02b6 00BF     		.align	3
 2177              	.L131:
 2178 02b8 44174154 		.word	1413551940
 2179 02bc FB210940 		.word	1074340347
 2180 02c0 9A999999 		.word	-1717986918
 2181 02c4 9999D93F 		.word	1071225241
 2182 02c8 9A999999 		.word	-1717986918
 2183 02cc 9999E93F 		.word	1072273817
 2184 02d0 00000000 		.word	0
 2185 02d4 00C07240 		.word	1081262080
 2186 02d8 00000000 		.word	closestX
 2187 02dc 00000000 		.word	numCols
 2188 02e0 00000000 		.word	closestY
 2189 02e4 00000000 		.word	numRows
 2190 02e8 00000840 		.word	1074266112
 2191 02ec 00806640 		.word	1080459264
 2192 02f0 00000000 		.word	.LANCHOR0
 2193 02f4 00000000 		.word	lowestY
 2194 02f8 00006E40 		.word	1080950784
 2195 02fc 00004E40 		.word	1078853632
 2196 0300 00805640 		.word	1079410688
 2197              		.cfi_endproc
 2198              	.LFE71:
 2199              		.size	PuckPositionToStack, .-PuckPositionToStack
 2200              		.global	angleTotal
 2201              		.global	corrFact
 2202              		.global	PI
 2203              		.global	CAMERA_X_OFFSET
 2204              		.global	CAMERA_Y_OFFSET
 2205              		.comm	display_mode,1,1
 2206              		.comm	Camera_linebuffer,640,4
 2207 0304 AFF30080 		.section	.rodata
 2208              		.align	3
 2209              		.type	corrFact, %object
 2210              		.size	corrFact, 8
 2211              	corrFact:
 2212 0000 9A999999 		.word	-1717986918
 2213 0004 9999D93F 		.word	1071225241
 2214              		.type	PI, %object
 2215              		.size	PI, 8
 2216              	PI:
 2217 0008 44174154 		.word	1413551940
 2218 000c FB210940 		.word	1074340347
ARM GAS  C:\Users\Daniel\AppData\Local\Temp\cczCpxmi.s 			page 51


 2219              		.type	CAMERA_X_OFFSET, %object
 2220              		.size	CAMERA_X_OFFSET, 1
 2221              	CAMERA_X_OFFSET:
 2222 0010 0A       		.byte	10
 2223              		.type	CAMERA_Y_OFFSET, %object
 2224              		.size	CAMERA_Y_OFFSET, 1
 2225              	CAMERA_Y_OFFSET:
 2226 0011 A0       		.byte	-96
 2227 0012 00000000 		.bss
 2227      0000
 2228              		.align	1
 2229              		.set	.LANCHOR0,. + 0
 2230              		.type	angleTotal, %object
 2231              		.size	angleTotal, 2
 2232              	angleTotal:
 2233 0000 0000     		.space	2
 2234              		.text
 2235              	.Letext0:
 2236              		.file 2 "c:\\program files (x86)\\cypress\\psoc creator\\3.3\\psoc creator\\import\\gnu\\arm\\4.9.
 2237              		.file 3 "c:\\program files (x86)\\cypress\\psoc creator\\3.3\\psoc creator\\import\\gnu\\arm\\4.9.
 2238              		.file 4 "Generated_Source\\PSoC5/cytypes.h"
 2239              		.file 5 "Generated_Source\\PSoC5/core_cm3.h"
 2240              		.file 6 "Generated_Source\\PSoC5/Camera.h"
 2241              		.file 7 ".\\camera_display.h"
 2242              		.file 8 ".\\pwm_functions.h"
 2243              		.file 9 ".\\utils.h"
 2244              		.file 10 "Generated_Source\\PSoC5/CyLib.h"
 2245              		.file 11 ".\\movement_functions.h"
 2246              		.file 12 ".\\camera_functions.h"
 2247              		.file 13 "c:\\program files (x86)\\cypress\\psoc creator\\3.3\\psoc creator\\import\\gnu\\arm\\4.9
 2248              		.file 14 "Generated_Source\\PSoC5/PWM_Tilt.h"