ARM GAS  C:\Users\Daniel\AppData\Local\Temp\cczCpxmi.s 			page 1


   1              		.syntax unified
   2              		.cpu cortex-m3
   3              		.fpu softvfp
   4              		.eabi_attribute 20, 1
   5              		.eabi_attribute 21, 1
   6              		.eabi_attribute 23, 3
   7              		.eabi_attribute 24, 1
   8              		.eabi_attribute 25, 1
   9              		.eabi_attribute 26, 1
  10              		.eabi_attribute 30, 1
  11              		.eabi_attribute 34, 1
  12              		.eabi_attribute 18, 4
  13              		.thumb
  14              		.file	"puck_functions.c"
  15              		.text
  16              	.Ltext0:
  17              		.cfi_sections	.debug_frame
  18              		.section	.text.PuckCloseScan,"ax",%progbits
  19              		.align	2
  20              		.global	PuckCloseScan
  21              		.thumb
  22              		.thumb_func
  23              		.type	PuckCloseScan, %function
  24              	PuckCloseScan:
  25              	.LFB63:
  26              		.file 1 ".\\puck_functions.c"
   1:.\puck_functions.c **** /*
   2:.\puck_functions.c ****  * Copyright @Pucktacular, 2016
   3:.\puck_functions.c ****  * @Matt Gebert, Daniel Hranilovic & Kevin Duxbury
   4:.\puck_functions.c ****  * All Rights Reserved
   5:.\puck_functions.c ****  * UNPUBLISHED, LICENSED SOFTWARE.
   6:.\puck_functions.c ****  *
   7:.\puck_functions.c ****  * CONFIDENTIAL AND PROPRIETARY INFORMATION
   8:.\puck_functions.c ****  * WHICH IS THE PROPERTY OF your company.
   9:.\puck_functions.c ****  *
  10:.\puck_functions.c ****  * ========================================
  11:.\puck_functions.c ****  * TODO: Do another angle function to make sure claw can pick up, a bit lower than 45'.
  12:.\puck_functions.c ****  * Change pixle offset on the X didrection, to accomodate for centre of robot.
  13:.\puck_functions.c **** */
  14:.\puck_functions.c **** 
  15:.\puck_functions.c **** #include <project.h>
  16:.\puck_functions.c **** #include <stdbool.h>
  17:.\puck_functions.c **** #include <math.h>
  18:.\puck_functions.c **** #include <stdlib.h>
  19:.\puck_functions.c **** #include "camera_functions.h"
  20:.\puck_functions.c **** #include "camera_display.h"
  21:.\puck_functions.c **** #include "movement_functions.h"
  22:.\puck_functions.c **** #include "pwm_functions.h"
  23:.\puck_functions.c **** #include "puck_functions.h"
  24:.\puck_functions.c **** #include "utils.h"
  25:.\puck_functions.c **** 
  26:.\puck_functions.c **** /*Variables from Camera Functions:
  27:.\puck_functions.c **** ---------------------------------*/
  28:.\puck_functions.c **** extern uint16 closestX;
  29:.\puck_functions.c **** extern uint16 closestY;
  30:.\puck_functions.c **** extern uint16 lowestY;
  31:.\puck_functions.c **** extern const uint8 numRows;
ARM GAS  C:\Users\Daniel\AppData\Local\Temp\cczCpxmi.s 			page 2


  32:.\puck_functions.c **** extern const uint16 numCols;
  33:.\puck_functions.c **** extern const uint8 RED;
  34:.\puck_functions.c **** extern const uint8 GREEN;
  35:.\puck_functions.c **** extern const uint8 BLUE;
  36:.\puck_functions.c **** extern const uint8 blobThresholdSizeDefault;
  37:.\puck_functions.c **** extern uint8 lrgClr[5];
  38:.\puck_functions.c **** extern uint16 lrgY[5];
  39:.\puck_functions.c **** /*-------------------------------*/
  40:.\puck_functions.c **** const uint8 CAMERA_Y_OFFSET = 160;
  41:.\puck_functions.c **** const uint8 CAMERA_X_OFFSET = 10;
  42:.\puck_functions.c **** const double PI = 3.1415926535;
  43:.\puck_functions.c **** const double corrFact = 4.0/5/2;
  44:.\puck_functions.c **** /*--------------------------------*/
  45:.\puck_functions.c **** uint16 angleTotal=0; //Negative Is Left, Positive is Right!
  46:.\puck_functions.c **** /*--------------------------------*/
  47:.\puck_functions.c **** bool PuckPositionToStack2(uint8 clr);
  48:.\puck_functions.c **** 
  49:.\puck_functions.c **** /*******************************************************************************
  50:.\puck_functions.c **** * Function Name: PuckCloseScan
  51:.\puck_functions.c **** ****************************************************************************//**
  52:.\puck_functions.c **** *
  53:.\puck_functions.c **** * Tilts the camera to 45' to find & pick up a puck, Scanning for a target.
  54:.\puck_functions.c **** * Scanning works of rotating right in 10 degree increments.
  55:.\puck_functions.c **** * Returns True if a puck of the specified colour is found.
  56:.\puck_functions.c **** * Final Position will be in the ~ direction of the puck.
  57:.\puck_functions.c **** *
  58:.\puck_functions.c **** *******************************************************************************/
  59:.\puck_functions.c **** 
  60:.\puck_functions.c **** bool PuckCloseScan(uint8 clr) {
  27              		.loc 1 60 0
  28              		.cfi_startproc
  29              		@ args = 0, pretend = 0, frame = 0
  30              		@ frame_needed = 0, uses_anonymous_args = 0
  31              	.LVL0:
  32 0000 70B5     		push	{r4, r5, r6, lr}
  33              		.cfi_def_cfa_offset 16
  34              		.cfi_offset 4, -16
  35              		.cfi_offset 5, -12
  36              		.cfi_offset 6, -8
  37              		.cfi_offset 14, -4
  38 0002 0646     		mov	r6, r0
  61:.\puck_functions.c ****     TiltDown45();
  39              		.loc 1 61 0
  40 0004 FFF7FEFF 		bl	TiltDown45
  41              	.LVL1:
  62:.\puck_functions.c ****     CyDelay(100);
  42              		.loc 1 62 0
  43 0008 6420     		movs	r0, #100
  44 000a FFF7FEFF 		bl	CyDelay
  45              	.LVL2:
  63:.\puck_functions.c ****     
  64:.\puck_functions.c ****     uint8 rotation; //degrees
  65:.\puck_functions.c ****     rotation=0;
  66:.\puck_functions.c ****     CaptureFrameWithLights();
  46              		.loc 1 66 0
  47 000e FFF7FEFF 		bl	CaptureFrameWithLights
  48              	.LVL3:
ARM GAS  C:\Users\Daniel\AppData\Local\Temp\cczCpxmi.s 			page 3


  67:.\puck_functions.c ****     bool ClrOnScreen = CamScanClosest(clr, blobThresholdSizeDefault);
  49              		.loc 1 67 0
  50 0012 3046     		mov	r0, r6
  51 0014 194B     		ldr	r3, .L9
  52 0016 1978     		ldrb	r1, [r3]	@ zero_extendqisi2
  53 0018 FFF7FEFF 		bl	CamScanClosest
  54              	.LVL4:
  55 001c 0546     		mov	r5, r0
  56              	.LVL5:
  65:.\puck_functions.c ****     CaptureFrameWithLights();
  57              		.loc 1 65 0
  58 001e 0024     		movs	r4, #0
  68:.\puck_functions.c ****     
  69:.\puck_functions.c ****     while (!ClrOnScreen && rotation<5){
  59              		.loc 1 69 0
  60 0020 1EE0     		b	.L2
  61              	.LVL6:
  62              	.L6:
  70:.\puck_functions.c ****         if(rotation==0){ //Initial Rotation offset.
  63              		.loc 1 70 0
  64 0022 44B9     		cbnz	r4, .L3
  71:.\puck_functions.c ****             MovementPivotLeft(28); 
  65              		.loc 1 71 0
  66 0024 0020     		movs	r0, #0
  67 0026 1649     		ldr	r1, .L9+4
  68 0028 FFF7FEFF 		bl	MovementPivotLeft
  69              	.LVL7:
  72:.\puck_functions.c ****             angleTotal-=28;
  70              		.loc 1 72 0
  71 002c 154A     		ldr	r2, .L9+8
  72 002e 1388     		ldrh	r3, [r2]
  73 0030 1C3B     		subs	r3, r3, #28
  74 0032 1380     		strh	r3, [r2]	@ movhi
  75 0034 0AE0     		b	.L4
  76              	.L3:
  73:.\puck_functions.c ****         } else {
  74:.\puck_functions.c ****             //Keep rotating to scan while finding nothing.
  75:.\puck_functions.c ****             angleTotal+=14;
  77              		.loc 1 75 0
  78 0036 134A     		ldr	r2, .L9+8
  79 0038 1388     		ldrh	r3, [r2]
  80 003a 0E33     		adds	r3, r3, #14
  81 003c 1380     		strh	r3, [r2]	@ movhi
  76:.\puck_functions.c ****             CyDelay(20);    
  82              		.loc 1 76 0
  83 003e 1420     		movs	r0, #20
  84 0040 FFF7FEFF 		bl	CyDelay
  85              	.LVL8:
  77:.\puck_functions.c ****             MovementPivotRight(14); //14 is because of overturning...
  86              		.loc 1 77 0
  87 0044 0020     		movs	r0, #0
  88 0046 1049     		ldr	r1, .L9+12
  89 0048 FFF7FEFF 		bl	MovementPivotRight
  90              	.LVL9:
  91              	.L4:
  78:.\puck_functions.c ****         }
  79:.\puck_functions.c ****         CaptureFrameWithLights();
ARM GAS  C:\Users\Daniel\AppData\Local\Temp\cczCpxmi.s 			page 4


  92              		.loc 1 79 0
  93 004c FFF7FEFF 		bl	CaptureFrameWithLights
  94              	.LVL10:
  80:.\puck_functions.c ****         ClrOnScreen = CamScanClosest(clr, blobThresholdSizeDefault);
  95              		.loc 1 80 0
  96 0050 3046     		mov	r0, r6
  97 0052 0A4B     		ldr	r3, .L9
  98 0054 1978     		ldrb	r1, [r3]	@ zero_extendqisi2
  99 0056 FFF7FEFF 		bl	CamScanClosest
 100              	.LVL11:
 101 005a 0546     		mov	r5, r0
 102              	.LVL12:
  81:.\puck_functions.c ****         rotation=rotation+1;
 103              		.loc 1 81 0
 104 005c 0134     		adds	r4, r4, #1
 105              	.LVL13:
 106 005e E4B2     		uxtb	r4, r4
 107              	.LVL14:
 108              	.L2:
  69:.\puck_functions.c ****         if(rotation==0){ //Initial Rotation offset.
 109              		.loc 1 69 0
 110 0060 0DB9     		cbnz	r5, .L5
  69:.\puck_functions.c ****         if(rotation==0){ //Initial Rotation offset.
 111              		.loc 1 69 0 is_stmt 0 discriminator 1
 112 0062 042C     		cmp	r4, #4
 113 0064 DDD9     		bls	.L6
 114              	.L5:
  82:.\puck_functions.c ****     }
  83:.\puck_functions.c ****     if(!ClrOnScreen){
 115              		.loc 1 83 0 is_stmt 1
 116 0066 3DB9     		cbnz	r5, .L7
  84:.\puck_functions.c ****         MovementPivotLeft(28);
 117              		.loc 1 84 0
 118 0068 0020     		movs	r0, #0
 119 006a 0549     		ldr	r1, .L9+4
 120 006c FFF7FEFF 		bl	MovementPivotLeft
 121              	.LVL15:
  85:.\puck_functions.c ****         angleTotal-=28;
 122              		.loc 1 85 0
 123 0070 044A     		ldr	r2, .L9+8
 124 0072 1388     		ldrh	r3, [r2]
 125 0074 1C3B     		subs	r3, r3, #28
 126 0076 1380     		strh	r3, [r2]	@ movhi
 127              	.L7:
  86:.\puck_functions.c ****     }
  87:.\puck_functions.c ****     return ClrOnScreen;
  88:.\puck_functions.c **** }
 128              		.loc 1 88 0
 129 0078 2846     		mov	r0, r5
 130 007a 70BD     		pop	{r4, r5, r6, pc}
 131              	.LVL16:
 132              	.L10:
 133              		.align	2
 134              	.L9:
 135 007c 00000000 		.word	blobThresholdSizeDefault
 136 0080 00003C40 		.word	1077673984
 137 0084 00000000 		.word	.LANCHOR0
ARM GAS  C:\Users\Daniel\AppData\Local\Temp\cczCpxmi.s 			page 5


 138 0088 00002C40 		.word	1076625408
 139              		.cfi_endproc
 140              	.LFE63:
 141              		.size	PuckCloseScan, .-PuckCloseScan
 142              		.global	__aeabi_i2d
 143              		.global	__aeabi_ddiv
 144              		.global	__aeabi_dmul
 145              		.global	__aeabi_dadd
 146              		.global	__aeabi_d2uiz
 147              		.global	__aeabi_dsub
 148              		.section	.text.PuckCloseAquire,"ax",%progbits
 149              		.align	2
 150              		.global	PuckCloseAquire
 151              		.thumb
 152              		.thumb_func
 153              		.type	PuckCloseAquire, %function
 154              	PuckCloseAquire:
 155              	.LFB64:
  89:.\puck_functions.c **** 
  90:.\puck_functions.c **** /*******************************************************************************
  91:.\puck_functions.c **** * Function Name: PuckCloseAquire
  92:.\puck_functions.c **** ****************************************************************************//**
  93:.\puck_functions.c **** *
  94:.\puck_functions.c **** * Tilts the camera to 45' to find & pick up a puck, somewhere in front of the target.
  95:.\puck_functions.c **** *
  96:.\puck_functions.c **** *******************************************************************************/
  97:.\puck_functions.c **** bool PuckCloseAquire(uint8 clr, bool path) {
 156              		.loc 1 97 0
 157              		.cfi_startproc
 158              		@ args = 0, pretend = 0, frame = 0
 159              		@ frame_needed = 0, uses_anonymous_args = 0
 160              	.LVL17:
 161 0000 2DE9F843 		push	{r3, r4, r5, r6, r7, r8, r9, lr}
 162              		.cfi_def_cfa_offset 32
 163              		.cfi_offset 3, -32
 164              		.cfi_offset 4, -28
 165              		.cfi_offset 5, -24
 166              		.cfi_offset 6, -20
 167              		.cfi_offset 7, -16
 168              		.cfi_offset 8, -12
 169              		.cfi_offset 9, -8
 170              		.cfi_offset 14, -4
 171 0004 0446     		mov	r4, r0
 172 0006 8946     		mov	r9, r1
  98:.\puck_functions.c ****     TiltDown45();
 173              		.loc 1 98 0
 174 0008 FFF7FEFF 		bl	TiltDown45
 175              	.LVL18:
  99:.\puck_functions.c ****     CyDelay(20);
 176              		.loc 1 99 0
 177 000c 1420     		movs	r0, #20
 178 000e FFF7FEFF 		bl	CyDelay
 179              	.LVL19:
 100:.\puck_functions.c ****     
 101:.\puck_functions.c ****     bool found = false;
 102:.\puck_functions.c ****     
 103:.\puck_functions.c ****     //Find Puck (this was previously a while loops, while not found.
ARM GAS  C:\Users\Daniel\AppData\Local\Temp\cczCpxmi.s 			page 6


 104:.\puck_functions.c ****     CaptureFrameWithLights();
 180              		.loc 1 104 0
 181 0012 FFF7FEFF 		bl	CaptureFrameWithLights
 182              	.LVL20:
 105:.\puck_functions.c ****     bool ClrOnScreen = CamScanClosest(clr, blobThresholdSizeDefault);
 183              		.loc 1 105 0
 184 0016 2046     		mov	r0, r4
 185 0018 8D4B     		ldr	r3, .L28+16
 186 001a 1978     		ldrb	r1, [r3]	@ zero_extendqisi2
 187 001c FFF7FEFF 		bl	CamScanClosest
 188              	.LVL21:
 106:.\puck_functions.c ****     
 107:.\puck_functions.c ****     if (ClrOnScreen) {
 189              		.loc 1 107 0
 190 0020 0028     		cmp	r0, #0
 191 0022 68D1     		bne	.L12
 192 0024 FEE0     		b	.L26
 193              	.LVL22:
 194              	.L17:
 195              	.LBB2:
 108:.\puck_functions.c ****         //Found a puck..
 109:.\puck_functions.c ****         //..Turn to puck!
 110:.\puck_functions.c ****         double angle;
 111:.\puck_functions.c ****         double XYRatio;
 112:.\puck_functions.c ****         while(((abs(closestX - numCols/2 - CAMERA_X_OFFSET) > 15) && (240-closestY) > 65)) { //Keep
 113:.\puck_functions.c ****             if (closestX > numCols/2 + CAMERA_X_OFFSET) {
 196              		.loc 1 113 0
 197 0026 03F10A01 		add	r1, r3, #10
 198 002a 8A42     		cmp	r2, r1
 199 002c 2DDD     		ble	.L14
 114:.\puck_functions.c ****                 XYRatio = ((double)(closestX-numCols/2-CAMERA_X_OFFSET))/(240-closestY + CAMERA_Y_O
 200              		.loc 1 114 0
 201 002e FFF7FEFF 		bl	__aeabi_i2d
 202              	.LVL23:
 203 0032 0646     		mov	r6, r0
 204 0034 0F46     		mov	r7, r1
 205 0036 C8F5C870 		rsb	r0, r8, #400
 206 003a FFF7FEFF 		bl	__aeabi_i2d
 207              	.LVL24:
 208 003e 0246     		mov	r2, r0
 209 0040 0B46     		mov	r3, r1
 210 0042 3046     		mov	r0, r6
 211 0044 3946     		mov	r1, r7
 212 0046 FFF7FEFF 		bl	__aeabi_ddiv
 213              	.LVL25:
 115:.\puck_functions.c ****                 angle = (atan(XYRatio)*180)/PI*corrFact;
 214              		.loc 1 115 0
 215 004a FFF7FEFF 		bl	atan
 216              	.LVL26:
 217 004e 0022     		movs	r2, #0
 218 0050 804B     		ldr	r3, .L28+20
 219 0052 FFF7FEFF 		bl	__aeabi_dmul
 220              	.LVL27:
 221 0056 7AA3     		adr	r3, .L28
 222 0058 D3E90023 		ldrd	r2, [r3]
 223 005c FFF7FEFF 		bl	__aeabi_ddiv
 224              	.LVL28:
ARM GAS  C:\Users\Daniel\AppData\Local\Temp\cczCpxmi.s 			page 7


 225 0060 79A3     		adr	r3, .L28+8
 226 0062 D3E90023 		ldrd	r2, [r3]
 227 0066 FFF7FEFF 		bl	__aeabi_dmul
 228              	.LVL29:
 229 006a 0646     		mov	r6, r0
 230 006c 0F46     		mov	r7, r1
 231              	.LVL30:
 116:.\puck_functions.c ****                 MovementPivotRight(angle);
 232              		.loc 1 116 0
 233 006e FFF7FEFF 		bl	MovementPivotRight
 234              	.LVL31:
 117:.\puck_functions.c ****                 angleTotal+=angle;
 235              		.loc 1 117 0
 236 0072 794D     		ldr	r5, .L28+24
 237 0074 2888     		ldrh	r0, [r5]
 238 0076 FFF7FEFF 		bl	__aeabi_i2d
 239              	.LVL32:
 240 007a 3246     		mov	r2, r6
 241 007c 3B46     		mov	r3, r7
 242 007e FFF7FEFF 		bl	__aeabi_dadd
 243              	.LVL33:
 244 0082 FFF7FEFF 		bl	__aeabi_d2uiz
 245              	.LVL34:
 246 0086 2880     		strh	r0, [r5]	@ movhi
 247 0088 2EE0     		b	.L15
 248              	.LVL35:
 249              	.L14:
 118:.\puck_functions.c ****             } else {
 119:.\puck_functions.c ****                 XYRatio=((double)(numCols/2-closestX-CAMERA_X_OFFSET))/(240-closestY + CAMERA_Y_OFF
 250              		.loc 1 119 0
 251 008a 981A     		subs	r0, r3, r2
 252 008c 0A38     		subs	r0, r0, #10
 253 008e FFF7FEFF 		bl	__aeabi_i2d
 254              	.LVL36:
 255 0092 0646     		mov	r6, r0
 256 0094 0F46     		mov	r7, r1
 257 0096 C8F5C870 		rsb	r0, r8, #400
 258 009a FFF7FEFF 		bl	__aeabi_i2d
 259              	.LVL37:
 260 009e 0246     		mov	r2, r0
 261 00a0 0B46     		mov	r3, r1
 262 00a2 3046     		mov	r0, r6
 263 00a4 3946     		mov	r1, r7
 264 00a6 FFF7FEFF 		bl	__aeabi_ddiv
 265              	.LVL38:
 120:.\puck_functions.c ****                 angle = (atan(XYRatio)*180)/PI*corrFact;
 266              		.loc 1 120 0
 267 00aa FFF7FEFF 		bl	atan
 268              	.LVL39:
 269 00ae 0022     		movs	r2, #0
 270 00b0 684B     		ldr	r3, .L28+20
 271 00b2 FFF7FEFF 		bl	__aeabi_dmul
 272              	.LVL40:
 273 00b6 62A3     		adr	r3, .L28
 274 00b8 D3E90023 		ldrd	r2, [r3]
 275 00bc FFF7FEFF 		bl	__aeabi_ddiv
 276              	.LVL41:
ARM GAS  C:\Users\Daniel\AppData\Local\Temp\cczCpxmi.s 			page 8


 277 00c0 61A3     		adr	r3, .L28+8
 278 00c2 D3E90023 		ldrd	r2, [r3]
 279 00c6 FFF7FEFF 		bl	__aeabi_dmul
 280              	.LVL42:
 281 00ca 0646     		mov	r6, r0
 282 00cc 0F46     		mov	r7, r1
 283              	.LVL43:
 121:.\puck_functions.c ****                 MovementPivotLeft(angle);
 284              		.loc 1 121 0
 285 00ce FFF7FEFF 		bl	MovementPivotLeft
 286              	.LVL44:
 122:.\puck_functions.c ****                 angleTotal-=angle;
 287              		.loc 1 122 0
 288 00d2 614D     		ldr	r5, .L28+24
 289 00d4 2888     		ldrh	r0, [r5]
 290 00d6 FFF7FEFF 		bl	__aeabi_i2d
 291              	.LVL45:
 292 00da 3246     		mov	r2, r6
 293 00dc 3B46     		mov	r3, r7
 294 00de FFF7FEFF 		bl	__aeabi_dsub
 295              	.LVL46:
 296 00e2 FFF7FEFF 		bl	__aeabi_d2uiz
 297              	.LVL47:
 298 00e6 2880     		strh	r0, [r5]	@ movhi
 299              	.L15:
 123:.\puck_functions.c ****             }
 124:.\puck_functions.c ****             //Rescan for new position.
 125:.\puck_functions.c ****             CaptureFrameWithLights(); 
 300              		.loc 1 125 0
 301 00e8 FFF7FEFF 		bl	CaptureFrameWithLights
 302              	.LVL48:
 126:.\puck_functions.c ****             CamScanClosest(clr, blobThresholdSizeDefault);
 303              		.loc 1 126 0
 304 00ec 2046     		mov	r0, r4
 305 00ee 584B     		ldr	r3, .L28+16
 306 00f0 1978     		ldrb	r1, [r3]	@ zero_extendqisi2
 307 00f2 FFF7FEFF 		bl	CamScanClosest
 308              	.LVL49:
 309              	.L12:
 112:.\puck_functions.c ****             if (closestX > numCols/2 + CAMERA_X_OFFSET) {
 310              		.loc 1 112 0
 311 00f6 594B     		ldr	r3, .L28+28
 312 00f8 1A88     		ldrh	r2, [r3]
 313 00fa 594B     		ldr	r3, .L28+32
 314 00fc 1B88     		ldrh	r3, [r3]
 315 00fe 5B08     		lsrs	r3, r3, #1
 316 0100 D01A     		subs	r0, r2, r3
 317 0102 0A38     		subs	r0, r0, #10
 318 0104 80EAE071 		eor	r1, r0, r0, asr #31
 319 0108 A1EBE071 		sub	r1, r1, r0, asr #31
 320 010c 0F29     		cmp	r1, #15
 321 010e 06DD     		ble	.L16
 112:.\puck_functions.c ****             if (closestX > numCols/2 + CAMERA_X_OFFSET) {
 322              		.loc 1 112 0 is_stmt 0 discriminator 1
 323 0110 5449     		ldr	r1, .L28+36
 324 0112 B1F80080 		ldrh	r8, [r1]
 325 0116 C8F1F001 		rsb	r1, r8, #240
ARM GAS  C:\Users\Daniel\AppData\Local\Temp\cczCpxmi.s 			page 9


 326 011a 4129     		cmp	r1, #65
 327 011c 83DC     		bgt	.L17
 328              	.L16:
 127:.\puck_functions.c ****         }
 128:.\puck_functions.c ****         //Close enough to pick up?
 129:.\puck_functions.c ****         if (240-closestY < 65){
 329              		.loc 1 129 0 is_stmt 1
 330 011e 514B     		ldr	r3, .L28+36
 331 0120 1888     		ldrh	r0, [r3]
 332 0122 C0F1F003 		rsb	r3, r0, #240
 333 0126 402B     		cmp	r3, #64
 334 0128 40F38780 		ble	.L25
 130:.\puck_functions.c ****             //Pickup.
 131:.\puck_functions.c ****             found=true; 
 132:.\puck_functions.c ****             return true;
 133:.\puck_functions.c ****         } else { //Puck inbetween 65 and 100.
 134:.\puck_functions.c ****             //Drive closer.
 135:.\puck_functions.c ****             //MovementForward(240-closestY);
 136:.\puck_functions.c ****             if (240-closestY < 160) {
 335              		.loc 1 136 0
 336 012c 9F2B     		cmp	r3, #159
 337 012e 55DC     		bgt	.L19
 137:.\puck_functions.c ****                 CamSeqOperations(); //Find Largest 5 Pucks with default threshold.
 338              		.loc 1 137 0
 339 0130 FFF7FEFF 		bl	CamSeqOperations
 340              	.LVL50:
 138:.\puck_functions.c ****                 if(lrgClr[0]!=clr && lrgY[0] > closestY) //TODO: Won't Handle RED, due to default a
 341              		.loc 1 138 0
 342 0134 4C4B     		ldr	r3, .L28+40
 343 0136 1B78     		ldrb	r3, [r3]	@ zero_extendqisi2
 344 0138 A342     		cmp	r3, r4
 345 013a 32D0     		beq	.L20
 346              		.loc 1 138 0 is_stmt 0 discriminator 1
 347 013c 4B4B     		ldr	r3, .L28+44
 348 013e 1A88     		ldrh	r2, [r3]
 349 0140 484B     		ldr	r3, .L28+36
 350 0142 1B88     		ldrh	r3, [r3]
 351 0144 9A42     		cmp	r2, r3
 352 0146 2CD9     		bls	.L20
 139:.\puck_functions.c ****                 {
 140:.\puck_functions.c ****                     //Pickup Puck, Turn around, release, turn back.
 141:.\puck_functions.c ****                     ClawClose();
 353              		.loc 1 141 0 is_stmt 1
 354 0148 FFF7FEFF 		bl	ClawClose
 355              	.LVL51:
 142:.\puck_functions.c ****                     MovementBackward(3000);
 356              		.loc 1 142 0
 357 014c 40F6B830 		movw	r0, #3000
 358 0150 FFF7FEFF 		bl	MovementBackward
 359              	.LVL52:
 143:.\puck_functions.c ****                     if(path)
 360              		.loc 1 143 0
 361 0154 B9F1000F 		cmp	r9, #0
 362 0158 04D0     		beq	.L21
 144:.\puck_functions.c ****                         MovementPivotLeft(90);
 363              		.loc 1 144 0
 364 015a 0020     		movs	r0, #0
ARM GAS  C:\Users\Daniel\AppData\Local\Temp\cczCpxmi.s 			page 10


 365 015c 4449     		ldr	r1, .L28+48
 366 015e FFF7FEFF 		bl	MovementPivotLeft
 367              	.LVL53:
 368 0162 03E0     		b	.L22
 369              	.L21:
 145:.\puck_functions.c ****                     else
 146:.\puck_functions.c ****                         MovementPivotRight(90);
 370              		.loc 1 146 0
 371 0164 0020     		movs	r0, #0
 372 0166 4249     		ldr	r1, .L28+48
 373 0168 FFF7FEFF 		bl	MovementPivotRight
 374              	.LVL54:
 375              	.L22:
 147:.\puck_functions.c ****                     
 148:.\puck_functions.c ****                     MovementForward(500);
 376              		.loc 1 148 0
 377 016c 4FF4FA70 		mov	r0, #500
 378 0170 FFF7FEFF 		bl	MovementForward
 379              	.LVL55:
 149:.\puck_functions.c ****                     ClawOpen();
 380              		.loc 1 149 0
 381 0174 FFF7FEFF 		bl	ClawOpen
 382              	.LVL56:
 150:.\puck_functions.c ****                     MovementBackward(500);
 383              		.loc 1 150 0
 384 0178 4FF4FA70 		mov	r0, #500
 385 017c FFF7FEFF 		bl	MovementBackward
 386              	.LVL57:
 151:.\puck_functions.c ****                     MovementBackward(1000);
 387              		.loc 1 151 0
 388 0180 4FF47A70 		mov	r0, #1000
 389 0184 FFF7FEFF 		bl	MovementBackward
 390              	.LVL58:
 152:.\puck_functions.c ****                     if(path)
 391              		.loc 1 152 0
 392 0188 B9F1000F 		cmp	r9, #0
 393 018c 04D0     		beq	.L23
 153:.\puck_functions.c ****                         MovementPivotRight(90);
 394              		.loc 1 153 0
 395 018e 0020     		movs	r0, #0
 396 0190 3749     		ldr	r1, .L28+48
 397 0192 FFF7FEFF 		bl	MovementPivotRight
 398              	.LVL59:
 399 0196 3BE0     		b	.L24
 400              	.L23:
 154:.\puck_functions.c ****                     else
 155:.\puck_functions.c ****                         MovementPivotLeft(90);
 401              		.loc 1 155 0
 402 0198 0020     		movs	r0, #0
 403 019a 3549     		ldr	r1, .L28+48
 404 019c FFF7FEFF 		bl	MovementPivotLeft
 405              	.LVL60:
 406 01a0 36E0     		b	.L24
 407              	.L20:
 156:.\puck_functions.c ****                 } else {
 157:.\puck_functions.c ****                     MovementForward(pow(((CAMERA_Y_OFFSET + 240.0-closestY)/140),2)*400);
 408              		.loc 1 157 0
ARM GAS  C:\Users\Daniel\AppData\Local\Temp\cczCpxmi.s 			page 11


 409 01a2 304B     		ldr	r3, .L28+36
 410 01a4 1888     		ldrh	r0, [r3]
 411 01a6 FFF7FEFF 		bl	__aeabi_i2d
 412              	.LVL61:
 413 01aa 0246     		mov	r2, r0
 414 01ac 0B46     		mov	r3, r1
 415 01ae 0020     		movs	r0, #0
 416 01b0 3049     		ldr	r1, .L28+52
 417 01b2 FFF7FEFF 		bl	__aeabi_dsub
 418              	.LVL62:
 419 01b6 0022     		movs	r2, #0
 420 01b8 2F4B     		ldr	r3, .L28+56
 421 01ba FFF7FEFF 		bl	__aeabi_ddiv
 422              	.LVL63:
 423 01be 0022     		movs	r2, #0
 424 01c0 4FF08043 		mov	r3, #1073741824
 425 01c4 FFF7FEFF 		bl	pow
 426              	.LVL64:
 427 01c8 0022     		movs	r2, #0
 428 01ca 2A4B     		ldr	r3, .L28+52
 429 01cc FFF7FEFF 		bl	__aeabi_dmul
 430              	.LVL65:
 431 01d0 FFF7FEFF 		bl	__aeabi_d2uiz
 432              	.LVL66:
 433 01d4 80B2     		uxth	r0, r0
 434 01d6 FFF7FEFF 		bl	MovementForward
 435              	.LVL67:
 436 01da 19E0     		b	.L24
 437              	.L19:
 158:.\puck_functions.c ****                 }
 159:.\puck_functions.c ****             } else {
 160:.\puck_functions.c ****                 MovementForward(pow(((CAMERA_Y_OFFSET + 240.0-closestY)/140),2)*550);
 438              		.loc 1 160 0
 439 01dc FFF7FEFF 		bl	__aeabi_i2d
 440              	.LVL68:
 441 01e0 0246     		mov	r2, r0
 442 01e2 0B46     		mov	r3, r1
 443 01e4 0020     		movs	r0, #0
 444 01e6 2349     		ldr	r1, .L28+52
 445 01e8 FFF7FEFF 		bl	__aeabi_dsub
 446              	.LVL69:
 447 01ec 0022     		movs	r2, #0
 448 01ee 224B     		ldr	r3, .L28+56
 449 01f0 FFF7FEFF 		bl	__aeabi_ddiv
 450              	.LVL70:
 451 01f4 0022     		movs	r2, #0
 452 01f6 4FF08043 		mov	r3, #1073741824
 453 01fa FFF7FEFF 		bl	pow
 454              	.LVL71:
 455 01fe 0022     		movs	r2, #0
 456 0200 1E4B     		ldr	r3, .L28+60
 457 0202 FFF7FEFF 		bl	__aeabi_dmul
 458              	.LVL72:
 459 0206 FFF7FEFF 		bl	__aeabi_d2uiz
 460              	.LVL73:
 461 020a 80B2     		uxth	r0, r0
 462 020c FFF7FEFF 		bl	MovementForward
ARM GAS  C:\Users\Daniel\AppData\Local\Temp\cczCpxmi.s 			page 12


 463              	.LVL74:
 464              	.L24:
 161:.\puck_functions.c ****             }
 162:.\puck_functions.c ****             CaptureFrameWithLights(); 
 465              		.loc 1 162 0
 466 0210 FFF7FEFF 		bl	CaptureFrameWithLights
 467              	.LVL75:
 163:.\puck_functions.c ****             CamScanClosest(clr, blobThresholdSizeDefault);
 468              		.loc 1 163 0
 469 0214 2046     		mov	r0, r4
 470 0216 0E4B     		ldr	r3, .L28+16
 471 0218 1978     		ldrb	r1, [r3]	@ zero_extendqisi2
 472 021a FFF7FEFF 		bl	CamScanClosest
 473              	.LVL76:
 474              	.LBE2:
 164:.\puck_functions.c ****         }
 165:.\puck_functions.c ****     } else {
 166:.\puck_functions.c ****         MovementPivotLeft(10);
 167:.\puck_functions.c ****         angleTotal-=10;
 168:.\puck_functions.c ****     }
 169:.\puck_functions.c ****     return found;
 475              		.loc 1 169 0
 476 021e 0020     		movs	r0, #0
 477 0220 BDE8F883 		pop	{r3, r4, r5, r6, r7, r8, r9, pc}
 478              	.LVL77:
 479              	.L26:
 166:.\puck_functions.c ****         angleTotal-=10;
 480              		.loc 1 166 0
 481 0224 0020     		movs	r0, #0
 482              	.LVL78:
 483 0226 1649     		ldr	r1, .L28+64
 484 0228 FFF7FEFF 		bl	MovementPivotLeft
 485              	.LVL79:
 167:.\puck_functions.c ****     }
 486              		.loc 1 167 0
 487 022c 0A4A     		ldr	r2, .L28+24
 488 022e 1388     		ldrh	r3, [r2]
 489 0230 0A3B     		subs	r3, r3, #10
 490 0232 1380     		strh	r3, [r2]	@ movhi
 491              		.loc 1 169 0
 492 0234 0020     		movs	r0, #0
 493 0236 BDE8F883 		pop	{r3, r4, r5, r6, r7, r8, r9, pc}
 494              	.L25:
 495              	.LBB3:
 132:.\puck_functions.c ****         } else { //Puck inbetween 65 and 100.
 496              		.loc 1 132 0
 497 023a 0120     		movs	r0, #1
 498              	.LBE3:
 170:.\puck_functions.c **** }
 499              		.loc 1 170 0
 500 023c BDE8F883 		pop	{r3, r4, r5, r6, r7, r8, r9, pc}
 501              	.L29:
 502              		.align	3
 503              	.L28:
 504 0240 44174154 		.word	1413551940
 505 0244 FB210940 		.word	1074340347
 506 0248 9A999999 		.word	-1717986918
ARM GAS  C:\Users\Daniel\AppData\Local\Temp\cczCpxmi.s 			page 13


 507 024c 9999D93F 		.word	1071225241
 508 0250 00000000 		.word	blobThresholdSizeDefault
 509 0254 00806640 		.word	1080459264
 510 0258 00000000 		.word	.LANCHOR0
 511 025c 00000000 		.word	closestX
 512 0260 00000000 		.word	numCols
 513 0264 00000000 		.word	closestY
 514 0268 00000000 		.word	lrgClr
 515 026c 00000000 		.word	lrgY
 516 0270 00805640 		.word	1079410688
 517 0274 00007940 		.word	1081671680
 518 0278 00806140 		.word	1080131584
 519 027c 00308140 		.word	1082208256
 520 0280 00002440 		.word	1076101120
 521              		.cfi_endproc
 522              	.LFE64:
 523              		.size	PuckCloseAquire, .-PuckCloseAquire
 524 0284 AFF30080 		.section	.text.PuckFarScan,"ax",%progbits
 525              		.align	2
 526              		.global	PuckFarScan
 527              		.thumb
 528              		.thumb_func
 529              		.type	PuckFarScan, %function
 530              	PuckFarScan:
 531              	.LFB65:
 171:.\puck_functions.c **** /*******************************************************************************
 172:.\puck_functions.c **** * Function Name: PuckFarScan
 173:.\puck_functions.c **** ****************************************************************************//**
 174:.\puck_functions.c **** *
 175:.\puck_functions.c **** * Tilts the camera to ~ 20' to find pucks that are far away.
 176:.\puck_functions.c **** * Rotates 10 degree increments to align to a discovered puck.
 177:.\puck_functions.c **** * Returns TRUE if a puck is found.
 178:.\puck_functions.c **** *
 179:.\puck_functions.c **** *******************************************************************************/
 180:.\puck_functions.c **** 
 181:.\puck_functions.c **** bool PuckFarScan(uint8 clr) {
 532              		.loc 1 181 0
 533              		.cfi_startproc
 534              		@ args = 0, pretend = 0, frame = 0
 535              		@ frame_needed = 0, uses_anonymous_args = 0
 536              	.LVL80:
 537 0000 70B5     		push	{r4, r5, r6, lr}
 538              		.cfi_def_cfa_offset 16
 539              		.cfi_offset 4, -16
 540              		.cfi_offset 5, -12
 541              		.cfi_offset 6, -8
 542              		.cfi_offset 14, -4
 543 0002 0646     		mov	r6, r0
 182:.\puck_functions.c ****     PWM_Tilt_WriteCompare(135);
 544              		.loc 1 182 0
 545 0004 8720     		movs	r0, #135
 546              	.LVL81:
 547 0006 FFF7FEFF 		bl	PWM_Tilt_WriteCompare
 548              	.LVL82:
 183:.\puck_functions.c ****     CyDelay(20);
 549              		.loc 1 183 0
 550 000a 1420     		movs	r0, #20
ARM GAS  C:\Users\Daniel\AppData\Local\Temp\cczCpxmi.s 			page 14


 551 000c FFF7FEFF 		bl	CyDelay
 552              	.LVL83:
 184:.\puck_functions.c ****     
 185:.\puck_functions.c ****     uint8 rotation; //degrees
 186:.\puck_functions.c ****     rotation=0;
 187:.\puck_functions.c ****     
 188:.\puck_functions.c ****     CaptureFrameWithLights();
 553              		.loc 1 188 0
 554 0010 FFF7FEFF 		bl	CaptureFrameWithLights
 555              	.LVL84:
 189:.\puck_functions.c ****     bool ClrOnScreen = CamScanClosest(clr, blobThresholdSizeDefault);
 556              		.loc 1 189 0
 557 0014 3046     		mov	r0, r6
 558 0016 184B     		ldr	r3, .L38
 559 0018 1978     		ldrb	r1, [r3]	@ zero_extendqisi2
 560 001a FFF7FEFF 		bl	CamScanClosest
 561              	.LVL85:
 562 001e 0546     		mov	r5, r0
 563              	.LVL86:
 186:.\puck_functions.c ****     
 564              		.loc 1 186 0
 565 0020 0024     		movs	r4, #0
 190:.\puck_functions.c ****     
 191:.\puck_functions.c ****     while (!ClrOnScreen && rotation<3){
 566              		.loc 1 191 0
 567 0022 1BE0     		b	.L31
 568              	.LVL87:
 569              	.L35:
 192:.\puck_functions.c ****         if(rotation==0){
 570              		.loc 1 192 0
 571 0024 44B9     		cbnz	r4, .L32
 193:.\puck_functions.c ****             MovementPivotLeft(10);//Initialize Turning Arc.
 572              		.loc 1 193 0
 573 0026 0020     		movs	r0, #0
 574 0028 1449     		ldr	r1, .L38+4
 575 002a FFF7FEFF 		bl	MovementPivotLeft
 576              	.LVL88:
 194:.\puck_functions.c ****             angleTotal-=10;
 577              		.loc 1 194 0
 578 002e 144A     		ldr	r2, .L38+8
 579 0030 1388     		ldrh	r3, [r2]
 580 0032 0A3B     		subs	r3, r3, #10
 581 0034 1380     		strh	r3, [r2]	@ movhi
 582 0036 07E0     		b	.L33
 583              	.L32:
 195:.\puck_functions.c ****         } else {
 196:.\puck_functions.c ****             //Keep rotating to scan while finding nothing.
 197:.\puck_functions.c ****             MovementPivotRight(10);
 584              		.loc 1 197 0
 585 0038 0020     		movs	r0, #0
 586 003a 1049     		ldr	r1, .L38+4
 587 003c FFF7FEFF 		bl	MovementPivotRight
 588              	.LVL89:
 198:.\puck_functions.c ****             angleTotal+=10;
 589              		.loc 1 198 0
 590 0040 0F4A     		ldr	r2, .L38+8
 591 0042 1388     		ldrh	r3, [r2]
ARM GAS  C:\Users\Daniel\AppData\Local\Temp\cczCpxmi.s 			page 15


 592 0044 0A33     		adds	r3, r3, #10
 593 0046 1380     		strh	r3, [r2]	@ movhi
 594              	.L33:
 199:.\puck_functions.c ****         }
 200:.\puck_functions.c ****         CaptureFrameWithLights();
 595              		.loc 1 200 0
 596 0048 FFF7FEFF 		bl	CaptureFrameWithLights
 597              	.LVL90:
 201:.\puck_functions.c ****         ClrOnScreen = CamScanClosest(clr, blobThresholdSizeDefault);
 598              		.loc 1 201 0
 599 004c 3046     		mov	r0, r6
 600 004e 0A4B     		ldr	r3, .L38
 601 0050 1978     		ldrb	r1, [r3]	@ zero_extendqisi2
 602 0052 FFF7FEFF 		bl	CamScanClosest
 603              	.LVL91:
 604 0056 0546     		mov	r5, r0
 605              	.LVL92:
 202:.\puck_functions.c ****         rotation=rotation+1;
 606              		.loc 1 202 0
 607 0058 0134     		adds	r4, r4, #1
 608              	.LVL93:
 609 005a E4B2     		uxtb	r4, r4
 610              	.LVL94:
 611              	.L31:
 191:.\puck_functions.c ****         if(rotation==0){
 612              		.loc 1 191 0
 613 005c 0DB9     		cbnz	r5, .L34
 191:.\puck_functions.c ****         if(rotation==0){
 614              		.loc 1 191 0 is_stmt 0 discriminator 1
 615 005e 022C     		cmp	r4, #2
 616 0060 E0D9     		bls	.L35
 617              	.L34:
 203:.\puck_functions.c ****     }
 204:.\puck_functions.c ****     if(!ClrOnScreen){ //Rotate back straight if not seeing anyhing.
 618              		.loc 1 204 0 is_stmt 1
 619 0062 3DB9     		cbnz	r5, .L36
 205:.\puck_functions.c ****         MovementPivotLeft(10);
 620              		.loc 1 205 0
 621 0064 0020     		movs	r0, #0
 622 0066 0549     		ldr	r1, .L38+4
 623 0068 FFF7FEFF 		bl	MovementPivotLeft
 624              	.LVL95:
 206:.\puck_functions.c ****         angleTotal-=10;
 625              		.loc 1 206 0
 626 006c 044A     		ldr	r2, .L38+8
 627 006e 1388     		ldrh	r3, [r2]
 628 0070 0A3B     		subs	r3, r3, #10
 629 0072 1380     		strh	r3, [r2]	@ movhi
 630              	.L36:
 207:.\puck_functions.c ****     }
 208:.\puck_functions.c ****     return ClrOnScreen;
 209:.\puck_functions.c **** }
 631              		.loc 1 209 0
 632 0074 2846     		mov	r0, r5
 633 0076 70BD     		pop	{r4, r5, r6, pc}
 634              	.LVL96:
 635              	.L39:
ARM GAS  C:\Users\Daniel\AppData\Local\Temp\cczCpxmi.s 			page 16


 636              		.align	2
 637              	.L38:
 638 0078 00000000 		.word	blobThresholdSizeDefault
 639 007c 00002440 		.word	1076101120
 640 0080 00000000 		.word	.LANCHOR0
 641              		.cfi_endproc
 642              	.LFE65:
 643              		.size	PuckFarScan, .-PuckFarScan
 644              		.section	.text.PuckFarAquire,"ax",%progbits
 645              		.align	2
 646              		.global	PuckFarAquire
 647              		.thumb
 648              		.thumb_func
 649              		.type	PuckFarAquire, %function
 650              	PuckFarAquire:
 651              	.LFB66:
 210:.\puck_functions.c **** 
 211:.\puck_functions.c **** /*******************************************************************************
 212:.\puck_functions.c **** * Function Name: PuckFarAquire
 213:.\puck_functions.c **** ****************************************************************************//**
 214:.\puck_functions.c **** *
 215:.\puck_functions.c **** * Tilts the camera to ~ 20' to find pucks that are far away.
 216:.\puck_functions.c **** * Moves towards the a found puck.
 217:.\puck_functions.c **** *
 218:.\puck_functions.c **** *******************************************************************************/
 219:.\puck_functions.c **** 
 220:.\puck_functions.c **** bool PuckFarAquire(uint8 clr) {
 652              		.loc 1 220 0
 653              		.cfi_startproc
 654              		@ args = 0, pretend = 0, frame = 0
 655              		@ frame_needed = 0, uses_anonymous_args = 0
 656              	.LVL97:
 657 0000 2DE9F041 		push	{r4, r5, r6, r7, r8, lr}
 658              		.cfi_def_cfa_offset 24
 659              		.cfi_offset 4, -24
 660              		.cfi_offset 5, -20
 661              		.cfi_offset 6, -16
 662              		.cfi_offset 7, -12
 663              		.cfi_offset 8, -8
 664              		.cfi_offset 14, -4
 665 0004 0546     		mov	r5, r0
 221:.\puck_functions.c ****     PWM_Tilt_WriteCompare(135);
 666              		.loc 1 221 0
 667 0006 8720     		movs	r0, #135
 668              	.LVL98:
 669 0008 FFF7FEFF 		bl	PWM_Tilt_WriteCompare
 670              	.LVL99:
 222:.\puck_functions.c ****     CyDelay(20);
 671              		.loc 1 222 0
 672 000c 1420     		movs	r0, #20
 673 000e FFF7FEFF 		bl	CyDelay
 674              	.LVL100:
 223:.\puck_functions.c ****     
 224:.\puck_functions.c ****     CaptureFrameWithLights();
 675              		.loc 1 224 0
 676 0012 FFF7FEFF 		bl	CaptureFrameWithLights
 677              	.LVL101:
ARM GAS  C:\Users\Daniel\AppData\Local\Temp\cczCpxmi.s 			page 17


 225:.\puck_functions.c ****     bool ClrOnScreen = CamScanClosest(clr, blobThresholdSizeDefault);
 678              		.loc 1 225 0
 679 0016 4E4B     		ldr	r3, .L48+24
 680 0018 1C78     		ldrb	r4, [r3]	@ zero_extendqisi2
 681 001a 2846     		mov	r0, r5
 682 001c 2146     		mov	r1, r4
 683 001e FFF7FEFF 		bl	CamScanClosest
 684              	.LVL102:
 226:.\puck_functions.c ****     
 227:.\puck_functions.c ****     if (ClrOnScreen) {
 685              		.loc 1 227 0
 686 0022 8046     		mov	r8, r0
 687 0024 0028     		cmp	r0, #0
 688 0026 7CD1     		bne	.L41
 689              	.LBB4:
 690 0028 82E0     		b	.L42
 691              	.LVL103:
 692              	.L45:
 228:.\puck_functions.c ****         //Found a puck..
 229:.\puck_functions.c ****         //..Turn to puck!
 230:.\puck_functions.c ****         double angle;
 231:.\puck_functions.c ****         double XYRatio;
 232:.\puck_functions.c ****         
 233:.\puck_functions.c ****         while(closestY  < (numRows-60)){
 234:.\puck_functions.c ****             while(abs(closestX - numCols/2 - CAMERA_X_OFFSET) > 20) { //Keep turning untill we get 
 235:.\puck_functions.c ****                 if (closestX > numCols/2 + CAMERA_X_OFFSET) {
 693              		.loc 1 235 0
 694 002a 03F10A02 		add	r2, r3, #10
 695 002e 9142     		cmp	r1, r2
 696 0030 22DD     		ble	.L43
 236:.\puck_functions.c ****                     XYRatio = ((double)(closestX-numCols/2))/(240-closestY + CAMERA_Y_OFFSET);
 697              		.loc 1 236 0
 698 0032 FFF7FEFF 		bl	__aeabi_i2d
 699              	.LVL104:
 700 0036 0646     		mov	r6, r0
 701 0038 0F46     		mov	r7, r1
 702 003a 464B     		ldr	r3, .L48+28
 703 003c 1888     		ldrh	r0, [r3]
 704 003e C0F5C870 		rsb	r0, r0, #400
 705 0042 FFF7FEFF 		bl	__aeabi_i2d
 706              	.LVL105:
 707 0046 0246     		mov	r2, r0
 708 0048 0B46     		mov	r3, r1
 709 004a 3046     		mov	r0, r6
 710 004c 3946     		mov	r1, r7
 711 004e FFF7FEFF 		bl	__aeabi_ddiv
 712              	.LVL106:
 237:.\puck_functions.c ****                     angle = (atan(XYRatio)*180)/PI*corrFact;
 713              		.loc 1 237 0
 714 0052 FFF7FEFF 		bl	atan
 715              	.LVL107:
 716 0056 0022     		movs	r2, #0
 717 0058 3F4B     		ldr	r3, .L48+32
 718 005a FFF7FEFF 		bl	__aeabi_dmul
 719              	.LVL108:
 720 005e 36A3     		adr	r3, .L48
 721 0060 D3E90023 		ldrd	r2, [r3]
ARM GAS  C:\Users\Daniel\AppData\Local\Temp\cczCpxmi.s 			page 18


 722 0064 FFF7FEFF 		bl	__aeabi_ddiv
 723              	.LVL109:
 724 0068 35A3     		adr	r3, .L48+8
 725 006a D3E90023 		ldrd	r2, [r3]
 726 006e FFF7FEFF 		bl	__aeabi_dmul
 727              	.LVL110:
 238:.\puck_functions.c ****                     MovementPivotRight(angle);
 728              		.loc 1 238 0
 729 0072 FFF7FEFF 		bl	MovementPivotRight
 730              	.LVL111:
 731 0076 22E0     		b	.L44
 732              	.L43:
 239:.\puck_functions.c ****                 } else {
 240:.\puck_functions.c ****                     XYRatio=((double)(numCols/2-closestX))/(240-closestY + CAMERA_Y_OFFSET);
 733              		.loc 1 240 0
 734 0078 581A     		subs	r0, r3, r1
 735 007a FFF7FEFF 		bl	__aeabi_i2d
 736              	.LVL112:
 737 007e 0646     		mov	r6, r0
 738 0080 0F46     		mov	r7, r1
 739 0082 344B     		ldr	r3, .L48+28
 740 0084 1888     		ldrh	r0, [r3]
 741 0086 C0F5C870 		rsb	r0, r0, #400
 742 008a FFF7FEFF 		bl	__aeabi_i2d
 743              	.LVL113:
 744 008e 0246     		mov	r2, r0
 745 0090 0B46     		mov	r3, r1
 746 0092 3046     		mov	r0, r6
 747 0094 3946     		mov	r1, r7
 748 0096 FFF7FEFF 		bl	__aeabi_ddiv
 749              	.LVL114:
 241:.\puck_functions.c ****                     angle = (atan(XYRatio)*180)/PI*corrFact;
 750              		.loc 1 241 0
 751 009a FFF7FEFF 		bl	atan
 752              	.LVL115:
 753 009e 0022     		movs	r2, #0
 754 00a0 2D4B     		ldr	r3, .L48+32
 755 00a2 FFF7FEFF 		bl	__aeabi_dmul
 756              	.LVL116:
 757 00a6 24A3     		adr	r3, .L48
 758 00a8 D3E90023 		ldrd	r2, [r3]
 759 00ac FFF7FEFF 		bl	__aeabi_ddiv
 760              	.LVL117:
 761 00b0 23A3     		adr	r3, .L48+8
 762 00b2 D3E90023 		ldrd	r2, [r3]
 763 00b6 FFF7FEFF 		bl	__aeabi_dmul
 764              	.LVL118:
 242:.\puck_functions.c ****                     MovementPivotLeft(angle);
 765              		.loc 1 242 0
 766 00ba FFF7FEFF 		bl	MovementPivotLeft
 767              	.LVL119:
 768              	.L44:
 243:.\puck_functions.c ****                 }
 244:.\puck_functions.c ****                 //Rescan for new position.
 245:.\puck_functions.c ****                 CaptureFrameWithLights(); 
 769              		.loc 1 245 0
 770 00be FFF7FEFF 		bl	CaptureFrameWithLights
ARM GAS  C:\Users\Daniel\AppData\Local\Temp\cczCpxmi.s 			page 19


 771              	.LVL120:
 246:.\puck_functions.c ****                 CamScanClosest(clr, blobThresholdSizeDefault);
 772              		.loc 1 246 0
 773 00c2 2846     		mov	r0, r5
 774 00c4 2146     		mov	r1, r4
 775 00c6 FFF7FEFF 		bl	CamScanClosest
 776              	.LVL121:
 777              	.L46:
 234:.\puck_functions.c ****                 if (closestX > numCols/2 + CAMERA_X_OFFSET) {
 778              		.loc 1 234 0
 779 00ca 244B     		ldr	r3, .L48+36
 780 00cc 1988     		ldrh	r1, [r3]
 781 00ce 244B     		ldr	r3, .L48+40
 782 00d0 1B88     		ldrh	r3, [r3]
 783 00d2 5B08     		lsrs	r3, r3, #1
 784 00d4 C81A     		subs	r0, r1, r3
 785 00d6 A0F10A02 		sub	r2, r0, #10
 786 00da 002A     		cmp	r2, #0
 787 00dc B8BF     		it	lt
 788 00de 5242     		rsblt	r2, r2, #0
 789 00e0 142A     		cmp	r2, #20
 790 00e2 A2DC     		bgt	.L45
 247:.\puck_functions.c ****             }
 248:.\puck_functions.c ****             //Move Towards Puck   
 249:.\puck_functions.c ****             MovementForward(pow(((double)(240-closestY)/120),2)*3000.0);
 791              		.loc 1 249 0
 792 00e4 1B4B     		ldr	r3, .L48+28
 793 00e6 1888     		ldrh	r0, [r3]
 794 00e8 C0F1F000 		rsb	r0, r0, #240
 795 00ec FFF7FEFF 		bl	__aeabi_i2d
 796              	.LVL122:
 797 00f0 0022     		movs	r2, #0
 798 00f2 1C4B     		ldr	r3, .L48+44
 799 00f4 FFF7FEFF 		bl	__aeabi_ddiv
 800              	.LVL123:
 801 00f8 0022     		movs	r2, #0
 802 00fa 4FF08043 		mov	r3, #1073741824
 803 00fe FFF7FEFF 		bl	pow
 804              	.LVL124:
 805 0102 11A3     		adr	r3, .L48+16
 806 0104 D3E90023 		ldrd	r2, [r3]
 807 0108 FFF7FEFF 		bl	__aeabi_dmul
 808              	.LVL125:
 809 010c FFF7FEFF 		bl	__aeabi_d2uiz
 810              	.LVL126:
 811 0110 80B2     		uxth	r0, r0
 812 0112 FFF7FEFF 		bl	MovementForward
 813              	.LVL127:
 250:.\puck_functions.c ****             CaptureFrameWithLights(); 
 814              		.loc 1 250 0
 815 0116 FFF7FEFF 		bl	CaptureFrameWithLights
 816              	.LVL128:
 251:.\puck_functions.c ****             CamScanClosest(clr, blobThresholdSizeDefault);
 817              		.loc 1 251 0
 818 011a 2846     		mov	r0, r5
 819 011c 2146     		mov	r1, r4
 820 011e FFF7FEFF 		bl	CamScanClosest
ARM GAS  C:\Users\Daniel\AppData\Local\Temp\cczCpxmi.s 			page 20


 821              	.LVL129:
 822              	.L41:
 233:.\puck_functions.c ****             while(abs(closestX - numCols/2 - CAMERA_X_OFFSET) > 20) { //Keep turning untill we get 
 823              		.loc 1 233 0
 824 0122 0C4B     		ldr	r3, .L48+28
 825 0124 1A88     		ldrh	r2, [r3]
 826 0126 104B     		ldr	r3, .L48+48
 827 0128 1B78     		ldrb	r3, [r3]	@ zero_extendqisi2
 828 012a 3C3B     		subs	r3, r3, #60
 829 012c 9A42     		cmp	r2, r3
 830 012e CCDB     		blt	.L46
 831              	.L42:
 832              	.LBE4:
 252:.\puck_functions.c ****         }
 253:.\puck_functions.c ****     }
 254:.\puck_functions.c ****     return ClrOnScreen;
 255:.\puck_functions.c **** }
 833              		.loc 1 255 0
 834 0130 4046     		mov	r0, r8
 835 0132 BDE8F081 		pop	{r4, r5, r6, r7, r8, pc}
 836              	.L49:
 837 0136 00BF     		.align	3
 838              	.L48:
 839 0138 44174154 		.word	1413551940
 840 013c FB210940 		.word	1074340347
 841 0140 9A999999 		.word	-1717986918
 842 0144 9999D93F 		.word	1071225241
 843 0148 00000000 		.word	0
 844 014c 0070A740 		.word	1084715008
 845 0150 00000000 		.word	blobThresholdSizeDefault
 846 0154 00000000 		.word	closestY
 847 0158 00806640 		.word	1080459264
 848 015c 00000000 		.word	closestX
 849 0160 00000000 		.word	numCols
 850 0164 00005E40 		.word	1079902208
 851 0168 00000000 		.word	numRows
 852              		.cfi_endproc
 853              	.LFE66:
 854              		.size	PuckFarAquire, .-PuckFarAquire
 855 016c AFF30080 		.section	.text.PuckCanCollect,"ax",%progbits
 856              		.align	2
 857              		.global	PuckCanCollect
 858              		.thumb
 859              		.thumb_func
 860              		.type	PuckCanCollect, %function
 861              	PuckCanCollect:
 862              	.LFB67:
 256:.\puck_functions.c **** /*******************************************************************************
 257:.\puck_functions.c **** * Function Name: PuckCanCollect
 258:.\puck_functions.c **** ****************************************************************************//**
 259:.\puck_functions.c **** *
 260:.\puck_functions.c **** * Checks if the puck is able to be picked up, at close proximity.
 261:.\puck_functions.c **** *
 262:.\puck_functions.c **** *******************************************************************************/
 263:.\puck_functions.c **** bool PuckCanCollect(uint8 clr, bool path) {
 863              		.loc 1 263 0
 864              		.cfi_startproc
ARM GAS  C:\Users\Daniel\AppData\Local\Temp\cczCpxmi.s 			page 21


 865              		@ args = 0, pretend = 0, frame = 0
 866              		@ frame_needed = 0, uses_anonymous_args = 0
 867              	.LVL130:
 868 0000 2DE9F041 		push	{r4, r5, r6, r7, r8, lr}
 869              		.cfi_def_cfa_offset 24
 870              		.cfi_offset 4, -24
 871              		.cfi_offset 5, -20
 872              		.cfi_offset 6, -16
 873              		.cfi_offset 7, -12
 874              		.cfi_offset 8, -8
 875              		.cfi_offset 14, -4
 876 0004 0646     		mov	r6, r0
 877 0006 0F46     		mov	r7, r1
 264:.\puck_functions.c ****     PWM_Tilt_WriteCompare(177); //Halfway=162, Upwards = 135
 878              		.loc 1 264 0
 879 0008 B120     		movs	r0, #177
 880              	.LVL131:
 881 000a FFF7FEFF 		bl	PWM_Tilt_WriteCompare
 882              	.LVL132:
 265:.\puck_functions.c ****     const uint16 detectHeight = 240*6/8;
 266:.\puck_functions.c ****     
 267:.\puck_functions.c ****     CaptureFrameWithLights();
 883              		.loc 1 267 0
 884 000e FFF7FEFF 		bl	CaptureFrameWithLights
 885              	.LVL133:
 268:.\puck_functions.c ****     bool ClrOnScreen = CamScanClosest(clr, 1200);
 886              		.loc 1 268 0
 887 0012 3046     		mov	r0, r6
 888 0014 4FF49661 		mov	r1, #1200
 889 0018 FFF7FEFF 		bl	CamScanClosest
 890              	.LVL134:
 269:.\puck_functions.c ****     uint8 const range = 40;
 270:.\puck_functions.c ****     uint8 const yOffset = 60;
 271:.\puck_functions.c ****     if(ClrOnScreen){
 891              		.loc 1 271 0
 892 001c 0546     		mov	r5, r0
 893 001e 60B9     		cbnz	r0, .L51
 894 0020 BDE8F081 		pop	{r4, r5, r6, r7, r8, pc}
 895              	.LVL135:
 896              	.L53:
 897              	.LBB5:
 272:.\puck_functions.c ****         while (240-closestY > detectHeight) { //A quarter of the screen
 273:.\puck_functions.c ****             MovementForward(100);
 898              		.loc 1 273 0
 899 0024 6420     		movs	r0, #100
 900 0026 FFF7FEFF 		bl	MovementForward
 901              	.LVL136:
 274:.\puck_functions.c ****             CaptureFrameWithLights();
 902              		.loc 1 274 0
 903 002a FFF7FEFF 		bl	CaptureFrameWithLights
 904              	.LVL137:
 275:.\puck_functions.c ****             ClrOnScreen=CamScanClosest(clr,5000);
 905              		.loc 1 275 0
 906 002e 3046     		mov	r0, r6
 907 0030 41F28831 		movw	r1, #5000
 908 0034 FFF7FEFF 		bl	CamScanClosest
 909              	.LVL138:
ARM GAS  C:\Users\Daniel\AppData\Local\Temp\cczCpxmi.s 			page 22


 910 0038 0546     		mov	r5, r0
 911              	.LVL139:
 912              	.L51:
 272:.\puck_functions.c ****         while (240-closestY > detectHeight) { //A quarter of the screen
 913              		.loc 1 272 0
 914 003a 364B     		ldr	r3, .L65
 915 003c 1B88     		ldrh	r3, [r3]
 916 003e C3F1F003 		rsb	r3, r3, #240
 917 0042 B42B     		cmp	r3, #180
 918 0044 EEDC     		bgt	.L53
 272:.\puck_functions.c ****         while (240-closestY > detectHeight) { //A quarter of the screen
 919              		.loc 1 272 0 is_stmt 0 discriminator 1
 920 0046 4FF00108 		mov	r8, #1
 921 004a 0024     		movs	r4, #0
 922 004c 51E0     		b	.L54
 923              	.LVL140:
 924              	.L61:
 276:.\puck_functions.c ****         }
 277:.\puck_functions.c ****         uint8 i;
 278:.\puck_functions.c ****         bool consistent = true;
 279:.\puck_functions.c ****         for (i=0; i<2; i++) {
 280:.\puck_functions.c ****             CaptureFrameWithLights();
 925              		.loc 1 280 0 is_stmt 1
 926 004e FFF7FEFF 		bl	CaptureFrameWithLights
 927              	.LVL141:
 281:.\puck_functions.c ****             ClrOnScreen=CamScanClosest(clr,5000);
 928              		.loc 1 281 0
 929 0052 3046     		mov	r0, r6
 930 0054 41F28831 		movw	r1, #5000
 931 0058 FFF7FEFF 		bl	CamScanClosest
 932              	.LVL142:
 933 005c 0546     		mov	r5, r0
 934              	.LVL143:
 282:.\puck_functions.c ****             if (240-closestY > detectHeight) {//|| closestY > (numRows/2+range+yOffset)
 935              		.loc 1 282 0
 936 005e 2D4B     		ldr	r3, .L65
 937 0060 1B88     		ldrh	r3, [r3]
 938 0062 C3F1F003 		rsb	r3, r3, #240
 939 0066 B42B     		cmp	r3, #180
 940 0068 07DD     		ble	.L55
 941              	.LVL144:
 283:.\puck_functions.c ****                 consistent = false;
 284:.\puck_functions.c ****                 i=5;
 285:.\puck_functions.c ****                 MovementBackward(2000);
 942              		.loc 1 285 0
 943 006a 4FF4FA60 		mov	r0, #2000
 944              	.LVL145:
 945 006e FFF7FEFF 		bl	MovementBackward
 946              	.LVL146:
 283:.\puck_functions.c ****                 consistent = false;
 947              		.loc 1 283 0
 948 0072 4FF00008 		mov	r8, #0
 284:.\puck_functions.c ****                 MovementBackward(2000);
 949              		.loc 1 284 0
 950 0076 0524     		movs	r4, #5
 951 0078 39E0     		b	.L56
 952              	.LVL147:
ARM GAS  C:\Users\Daniel\AppData\Local\Temp\cczCpxmi.s 			page 23


 953              	.L55:
 286:.\puck_functions.c ****             } else if (!ClrOnScreen) {
 954              		.loc 1 286 0
 955 007a 0028     		cmp	r0, #0
 956 007c 37D1     		bne	.L56
 287:.\puck_functions.c ****                 CamSeqOperations(); //Find Largest 5 Pucks with default threshold.
 957              		.loc 1 287 0
 958 007e FFF7FEFF 		bl	CamSeqOperations
 959              	.LVL148:
 288:.\puck_functions.c ****                 if(lrgClr[0]!=clr && lrgY[0]>closestY) //TODO: Won't Handle RED, due to default arr
 960              		.loc 1 288 0
 961 0082 254B     		ldr	r3, .L65+4
 962 0084 1B78     		ldrb	r3, [r3]	@ zero_extendqisi2
 963 0086 B342     		cmp	r3, r6
 964 0088 31D0     		beq	.L56
 965              		.loc 1 288 0 is_stmt 0 discriminator 1
 966 008a 244B     		ldr	r3, .L65+8
 967 008c 1A88     		ldrh	r2, [r3]
 968 008e 214B     		ldr	r3, .L65
 969 0090 1B88     		ldrh	r3, [r3]
 970 0092 9A42     		cmp	r2, r3
 971 0094 2BD9     		bls	.L56
 289:.\puck_functions.c ****                 {
 290:.\puck_functions.c ****                     //Pickup Puck, Turn around, release, turn back.
 291:.\puck_functions.c ****                     ClawClose();
 972              		.loc 1 291 0 is_stmt 1
 973 0096 FFF7FEFF 		bl	ClawClose
 974              	.LVL149:
 292:.\puck_functions.c ****                     MovementBackward(2000);
 975              		.loc 1 292 0
 976 009a 4FF4FA60 		mov	r0, #2000
 977 009e FFF7FEFF 		bl	MovementBackward
 978              	.LVL150:
 293:.\puck_functions.c ****                     if(path)
 979              		.loc 1 293 0
 980 00a2 27B1     		cbz	r7, .L57
 294:.\puck_functions.c ****                         MovementPivotLeft(90);
 981              		.loc 1 294 0
 982 00a4 0020     		movs	r0, #0
 983 00a6 1E49     		ldr	r1, .L65+12
 984 00a8 FFF7FEFF 		bl	MovementPivotLeft
 985              	.LVL151:
 986 00ac 03E0     		b	.L58
 987              	.L57:
 295:.\puck_functions.c ****                     else
 296:.\puck_functions.c ****                         MovementPivotRight(90);
 988              		.loc 1 296 0
 989 00ae 0020     		movs	r0, #0
 990 00b0 1B49     		ldr	r1, .L65+12
 991 00b2 FFF7FEFF 		bl	MovementPivotRight
 992              	.LVL152:
 993              	.L58:
 297:.\puck_functions.c ****                     
 298:.\puck_functions.c ****                      MovementForward(500);
 994              		.loc 1 298 0
 995 00b6 4FF4FA70 		mov	r0, #500
 996 00ba FFF7FEFF 		bl	MovementForward
ARM GAS  C:\Users\Daniel\AppData\Local\Temp\cczCpxmi.s 			page 24


 997              	.LVL153:
 299:.\puck_functions.c ****                     ClawOpen();
 998              		.loc 1 299 0
 999 00be FFF7FEFF 		bl	ClawOpen
 1000              	.LVL154:
 300:.\puck_functions.c ****                     MovementBackward(500);
 1001              		.loc 1 300 0
 1002 00c2 4FF4FA70 		mov	r0, #500
 1003 00c6 FFF7FEFF 		bl	MovementBackward
 1004              	.LVL155:
 301:.\puck_functions.c ****                     MovementBackward(1000);
 1005              		.loc 1 301 0
 1006 00ca 4FF47A70 		mov	r0, #1000
 1007 00ce FFF7FEFF 		bl	MovementBackward
 1008              	.LVL156:
 302:.\puck_functions.c ****                     if(path)
 1009              		.loc 1 302 0
 1010 00d2 27B1     		cbz	r7, .L59
 303:.\puck_functions.c ****                         MovementPivotRight(90);
 1011              		.loc 1 303 0
 1012 00d4 0020     		movs	r0, #0
 1013 00d6 1249     		ldr	r1, .L65+12
 1014 00d8 FFF7FEFF 		bl	MovementPivotRight
 1015              	.LVL157:
 1016 00dc 03E0     		b	.L60
 1017              	.L59:
 304:.\puck_functions.c ****                     else
 305:.\puck_functions.c ****                         MovementPivotLeft(90);
 1018              		.loc 1 305 0
 1019 00de 0020     		movs	r0, #0
 1020 00e0 0F49     		ldr	r1, .L65+12
 1021 00e2 FFF7FEFF 		bl	MovementPivotLeft
 1022              	.LVL158:
 1023              	.L60:
 306:.\puck_functions.c ****                     MovementForward(900);
 1024              		.loc 1 306 0
 1025 00e6 4FF46170 		mov	r0, #900
 1026 00ea FFF7FEFF 		bl	MovementForward
 1027              	.LVL159:
 1028              	.L56:
 279:.\puck_functions.c ****             CaptureFrameWithLights();
 1029              		.loc 1 279 0 discriminator 2
 1030 00ee 0134     		adds	r4, r4, #1
 1031              	.LVL160:
 1032 00f0 E4B2     		uxtb	r4, r4
 1033              	.LVL161:
 1034              	.L54:
 279:.\puck_functions.c ****             CaptureFrameWithLights();
 1035              		.loc 1 279 0 is_stmt 0 discriminator 1
 1036 00f2 012C     		cmp	r4, #1
 1037 00f4 ABD9     		bls	.L61
 307:.\puck_functions.c ****                 }
 308:.\puck_functions.c ****             }
 309:.\puck_functions.c ****         }
 310:.\puck_functions.c ****         if (consistent && ClrOnScreen){
 1038              		.loc 1 310 0 is_stmt 1
 1039 00f6 B8F1000F 		cmp	r8, #0
ARM GAS  C:\Users\Daniel\AppData\Local\Temp\cczCpxmi.s 			page 25


 1040 00fa 05D0     		beq	.L62
 1041              		.loc 1 310 0 is_stmt 0 discriminator 1
 1042 00fc 3DB1     		cbz	r5, .L63
 311:.\puck_functions.c ****             ClawClose();
 1043              		.loc 1 311 0 is_stmt 1
 1044 00fe FFF7FEFF 		bl	ClawClose
 1045              	.LVL162:
 312:.\puck_functions.c ****             return true;
 1046              		.loc 1 312 0
 1047 0102 0120     		movs	r0, #1
 1048 0104 BDE8F081 		pop	{r4, r5, r6, r7, r8, pc}
 1049              	.LVL163:
 1050              	.L62:
 1051              	.LBE5:
 313:.\puck_functions.c ****         }
 314:.\puck_functions.c ****     }
 315:.\puck_functions.c ****     return false;
 1052              		.loc 1 315 0
 1053 0108 0020     		movs	r0, #0
 1054 010a BDE8F081 		pop	{r4, r5, r6, r7, r8, pc}
 1055              	.LVL164:
 1056              	.L63:
 1057 010e 0020     		movs	r0, #0
 316:.\puck_functions.c **** }
 1058              		.loc 1 316 0
 1059 0110 BDE8F081 		pop	{r4, r5, r6, r7, r8, pc}
 1060              	.LVL165:
 1061              	.L66:
 1062              		.align	2
 1063              	.L65:
 1064 0114 00000000 		.word	closestY
 1065 0118 00000000 		.word	lrgClr
 1066 011c 00000000 		.word	lrgY
 1067 0120 00805640 		.word	1079410688
 1068              		.cfi_endproc
 1069              	.LFE67:
 1070              		.size	PuckCanCollect, .-PuckCanCollect
 1071              		.section	.text.PuckFindEndzone,"ax",%progbits
 1072              		.align	2
 1073              		.global	PuckFindEndzone
 1074              		.thumb
 1075              		.thumb_func
 1076              		.type	PuckFindEndzone, %function
 1077              	PuckFindEndzone:
 1078              	.LFB68:
 317:.\puck_functions.c **** 
 318:.\puck_functions.c **** /*******************************************************************************
 319:.\puck_functions.c **** * Function Name: PuckFindEndzone
 320:.\puck_functions.c **** ****************************************************************************//**
 321:.\puck_functions.c **** *
 322:.\puck_functions.c **** * Moves the robot to the endzone if it's visible.
 323:.\puck_functions.c **** *
 324:.\puck_functions.c **** *******************************************************************************/
 325:.\puck_functions.c **** 
 326:.\puck_functions.c **** bool PuckFindEndzone() {
 1079              		.loc 1 326 0
 1080              		.cfi_startproc
ARM GAS  C:\Users\Daniel\AppData\Local\Temp\cczCpxmi.s 			page 26


 1081              		@ args = 0, pretend = 0, frame = 0
 1082              		@ frame_needed = 0, uses_anonymous_args = 0
 1083 0000 10B5     		push	{r4, lr}
 1084              		.cfi_def_cfa_offset 8
 1085              		.cfi_offset 4, -8
 1086              		.cfi_offset 14, -4
 1087 0002 84B0     		sub	sp, sp, #16
 1088              		.cfi_def_cfa_offset 24
 327:.\puck_functions.c ****     //Set new Threshold for Magenta.
 328:.\puck_functions.c ****     Camera_SetEGWB(160,0,128,128); //set exposure, gain and white balance
 1089              		.loc 1 328 0
 1090 0004 A020     		movs	r0, #160
 1091 0006 0021     		movs	r1, #0
 1092 0008 8022     		movs	r2, #128
 1093 000a 1346     		mov	r3, r2
 1094 000c FFF7FEFF 		bl	Camera_SetEGWB
 1095              	.LVL166:
 329:.\puck_functions.c ****     Camera_SetThresholds(-32,64,0,-64,48,-32,-16,16); //set thresholds for the 4 colours - last two
 1096              		.loc 1 329 0
 1097 0010 3023     		movs	r3, #48
 1098 0012 0093     		str	r3, [sp]
 1099 0014 6FF01F00 		mvn	r0, #31
 1100 0018 0190     		str	r0, [sp, #4]
 1101 001a 6FF00F03 		mvn	r3, #15
 1102 001e 0293     		str	r3, [sp, #8]
 1103 0020 1023     		movs	r3, #16
 1104 0022 0393     		str	r3, [sp, #12]
 1105 0024 4021     		movs	r1, #64
 1106 0026 0022     		movs	r2, #0
 1107 0028 6FF03F03 		mvn	r3, #63
 1108 002c FFF7FEFF 		bl	Camera_SetThresholds
 1109              	.LVL167:
 330:.\puck_functions.c ****     TiltDown45();
 1110              		.loc 1 330 0
 1111 0030 FFF7FEFF 		bl	TiltDown45
 1112              	.LVL168:
 331:.\puck_functions.c ****     CaptureFrameWithLights();
 1113              		.loc 1 331 0
 1114 0034 FFF7FEFF 		bl	CaptureFrameWithLights
 1115              	.LVL169:
 332:.\puck_functions.c ****     if (CamIdentifyEndzone()) {
 1116              		.loc 1 332 0
 1117 0038 FFF7FEFF 		bl	CamIdentifyEndzone
 1118              	.LVL170:
 1119 003c 0446     		mov	r4, r0
 1120 003e D0B9     		cbnz	r0, .L68
 1121 0040 34E0     		b	.L72
 1122              	.L70:
 333:.\puck_functions.c ****         while(lowestY < 230) {
 334:.\puck_functions.c ****             MovementForward( pow(((double)(240-lowestY))/240.0,3)*300.0); 
 1123              		.loc 1 334 0
 1124 0042 C0F1F000 		rsb	r0, r0, #240
 1125 0046 FFF7FEFF 		bl	__aeabi_i2d
 1126              	.LVL171:
 1127 004a 0022     		movs	r2, #0
 1128 004c 264B     		ldr	r3, .L74+8
 1129 004e FFF7FEFF 		bl	__aeabi_ddiv
ARM GAS  C:\Users\Daniel\AppData\Local\Temp\cczCpxmi.s 			page 27


 1130              	.LVL172:
 1131 0052 0022     		movs	r2, #0
 1132 0054 254B     		ldr	r3, .L74+12
 1133 0056 FFF7FEFF 		bl	pow
 1134              	.LVL173:
 1135 005a 21A3     		adr	r3, .L74
 1136 005c D3E90023 		ldrd	r2, [r3]
 1137 0060 FFF7FEFF 		bl	__aeabi_dmul
 1138              	.LVL174:
 1139 0064 FFF7FEFF 		bl	__aeabi_d2uiz
 1140              	.LVL175:
 1141 0068 80B2     		uxth	r0, r0
 1142 006a FFF7FEFF 		bl	MovementForward
 1143              	.LVL176:
 335:.\puck_functions.c ****             CaptureFrameWithLights();
 1144              		.loc 1 335 0
 1145 006e FFF7FEFF 		bl	CaptureFrameWithLights
 1146              	.LVL177:
 336:.\puck_functions.c ****             CamIdentifyEndzone();
 1147              		.loc 1 336 0
 1148 0072 FFF7FEFF 		bl	CamIdentifyEndzone
 1149              	.LVL178:
 1150              	.L68:
 333:.\puck_functions.c ****         while(lowestY < 230) {
 1151              		.loc 1 333 0
 1152 0076 1E4B     		ldr	r3, .L74+16
 1153 0078 1888     		ldrh	r0, [r3]
 1154 007a E528     		cmp	r0, #229
 1155 007c E1D9     		bls	.L70
 337:.\puck_functions.c ****         }
 338:.\puck_functions.c ****         
 339:.\puck_functions.c ****         //Return to old Threshold: DONT MODIFY.
 340:.\puck_functions.c ****         Camera_SetEGWB(160,0,128,128);
 1156              		.loc 1 340 0
 1157 007e A020     		movs	r0, #160
 1158 0080 0021     		movs	r1, #0
 1159 0082 8022     		movs	r2, #128
 1160 0084 1346     		mov	r3, r2
 1161 0086 FFF7FEFF 		bl	Camera_SetEGWB
 1162              	.LVL179:
 341:.\puck_functions.c ****         Camera_SetThresholds(-32,64,0,-64,48,-32,-16,32);
 1163              		.loc 1 341 0
 1164 008a 3023     		movs	r3, #48
 1165 008c 0093     		str	r3, [sp]
 1166 008e 6FF01F00 		mvn	r0, #31
 1167 0092 0190     		str	r0, [sp, #4]
 1168 0094 6FF00F03 		mvn	r3, #15
 1169 0098 0293     		str	r3, [sp, #8]
 1170 009a 2023     		movs	r3, #32
 1171 009c 0393     		str	r3, [sp, #12]
 1172 009e 4021     		movs	r1, #64
 1173 00a0 0022     		movs	r2, #0
 1174 00a2 6FF03F03 		mvn	r3, #63
 1175 00a6 FFF7FEFF 		bl	Camera_SetThresholds
 1176              	.LVL180:
 342:.\puck_functions.c ****         return true;
 1177              		.loc 1 342 0
ARM GAS  C:\Users\Daniel\AppData\Local\Temp\cczCpxmi.s 			page 28


 1178 00aa 15E0     		b	.L71
 1179              	.L72:
 343:.\puck_functions.c ****     }
 344:.\puck_functions.c ****     //Return to old Threshold: DONT MODIFY.
 345:.\puck_functions.c ****     Camera_SetEGWB(160,0,128,128);
 1180              		.loc 1 345 0
 1181 00ac A020     		movs	r0, #160
 1182 00ae 0021     		movs	r1, #0
 1183 00b0 8022     		movs	r2, #128
 1184 00b2 1346     		mov	r3, r2
 1185 00b4 FFF7FEFF 		bl	Camera_SetEGWB
 1186              	.LVL181:
 346:.\puck_functions.c ****     Camera_SetThresholds(-32,64,0,-64,48,-32,-16,32);
 1187              		.loc 1 346 0
 1188 00b8 3023     		movs	r3, #48
 1189 00ba 0093     		str	r3, [sp]
 1190 00bc 6FF01F00 		mvn	r0, #31
 1191 00c0 0190     		str	r0, [sp, #4]
 1192 00c2 6FF00F03 		mvn	r3, #15
 1193 00c6 0293     		str	r3, [sp, #8]
 1194 00c8 2023     		movs	r3, #32
 1195 00ca 0393     		str	r3, [sp, #12]
 1196 00cc 4021     		movs	r1, #64
 1197 00ce 0022     		movs	r2, #0
 1198 00d0 6FF03F03 		mvn	r3, #63
 1199 00d4 FFF7FEFF 		bl	Camera_SetThresholds
 1200              	.LVL182:
 1201              	.L71:
 347:.\puck_functions.c ****     return false;
 348:.\puck_functions.c **** }
 1202              		.loc 1 348 0
 1203 00d8 2046     		mov	r0, r4
 1204 00da 04B0     		add	sp, sp, #16
 1205              		.cfi_def_cfa_offset 8
 1206              		@ sp needed
 1207 00dc 10BD     		pop	{r4, pc}
 1208              	.L75:
 1209 00de 00BF     		.align	3
 1210              	.L74:
 1211 00e0 00000000 		.word	0
 1212 00e4 00C07240 		.word	1081262080
 1213 00e8 00006E40 		.word	1080950784
 1214 00ec 00000840 		.word	1074266112
 1215 00f0 00000000 		.word	lowestY
 1216              		.cfi_endproc
 1217              	.LFE68:
 1218              		.size	PuckFindEndzone, .-PuckFindEndzone
 1219 00f4 AFF30080 		.section	.text.PuckResetAngleTotal,"ax",%progbits
 1220              		.align	2
 1221              		.global	PuckResetAngleTotal
 1222              		.thumb
 1223              		.thumb_func
 1224              		.type	PuckResetAngleTotal, %function
 1225              	PuckResetAngleTotal:
 1226              	.LFB70:
 349:.\puck_functions.c **** /*******************************************************************************
 350:.\puck_functions.c **** * Function Name: PuckAquire
ARM GAS  C:\Users\Daniel\AppData\Local\Temp\cczCpxmi.s 			page 29


 351:.\puck_functions.c **** ****************************************************************************//**
 352:.\puck_functions.c **** *
 353:.\puck_functions.c **** * Uses puck function libraries to aquire a puck (find & pickup).
 354:.\puck_functions.c **** *
 355:.\puck_functions.c **** *******************************************************************************/
 356:.\puck_functions.c **** void PuckAquire(uint8 clr, bool path) {
 357:.\puck_functions.c ****     
 358:.\puck_functions.c ****     PanMid();
 359:.\puck_functions.c ****     CyDelay(50);
 360:.\puck_functions.c ****     
 361:.\puck_functions.c ****     bool found = false;
 362:.\puck_functions.c ****     PuckFarScan(clr);
 363:.\puck_functions.c ****     PuckFarAquire(clr);
 364:.\puck_functions.c ****     while(!found) {
 365:.\puck_functions.c ****             if (PuckCloseScan(clr)){
 366:.\puck_functions.c ****                 if(PuckCloseAquire(clr,path))
 367:.\puck_functions.c ****                     found=PuckCanCollect(clr,path);
 368:.\puck_functions.c ****             } else if(PuckFarScan(clr)){
 369:.\puck_functions.c ****                 PuckFarAquire(clr);
 370:.\puck_functions.c ****             }
 371:.\puck_functions.c ****             CamDisplaySeq();
 372:.\puck_functions.c ****             CyDelay(500);
 373:.\puck_functions.c ****         }
 374:.\puck_functions.c ****     MovementBackward(3000);
 375:.\puck_functions.c ****     if(angleTotal > 0)
 376:.\puck_functions.c ****         MovementPivotLeft(angleTotal%360);
 377:.\puck_functions.c ****     else
 378:.\puck_functions.c ****         MovementPivotRight((-angleTotal)%360);
 379:.\puck_functions.c ****     PuckResetAngleTotal();
 380:.\puck_functions.c **** }
 381:.\puck_functions.c **** /*******************************************************************************
 382:.\puck_functions.c **** * Function Name: PuckResetAngleTotal.
 383:.\puck_functions.c **** ****************************************************************************//**
 384:.\puck_functions.c **** *
 385:.\puck_functions.c **** * Resets angle counter.
 386:.\puck_functions.c **** *
 387:.\puck_functions.c **** *******************************************************************************/
 388:.\puck_functions.c **** void PuckResetAngleTotal() {
 1227              		.loc 1 388 0
 1228              		.cfi_startproc
 1229              		@ args = 0, pretend = 0, frame = 0
 1230              		@ frame_needed = 0, uses_anonymous_args = 0
 1231              		@ link register save eliminated.
 389:.\puck_functions.c ****     angleTotal=0;
 1232              		.loc 1 389 0
 1233 0000 0022     		movs	r2, #0
 1234 0002 014B     		ldr	r3, .L77
 1235 0004 1A80     		strh	r2, [r3]	@ movhi
 1236 0006 7047     		bx	lr
 1237              	.L78:
 1238              		.align	2
 1239              	.L77:
 1240 0008 00000000 		.word	.LANCHOR0
 1241              		.cfi_endproc
 1242              	.LFE70:
 1243              		.size	PuckResetAngleTotal, .-PuckResetAngleTotal
 1244              		.section	.text.PuckAquire,"ax",%progbits
ARM GAS  C:\Users\Daniel\AppData\Local\Temp\cczCpxmi.s 			page 30


 1245              		.align	2
 1246              		.global	PuckAquire
 1247              		.thumb
 1248              		.thumb_func
 1249              		.type	PuckAquire, %function
 1250              	PuckAquire:
 1251              	.LFB69:
 356:.\puck_functions.c ****     
 1252              		.loc 1 356 0
 1253              		.cfi_startproc
 1254              		@ args = 0, pretend = 0, frame = 0
 1255              		@ frame_needed = 0, uses_anonymous_args = 0
 1256              	.LVL183:
 1257 0000 70B5     		push	{r4, r5, r6, lr}
 1258              		.cfi_def_cfa_offset 16
 1259              		.cfi_offset 4, -16
 1260              		.cfi_offset 5, -12
 1261              		.cfi_offset 6, -8
 1262              		.cfi_offset 14, -4
 1263 0002 0446     		mov	r4, r0
 1264 0004 0E46     		mov	r6, r1
 358:.\puck_functions.c ****     CyDelay(50);
 1265              		.loc 1 358 0
 1266 0006 FFF7FEFF 		bl	PanMid
 1267              	.LVL184:
 359:.\puck_functions.c ****     
 1268              		.loc 1 359 0
 1269 000a 3220     		movs	r0, #50
 1270 000c FFF7FEFF 		bl	CyDelay
 1271              	.LVL185:
 362:.\puck_functions.c ****     PuckFarAquire(clr);
 1272              		.loc 1 362 0
 1273 0010 2046     		mov	r0, r4
 1274 0012 FFF7FEFF 		bl	PuckFarScan
 1275              	.LVL186:
 363:.\puck_functions.c ****     while(!found) {
 1276              		.loc 1 363 0
 1277 0016 2046     		mov	r0, r4
 1278 0018 FFF7FEFF 		bl	PuckFarAquire
 1279              	.LVL187:
 361:.\puck_functions.c ****     PuckFarScan(clr);
 1280              		.loc 1 361 0
 1281 001c 0025     		movs	r5, #0
 364:.\puck_functions.c ****             if (PuckCloseScan(clr)){
 1282              		.loc 1 364 0
 1283 001e 1BE0     		b	.L80
 1284              	.LVL188:
 1285              	.L83:
 365:.\puck_functions.c ****                 if(PuckCloseAquire(clr,path))
 1286              		.loc 1 365 0
 1287 0020 2046     		mov	r0, r4
 1288 0022 FFF7FEFF 		bl	PuckCloseScan
 1289              	.LVL189:
 1290 0026 50B1     		cbz	r0, .L81
 366:.\puck_functions.c ****                     found=PuckCanCollect(clr,path);
 1291              		.loc 1 366 0
 1292 0028 2046     		mov	r0, r4
ARM GAS  C:\Users\Daniel\AppData\Local\Temp\cczCpxmi.s 			page 31


 1293 002a 3146     		mov	r1, r6
 1294 002c FFF7FEFF 		bl	PuckCloseAquire
 1295              	.LVL190:
 1296 0030 60B1     		cbz	r0, .L82
 367:.\puck_functions.c ****             } else if(PuckFarScan(clr)){
 1297              		.loc 1 367 0
 1298 0032 2046     		mov	r0, r4
 1299 0034 3146     		mov	r1, r6
 1300 0036 FFF7FEFF 		bl	PuckCanCollect
 1301              	.LVL191:
 1302 003a 0546     		mov	r5, r0
 1303              	.LVL192:
 1304 003c 06E0     		b	.L82
 1305              	.L81:
 368:.\puck_functions.c ****                 PuckFarAquire(clr);
 1306              		.loc 1 368 0
 1307 003e 2046     		mov	r0, r4
 1308 0040 FFF7FEFF 		bl	PuckFarScan
 1309              	.LVL193:
 1310 0044 10B1     		cbz	r0, .L82
 369:.\puck_functions.c ****             }
 1311              		.loc 1 369 0
 1312 0046 2046     		mov	r0, r4
 1313 0048 FFF7FEFF 		bl	PuckFarAquire
 1314              	.LVL194:
 1315              	.L82:
 371:.\puck_functions.c ****             CyDelay(500);
 1316              		.loc 1 371 0
 1317 004c FFF7FEFF 		bl	CamDisplaySeq
 1318              	.LVL195:
 372:.\puck_functions.c ****         }
 1319              		.loc 1 372 0
 1320 0050 4FF4FA70 		mov	r0, #500
 1321 0054 FFF7FEFF 		bl	CyDelay
 1322              	.LVL196:
 1323              	.L80:
 364:.\puck_functions.c ****             if (PuckCloseScan(clr)){
 1324              		.loc 1 364 0
 1325 0058 002D     		cmp	r5, #0
 1326 005a E1D0     		beq	.L83
 374:.\puck_functions.c ****     if(angleTotal > 0)
 1327              		.loc 1 374 0
 1328 005c 40F6B830 		movw	r0, #3000
 1329 0060 FFF7FEFF 		bl	MovementBackward
 1330              	.LVL197:
 375:.\puck_functions.c ****         MovementPivotLeft(angleTotal%360);
 1331              		.loc 1 375 0
 1332 0064 124B     		ldr	r3, .L87
 1333 0066 1888     		ldrh	r0, [r3]
 1334 0068 70B1     		cbz	r0, .L84
 376:.\puck_functions.c ****     else
 1335              		.loc 1 376 0
 1336 006a C308     		lsrs	r3, r0, #3
 1337 006c 114A     		ldr	r2, .L87+4
 1338 006e A2FB0323 		umull	r2, r3, r2, r3
 1339 0072 9B08     		lsrs	r3, r3, #2
 1340 0074 4FF4B472 		mov	r2, #360
ARM GAS  C:\Users\Daniel\AppData\Local\Temp\cczCpxmi.s 			page 32


 1341 0078 02FB1300 		mls	r0, r2, r3, r0
 1342 007c 80B2     		uxth	r0, r0
 1343 007e FFF7FEFF 		bl	__aeabi_i2d
 1344              	.LVL198:
 1345 0082 FFF7FEFF 		bl	MovementPivotLeft
 1346              	.LVL199:
 1347 0086 0FE0     		b	.L85
 1348              	.L84:
 378:.\puck_functions.c ****     PuckResetAngleTotal();
 1349              		.loc 1 378 0
 1350 0088 4342     		negs	r3, r0
 1351 008a 0B48     		ldr	r0, .L87+8
 1352 008c 83FB0001 		smull	r0, r1, r3, r0
 1353 0090 5818     		adds	r0, r3, r1
 1354 0092 DA17     		asrs	r2, r3, #31
 1355 0094 C2EB2022 		rsb	r2, r2, r0, asr #8
 1356 0098 4FF4B470 		mov	r0, #360
 1357 009c 00FB1230 		mls	r0, r0, r2, r3
 1358 00a0 FFF7FEFF 		bl	__aeabi_i2d
 1359              	.LVL200:
 1360 00a4 FFF7FEFF 		bl	MovementPivotRight
 1361              	.LVL201:
 1362              	.L85:
 379:.\puck_functions.c **** }
 1363              		.loc 1 379 0
 1364 00a8 FFF7FEFF 		bl	PuckResetAngleTotal
 1365              	.LVL202:
 1366 00ac 70BD     		pop	{r4, r5, r6, pc}
 1367              	.LVL203:
 1368              	.L88:
 1369 00ae 00BF     		.align	2
 1370              	.L87:
 1371 00b0 00000000 		.word	.LANCHOR0
 1372 00b4 176CC116 		.word	381774871
 1373 00b8 B7600BB6 		.word	-1240768329
 1374              		.cfi_endproc
 1375              	.LFE69:
 1376              		.size	PuckAquire, .-PuckAquire
 1377              		.global	__aeabi_dcmpgt
 1378              		.global	__aeabi_dcmplt
 1379              		.section	.text.PuckPositionToStack2,"ax",%progbits
 1380              		.align	2
 1381              		.global	PuckPositionToStack2
 1382              		.thumb
 1383              		.thumb_func
 1384              		.type	PuckPositionToStack2, %function
 1385              	PuckPositionToStack2:
 1386              	.LFB72:
 390:.\puck_functions.c **** }
 391:.\puck_functions.c **** 
 392:.\puck_functions.c **** /*******************************************************************************
 393:.\puck_functions.c **** * Function Name: PuckPositionToStack
 394:.\puck_functions.c **** ****************************************************************************//**
 395:.\puck_functions.c **** *
 396:.\puck_functions.c **** * Aligns the robot to the stack if it's visible.
 397:.\puck_functions.c **** *
 398:.\puck_functions.c **** *******************************************************************************/
ARM GAS  C:\Users\Daniel\AppData\Local\Temp\cczCpxmi.s 			page 33


 399:.\puck_functions.c **** void PuckPositionToStack(uint8 clr){
 400:.\puck_functions.c ****     //clr == Colour --> R,G,B == 0,1,2.
 401:.\puck_functions.c ****     //extern uint8 orderedScaledClr[5]; -> vector of colour sequence
 402:.\puck_functions.c ****     PanMid(); //Make sure camera is in correct direction.
 403:.\puck_functions.c ****     CyDelay(200);
 404:.\puck_functions.c ****     TiltDown45();
 405:.\puck_functions.c ****     CyDelay(200);
 406:.\puck_functions.c ****     
 407:.\puck_functions.c ****     PWM_Tilt_WriteCompare(162);
 408:.\puck_functions.c ****     CyDelay(20);
 409:.\puck_functions.c ****     //Hold Weighting Sums & Colours.
 410:.\puck_functions.c ****     //Initialize Vals.
 411:.\puck_functions.c ****     int Yend;
 412:.\puck_functions.c ****     double angle, XYRatio;
 413:.\puck_functions.c ****     int centreX, centreY;
 414:.\puck_functions.c ****     CaptureFrameWithLights();
 415:.\puck_functions.c ****     Yend = CamIdenifyEndzonePuck(clr);
 416:.\puck_functions.c ****     centreX = closestX-numCols/2;
 417:.\puck_functions.c ****     centreY = 240-closestY + CAMERA_Y_OFFSET;
 418:.\puck_functions.c ****     
 419:.\puck_functions.c ****     bool positioned = false;
 420:.\puck_functions.c ****     while (!positioned){
 421:.\puck_functions.c ****         if(240-closestY > numRows*3.0/8.0){ //Align: CloseAquire uses 240-Y > 65...
 422:.\puck_functions.c ****             while(abs(centreX) > 8) { //Keep turning untill we get a decent alignment //(abs(closes
 423:.\puck_functions.c ****                 if (centreX > 0) {
 424:.\puck_functions.c ****                     XYRatio = ((double)(centreX))/(centreY);
 425:.\puck_functions.c ****                     angle = cbrt((atan(XYRatio)*180)/PI*corrFact*0.8);
 426:.\puck_functions.c ****                     MovementPivotRight(angle);
 427:.\puck_functions.c ****                     angleTotal+=angle;
 428:.\puck_functions.c ****                 } else { //centreX < 0
 429:.\puck_functions.c ****                     XYRatio=((double)(-centreX))/(centreY);
 430:.\puck_functions.c ****                     angle = cbrt((atan(XYRatio)*180)/PI*corrFact*0.8);
 431:.\puck_functions.c ****                     MovementPivotLeft(angle);
 432:.\puck_functions.c ****                     angleTotal+=angle;
 433:.\puck_functions.c ****                 }
 434:.\puck_functions.c ****                 //Rescan for new position.
 435:.\puck_functions.c ****                 CaptureFrameWithLights();
 436:.\puck_functions.c ****                 Yend = CamIdenifyEndzonePuck(clr);
 437:.\puck_functions.c ****                 centreX = closestX-numCols/2;
 438:.\puck_functions.c ****                 centreY = 240-closestY + CAMERA_Y_OFFSET;
 439:.\puck_functions.c ****             }
 440:.\puck_functions.c ****             MovementForward(pow(((240.0-lowestY)/60),2)*300);
 441:.\puck_functions.c ****             CaptureFrameWithLights();
 442:.\puck_functions.c ****             Yend = CamIdenifyEndzonePuck(clr);
 443:.\puck_functions.c ****             centreX = closestX-numCols/2;
 444:.\puck_functions.c ****             centreY = 240-closestY + CAMERA_Y_OFFSET;
 445:.\puck_functions.c ****         } else {
 446:.\puck_functions.c ****             //Close enough to stack?
 447:.\puck_functions.c ****             if (240 - lowestY < numRows*1.0/8.0 ){
 448:.\puck_functions.c ****                 //Stack.
 449:.\puck_functions.c ****                 positioned=PuckPositionToStack2(clr);
 450:.\puck_functions.c ****                 PWM_Tilt_WriteCompare(162);
 451:.\puck_functions.c ****                 CyDelay(200);
 452:.\puck_functions.c ****                 CaptureFrameWithLights();
 453:.\puck_functions.c ****                 Yend = CamIdenifyEndzonePuck(clr);
 454:.\puck_functions.c ****                 centreX = closestX-numCols/2;
 455:.\puck_functions.c ****                 centreY = 240-closestY + CAMERA_Y_OFFSET;
ARM GAS  C:\Users\Daniel\AppData\Local\Temp\cczCpxmi.s 			page 34


 456:.\puck_functions.c ****             } else {
 457:.\puck_functions.c ****                 //Drive closer.
 458:.\puck_functions.c ****                 MovementForward(pow(((240.0-lowestY)/90),2)*300); //From 120 to 90.
 459:.\puck_functions.c ****                 CaptureFrameWithLights();
 460:.\puck_functions.c ****                 Yend = CamIdenifyEndzonePuck(clr);
 461:.\puck_functions.c ****                 centreX = closestX-numCols/2;
 462:.\puck_functions.c ****                 centreY = 240-closestY + CAMERA_Y_OFFSET;
 463:.\puck_functions.c ****             }
 464:.\puck_functions.c ****                 
 465:.\puck_functions.c ****         }
 466:.\puck_functions.c ****     }
 467:.\puck_functions.c **** }
 468:.\puck_functions.c **** 
 469:.\puck_functions.c **** bool PuckPositionToStack2(uint8 clr){
 1387              		.loc 1 469 0
 1388              		.cfi_startproc
 1389              		@ args = 0, pretend = 0, frame = 16
 1390              		@ frame_needed = 0, uses_anonymous_args = 0
 1391              	.LVL204:
 1392 0000 2DE9F047 		push	{r4, r5, r6, r7, r8, r9, r10, lr}
 1393              		.cfi_def_cfa_offset 32
 1394              		.cfi_offset 4, -32
 1395              		.cfi_offset 5, -28
 1396              		.cfi_offset 6, -24
 1397              		.cfi_offset 7, -20
 1398              		.cfi_offset 8, -16
 1399              		.cfi_offset 9, -12
 1400              		.cfi_offset 10, -8
 1401              		.cfi_offset 14, -4
 1402 0004 84B0     		sub	sp, sp, #16
 1403              		.cfi_def_cfa_offset 48
 1404 0006 8146     		mov	r9, r0
 470:.\puck_functions.c **** //clr == Colour --> R,G,B == 0,1,2.
 471:.\puck_functions.c **** //extern uint8 orderedScaledClr[5]; -> vector of colour sequence
 472:.\puck_functions.c ****     PWM_Tilt_WriteCompare(180);
 1405              		.loc 1 472 0
 1406 0008 B420     		movs	r0, #180
 1407              	.LVL205:
 1408 000a FFF7FEFF 		bl	PWM_Tilt_WriteCompare
 1409              	.LVL206:
 473:.\puck_functions.c ****     CyDelay(20);
 1410              		.loc 1 473 0
 1411 000e 1420     		movs	r0, #20
 1412 0010 FFF7FEFF 		bl	CyDelay
 1413              	.LVL207:
 474:.\puck_functions.c ****     //Hold Weighting Sums & Colours.
 475:.\puck_functions.c ****     //Initialize Vals.
 476:.\puck_functions.c ****     double angle, XYRatio, angleTot=0;
 477:.\puck_functions.c ****     int centreX, centreY;
 478:.\puck_functions.c ****     CaptureFrameWithLights();
 1414              		.loc 1 478 0
 1415 0014 FFF7FEFF 		bl	CaptureFrameWithLights
 1416              	.LVL208:
 479:.\puck_functions.c ****     bool canSee = CamIdenifyEndzonePuck(clr);
 1417              		.loc 1 479 0
 1418 0018 4846     		mov	r0, r9
 1419 001a FFF7FEFF 		bl	CamIdenifyEndzonePuck
ARM GAS  C:\Users\Daniel\AppData\Local\Temp\cczCpxmi.s 			page 35


 1420              	.LVL209:
 1421 001e 0746     		mov	r7, r0
 1422              	.LVL210:
 480:.\puck_functions.c ****     centreX = closestX-numCols/2;
 1423              		.loc 1 480 0
 1424 0020 8F4B     		ldr	r3, .L114+24
 1425 0022 1E88     		ldrh	r6, [r3]
 1426 0024 8F4B     		ldr	r3, .L114+28
 1427 0026 B3F80080 		ldrh	r8, [r3]
 1428 002a 4FEA5808 		lsr	r8, r8, #1
 1429 002e C8EB0606 		rsb	r6, r8, r6
 1430              	.LVL211:
 481:.\puck_functions.c ****     centreY = 240-closestY + CAMERA_Y_OFFSET;
 1431              		.loc 1 481 0
 1432 0032 8D4B     		ldr	r3, .L114+32
 1433 0034 B3F800A0 		ldrh	r10, [r3]
 1434 0038 CAF5C87A 		rsb	r10, r10, #400
 1435              	.LVL212:
 476:.\puck_functions.c ****     int centreX, centreY;
 1436              		.loc 1 476 0
 1437 003c 0024     		movs	r4, #0
 1438 003e 0025     		movs	r5, #0
 482:.\puck_functions.c ****     
 483:.\puck_functions.c ****     
 484:.\puck_functions.c ****     bool positioned = false;
 485:.\puck_functions.c ****     while (!positioned && canSee){
 1439              		.loc 1 485 0
 1440 0040 EEE0     		b	.L90
 1441              	.LVL213:
 1442              	.L102:
 486:.\puck_functions.c ****         if(240-closestY > numRows*0.33){ //Align: CloseAquire uses 240-Y > 65...
 1443              		.loc 1 486 0
 1444 0042 894B     		ldr	r3, .L114+32
 1445 0044 1888     		ldrh	r0, [r3]
 1446 0046 C0F1F000 		rsb	r0, r0, #240
 1447 004a FFF7FEFF 		bl	__aeabi_i2d
 1448              	.LVL214:
 1449 004e CDE90201 		strd	r0, [sp, #8]
 1450 0052 864B     		ldr	r3, .L114+36
 1451 0054 1878     		ldrb	r0, [r3]	@ zero_extendqisi2
 1452 0056 FFF7FEFF 		bl	__aeabi_i2d
 1453              	.LVL215:
 1454 005a 7BA3     		adr	r3, .L114
 1455 005c D3E90023 		ldrd	r2, [r3]
 1456 0060 FFF7FEFF 		bl	__aeabi_dmul
 1457              	.LVL216:
 1458 0064 CDE90001 		strd	r0, [sp]
 1459 0068 DDE90201 		ldrd	r0, [sp, #8]
 1460 006c DDE90023 		ldrd	r2, [sp]
 1461 0070 FFF7FEFF 		bl	__aeabi_dcmpgt
 1462              	.LVL217:
 1463 0074 0028     		cmp	r0, #0
 1464 0076 40F08980 		bne	.L91
 1465 007a BAE0     		b	.L109
 1466              	.LVL218:
 1467              	.L98:
 487:.\puck_functions.c ****             while(abs(centreX) > 8) { //Keep turning untill we get a decent alignment //(abs(closes
ARM GAS  C:\Users\Daniel\AppData\Local\Temp\cczCpxmi.s 			page 36


 488:.\puck_functions.c ****                 if (centreX > 0) {
 1468              		.loc 1 488 0
 1469 007c 002E     		cmp	r6, #0
 1470 007e 39DD     		ble	.L93
 489:.\puck_functions.c ****                     XYRatio = ((double)(centreX))/(centreY);
 1471              		.loc 1 489 0
 1472 0080 3046     		mov	r0, r6
 1473 0082 FFF7FEFF 		bl	__aeabi_i2d
 1474              	.LVL219:
 1475 0086 0646     		mov	r6, r0
 1476              	.LVL220:
 1477 0088 0F46     		mov	r7, r1
 1478 008a 5046     		mov	r0, r10
 1479 008c FFF7FEFF 		bl	__aeabi_i2d
 1480              	.LVL221:
 1481 0090 0246     		mov	r2, r0
 1482 0092 0B46     		mov	r3, r1
 1483 0094 3046     		mov	r0, r6
 1484 0096 3946     		mov	r1, r7
 1485 0098 FFF7FEFF 		bl	__aeabi_ddiv
 1486              	.LVL222:
 490:.\puck_functions.c ****                     angle = cbrt((atan(XYRatio)*180)/PI*corrFact/3.0);
 1487              		.loc 1 490 0
 1488 009c FFF7FEFF 		bl	atan
 1489              	.LVL223:
 1490 00a0 0022     		movs	r2, #0
 1491 00a2 734B     		ldr	r3, .L114+40
 1492 00a4 FFF7FEFF 		bl	__aeabi_dmul
 1493              	.LVL224:
 1494 00a8 69A3     		adr	r3, .L114+8
 1495 00aa D3E90023 		ldrd	r2, [r3]
 1496 00ae FFF7FEFF 		bl	__aeabi_ddiv
 1497              	.LVL225:
 1498 00b2 69A3     		adr	r3, .L114+16
 1499 00b4 D3E90023 		ldrd	r2, [r3]
 1500 00b8 FFF7FEFF 		bl	__aeabi_dmul
 1501              	.LVL226:
 1502 00bc 0022     		movs	r2, #0
 1503 00be 6D4B     		ldr	r3, .L114+44
 1504 00c0 FFF7FEFF 		bl	__aeabi_ddiv
 1505              	.LVL227:
 1506 00c4 FFF7FEFF 		bl	cbrt
 1507              	.LVL228:
 1508 00c8 0646     		mov	r6, r0
 1509 00ca 0F46     		mov	r7, r1
 1510              	.LVL229:
 491:.\puck_functions.c ****                     if (angleTot+angle < 20) {
 1511              		.loc 1 491 0
 1512 00cc 2046     		mov	r0, r4
 1513 00ce 2946     		mov	r1, r5
 1514 00d0 3246     		mov	r2, r6
 1515 00d2 3B46     		mov	r3, r7
 1516 00d4 FFF7FEFF 		bl	__aeabi_dadd
 1517              	.LVL230:
 1518 00d8 0446     		mov	r4, r0
 1519              	.LVL231:
 1520 00da 0D46     		mov	r5, r1
ARM GAS  C:\Users\Daniel\AppData\Local\Temp\cczCpxmi.s 			page 37


 1521 00dc 0022     		movs	r2, #0
 1522 00de 664B     		ldr	r3, .L114+48
 1523 00e0 FFF7FEFF 		bl	__aeabi_dcmplt
 1524              	.LVL232:
 1525 00e4 0028     		cmp	r0, #0
 1526 00e6 00F0A480 		beq	.L110
 492:.\puck_functions.c ****                         MovementPivotRight(angle);
 1527              		.loc 1 492 0
 1528 00ea 3046     		mov	r0, r6
 1529 00ec 3946     		mov	r1, r7
 1530 00ee FFF7FEFF 		bl	MovementPivotRight
 1531              	.LVL233:
 1532 00f2 3DE0     		b	.L96
 1533              	.LVL234:
 1534              	.L93:
 493:.\puck_functions.c ****                         angleTot+=angle;
 494:.\puck_functions.c ****                     } else {
 495:.\puck_functions.c ****                         //MovementBackward(1000);
 496:.\puck_functions.c ****                         return false;
 497:.\puck_functions.c ****                     }
 498:.\puck_functions.c ****                 } else { //centreX < 0
 499:.\puck_functions.c ****                     XYRatio=((double)(-centreX))/(centreY);
 1535              		.loc 1 499 0
 1536 00f4 7042     		negs	r0, r6
 1537 00f6 FFF7FEFF 		bl	__aeabi_i2d
 1538              	.LVL235:
 1539 00fa 0646     		mov	r6, r0
 1540              	.LVL236:
 1541 00fc 0F46     		mov	r7, r1
 1542 00fe 5046     		mov	r0, r10
 1543 0100 FFF7FEFF 		bl	__aeabi_i2d
 1544              	.LVL237:
 1545 0104 0246     		mov	r2, r0
 1546 0106 0B46     		mov	r3, r1
 1547 0108 3046     		mov	r0, r6
 1548 010a 3946     		mov	r1, r7
 1549 010c FFF7FEFF 		bl	__aeabi_ddiv
 1550              	.LVL238:
 500:.\puck_functions.c ****                     angle = cbrt((atan(XYRatio)*180)/PI*corrFact/3.0);
 1551              		.loc 1 500 0
 1552 0110 FFF7FEFF 		bl	atan
 1553              	.LVL239:
 1554 0114 0022     		movs	r2, #0
 1555 0116 564B     		ldr	r3, .L114+40
 1556 0118 FFF7FEFF 		bl	__aeabi_dmul
 1557              	.LVL240:
 1558 011c 4CA3     		adr	r3, .L114+8
 1559 011e D3E90023 		ldrd	r2, [r3]
 1560 0122 FFF7FEFF 		bl	__aeabi_ddiv
 1561              	.LVL241:
 1562 0126 4CA3     		adr	r3, .L114+16
 1563 0128 D3E90023 		ldrd	r2, [r3]
 1564 012c FFF7FEFF 		bl	__aeabi_dmul
 1565              	.LVL242:
 1566 0130 0022     		movs	r2, #0
 1567 0132 504B     		ldr	r3, .L114+44
 1568 0134 FFF7FEFF 		bl	__aeabi_ddiv
ARM GAS  C:\Users\Daniel\AppData\Local\Temp\cczCpxmi.s 			page 38


 1569              	.LVL243:
 1570 0138 FFF7FEFF 		bl	cbrt
 1571              	.LVL244:
 1572 013c 0646     		mov	r6, r0
 1573 013e 0F46     		mov	r7, r1
 1574              	.LVL245:
 501:.\puck_functions.c ****                     if (angleTot-angle > -20) {
 1575              		.loc 1 501 0
 1576 0140 2046     		mov	r0, r4
 1577 0142 2946     		mov	r1, r5
 1578 0144 3246     		mov	r2, r6
 1579 0146 3B46     		mov	r3, r7
 1580 0148 FFF7FEFF 		bl	__aeabi_dsub
 1581              	.LVL246:
 1582 014c 0022     		movs	r2, #0
 1583 014e 4B4B     		ldr	r3, .L114+52
 1584 0150 FFF7FEFF 		bl	__aeabi_dcmpgt
 1585              	.LVL247:
 1586 0154 0028     		cmp	r0, #0
 1587 0156 6ED0     		beq	.L111
 502:.\puck_functions.c ****                         MovementPivotLeft(angle);
 1588              		.loc 1 502 0
 1589 0158 3046     		mov	r0, r6
 1590 015a 3946     		mov	r1, r7
 1591 015c FFF7FEFF 		bl	MovementPivotLeft
 1592              	.LVL248:
 503:.\puck_functions.c ****                         angleTot+=angle;
 1593              		.loc 1 503 0
 1594 0160 2046     		mov	r0, r4
 1595 0162 2946     		mov	r1, r5
 1596 0164 3246     		mov	r2, r6
 1597 0166 3B46     		mov	r3, r7
 1598 0168 FFF7FEFF 		bl	__aeabi_dadd
 1599              	.LVL249:
 1600 016c 0446     		mov	r4, r0
 1601              	.LVL250:
 1602 016e 0D46     		mov	r5, r1
 1603              	.LVL251:
 1604              	.L96:
 504:.\puck_functions.c ****                     } else {
 505:.\puck_functions.c ****                         //MovementBackward(1000);
 506:.\puck_functions.c ****                         return false;
 507:.\puck_functions.c ****                     }
 508:.\puck_functions.c ****                 }
 509:.\puck_functions.c ****                 //Rescan for new position.
 510:.\puck_functions.c ****                 CaptureFrameWithLights();
 1605              		.loc 1 510 0
 1606 0170 FFF7FEFF 		bl	CaptureFrameWithLights
 1607              	.LVL252:
 511:.\puck_functions.c ****                 canSee = CamIdenifyEndzonePuck(clr);
 1608              		.loc 1 511 0
 1609 0174 4846     		mov	r0, r9
 1610 0176 FFF7FEFF 		bl	CamIdenifyEndzonePuck
 1611              	.LVL253:
 512:.\puck_functions.c ****                 centreX = closestX-numCols/2;
 1612              		.loc 1 512 0
 1613 017a 394B     		ldr	r3, .L114+24
ARM GAS  C:\Users\Daniel\AppData\Local\Temp\cczCpxmi.s 			page 39


 1614 017c 1E88     		ldrh	r6, [r3]
 1615              	.LVL254:
 1616 017e C8EB0606 		rsb	r6, r8, r6
 1617              	.LVL255:
 513:.\puck_functions.c ****                 centreY = 240-closestY + CAMERA_Y_OFFSET;
 1618              		.loc 1 513 0
 1619 0182 394B     		ldr	r3, .L114+32
 1620 0184 B3F800A0 		ldrh	r10, [r3]
 1621              	.LVL256:
 1622 0188 CAF5C87A 		rsb	r10, r10, #400
 1623              	.LVL257:
 1624              	.L91:
 487:.\puck_functions.c ****                 if (centreX > 0) {
 1625              		.loc 1 487 0
 1626 018c 86EAE673 		eor	r3, r6, r6, asr #31
 1627 0190 A3EBE673 		sub	r3, r3, r6, asr #31
 1628 0194 082B     		cmp	r3, #8
 1629 0196 3FF771AF 		bgt	.L98
 514:.\puck_functions.c ****             }
 515:.\puck_functions.c ****             MovementForward(pow(((240.0-lowestY)/100),2)*100);
 1630              		.loc 1 515 0
 1631 019a 394B     		ldr	r3, .L114+56
 1632 019c 1888     		ldrh	r0, [r3]
 1633 019e FFF7FEFF 		bl	__aeabi_i2d
 1634              	.LVL258:
 1635 01a2 0246     		mov	r2, r0
 1636 01a4 0B46     		mov	r3, r1
 1637 01a6 0020     		movs	r0, #0
 1638 01a8 3649     		ldr	r1, .L114+60
 1639 01aa FFF7FEFF 		bl	__aeabi_dsub
 1640              	.LVL259:
 1641 01ae 0022     		movs	r2, #0
 1642 01b0 354B     		ldr	r3, .L114+64
 1643 01b2 FFF7FEFF 		bl	__aeabi_ddiv
 1644              	.LVL260:
 1645 01b6 0022     		movs	r2, #0
 1646 01b8 4FF08043 		mov	r3, #1073741824
 1647 01bc FFF7FEFF 		bl	pow
 1648              	.LVL261:
 1649 01c0 0022     		movs	r2, #0
 1650 01c2 314B     		ldr	r3, .L114+64
 1651 01c4 FFF7FEFF 		bl	__aeabi_dmul
 1652              	.LVL262:
 1653 01c8 FFF7FEFF 		bl	__aeabi_d2uiz
 1654              	.LVL263:
 1655 01cc 80B2     		uxth	r0, r0
 1656 01ce FFF7FEFF 		bl	MovementForward
 1657              	.LVL264:
 516:.\puck_functions.c ****             CaptureFrameWithLights();
 1658              		.loc 1 516 0
 1659 01d2 FFF7FEFF 		bl	CaptureFrameWithLights
 1660              	.LVL265:
 517:.\puck_functions.c ****             canSee = CamIdenifyEndzonePuck(clr);
 1661              		.loc 1 517 0
 1662 01d6 4846     		mov	r0, r9
 1663 01d8 FFF7FEFF 		bl	CamIdenifyEndzonePuck
 1664              	.LVL266:
ARM GAS  C:\Users\Daniel\AppData\Local\Temp\cczCpxmi.s 			page 40


 1665 01dc 0746     		mov	r7, r0
 1666              	.LVL267:
 518:.\puck_functions.c ****             centreX = closestX-numCols/2;
 1667              		.loc 1 518 0
 1668 01de 204B     		ldr	r3, .L114+24
 1669 01e0 1E88     		ldrh	r6, [r3]
 1670              	.LVL268:
 1671 01e2 C8EB0606 		rsb	r6, r8, r6
 1672              	.LVL269:
 519:.\puck_functions.c ****             centreY = 240-closestY + CAMERA_Y_OFFSET;
 1673              		.loc 1 519 0
 1674 01e6 204B     		ldr	r3, .L114+32
 1675 01e8 B3F800A0 		ldrh	r10, [r3]
 1676              	.LVL270:
 1677 01ec CAF5C87A 		rsb	r10, r10, #400
 1678              	.LVL271:
 1679 01f0 16E0     		b	.L90
 1680              	.L109:
 520:.\puck_functions.c ****         } else {
 521:.\puck_functions.c ****             //Close enough to stack?
 522:.\puck_functions.c ****             if (240 - lowestY < numRows*0.33 ){
 1681              		.loc 1 522 0
 1682 01f2 234B     		ldr	r3, .L114+56
 1683 01f4 1888     		ldrh	r0, [r3]
 1684 01f6 C0F1F000 		rsb	r0, r0, #240
 1685 01fa FFF7FEFF 		bl	__aeabi_i2d
 1686              	.LVL272:
 1687 01fe 0246     		mov	r2, r0
 1688 0200 0B46     		mov	r3, r1
 1689 0202 DDE90001 		ldrd	r0, [sp]
 1690 0206 FFF7FEFF 		bl	__aeabi_dcmpgt
 1691              	.LVL273:
 1692 020a 28B1     		cbz	r0, .L112
 523:.\puck_functions.c ****                 //Stack.
 524:.\puck_functions.c ****                 MovementForward(400);
 1693              		.loc 1 524 0
 1694 020c 4FF4C870 		mov	r0, #400
 1695 0210 FFF7FEFF 		bl	MovementForward
 1696              	.LVL274:
 525:.\puck_functions.c ****                 return true;
 1697              		.loc 1 525 0
 1698 0214 0120     		movs	r0, #1
 1699 0216 11E0     		b	.L94
 1700              	.L112:
 526:.\puck_functions.c ****             } else {
 527:.\puck_functions.c ****                 //Drive closer. SHOULDN'T EXECUTE.
 528:.\puck_functions.c ****                 MovementBackward(500);
 1701              		.loc 1 528 0
 1702 0218 4FF4FA70 		mov	r0, #500
 1703 021c FFF7FEFF 		bl	MovementBackward
 1704              	.LVL275:
 1705              	.L90:
 485:.\puck_functions.c ****         if(240-closestY > numRows*0.33){ //Align: CloseAquire uses 240-Y > 65...
 1706              		.loc 1 485 0
 1707 0220 002F     		cmp	r7, #0
 1708 0222 7FF40EAF 		bne	.L102
 529:.\puck_functions.c ****             }
ARM GAS  C:\Users\Daniel\AppData\Local\Temp\cczCpxmi.s 			page 41


 530:.\puck_functions.c ****                 
 531:.\puck_functions.c ****         }
 532:.\puck_functions.c ****     }
 533:.\puck_functions.c ****     if(!canSee) {
 1709              		.loc 1 533 0
 1710 0226 47B9     		cbnz	r7, .L105
 534:.\puck_functions.c ****         MovementBackward(100);
 1711              		.loc 1 534 0
 1712 0228 6420     		movs	r0, #100
 1713 022a FFF7FEFF 		bl	MovementBackward
 1714              	.LVL276:
 535:.\puck_functions.c ****         return false;
 1715              		.loc 1 535 0
 1716 022e 0020     		movs	r0, #0
 1717 0230 04E0     		b	.L94
 1718              	.LVL277:
 1719              	.L110:
 496:.\puck_functions.c ****                     }
 1720              		.loc 1 496 0
 1721 0232 0020     		movs	r0, #0
 1722 0234 02E0     		b	.L94
 1723              	.LVL278:
 1724              	.L111:
 506:.\puck_functions.c ****                     }
 1725              		.loc 1 506 0
 1726 0236 0020     		movs	r0, #0
 1727 0238 00E0     		b	.L94
 1728              	.LVL279:
 1729              	.L105:
 536:.\puck_functions.c ****     }
 537:.\puck_functions.c ****     return positioned;
 1730              		.loc 1 537 0
 1731 023a 0020     		movs	r0, #0
 1732              	.LVL280:
 1733              	.L94:
 538:.\puck_functions.c **** }
 1734              		.loc 1 538 0
 1735 023c 04B0     		add	sp, sp, #16
 1736              		.cfi_def_cfa_offset 32
 1737              		@ sp needed
 1738 023e BDE8F087 		pop	{r4, r5, r6, r7, r8, r9, r10, pc}
 1739              	.LVL281:
 1740              	.L115:
 1741 0242 00BFAFF3 		.align	3
 1741      0080
 1742              	.L114:
 1743 0248 1F85EB51 		.word	1374389535
 1744 024c B81ED53F 		.word	1070931640
 1745 0250 44174154 		.word	1413551940
 1746 0254 FB210940 		.word	1074340347
 1747 0258 9A999999 		.word	-1717986918
 1748 025c 9999D93F 		.word	1071225241
 1749 0260 00000000 		.word	closestX
 1750 0264 00000000 		.word	numCols
 1751 0268 00000000 		.word	closestY
 1752 026c 00000000 		.word	numRows
 1753 0270 00806640 		.word	1080459264
ARM GAS  C:\Users\Daniel\AppData\Local\Temp\cczCpxmi.s 			page 42


 1754 0274 00000840 		.word	1074266112
 1755 0278 00003440 		.word	1077149696
 1756 027c 000034C0 		.word	-1070333952
 1757 0280 00000000 		.word	lowestY
 1758 0284 00006E40 		.word	1080950784
 1759 0288 00005940 		.word	1079574528
 1760              		.cfi_endproc
 1761              	.LFE72:
 1762              		.size	PuckPositionToStack2, .-PuckPositionToStack2
 1763 028c AFF30080 		.section	.text.PuckPositionToStack,"ax",%progbits
 1764              		.align	2
 1765              		.global	PuckPositionToStack
 1766              		.thumb
 1767              		.thumb_func
 1768              		.type	PuckPositionToStack, %function
 1769              	PuckPositionToStack:
 1770              	.LFB71:
 399:.\puck_functions.c ****     //clr == Colour --> R,G,B == 0,1,2.
 1771              		.loc 1 399 0
 1772              		.cfi_startproc
 1773              		@ args = 0, pretend = 0, frame = 0
 1774              		@ frame_needed = 0, uses_anonymous_args = 0
 1775              	.LVL282:
 1776 0000 2DE9F84F 		push	{r3, r4, r5, r6, r7, r8, r9, r10, fp, lr}
 1777              		.cfi_def_cfa_offset 40
 1778              		.cfi_offset 3, -40
 1779              		.cfi_offset 4, -36
 1780              		.cfi_offset 5, -32
 1781              		.cfi_offset 6, -28
 1782              		.cfi_offset 7, -24
 1783              		.cfi_offset 8, -20
 1784              		.cfi_offset 9, -16
 1785              		.cfi_offset 10, -12
 1786              		.cfi_offset 11, -8
 1787              		.cfi_offset 14, -4
 1788 0004 0546     		mov	r5, r0
 402:.\puck_functions.c ****     CyDelay(200);
 1789              		.loc 1 402 0
 1790 0006 FFF7FEFF 		bl	PanMid
 1791              	.LVL283:
 403:.\puck_functions.c ****     TiltDown45();
 1792              		.loc 1 403 0
 1793 000a C820     		movs	r0, #200
 1794 000c FFF7FEFF 		bl	CyDelay
 1795              	.LVL284:
 404:.\puck_functions.c ****     CyDelay(200);
 1796              		.loc 1 404 0
 1797 0010 FFF7FEFF 		bl	TiltDown45
 1798              	.LVL285:
 405:.\puck_functions.c ****     
 1799              		.loc 1 405 0
 1800 0014 C820     		movs	r0, #200
 1801 0016 FFF7FEFF 		bl	CyDelay
 1802              	.LVL286:
 407:.\puck_functions.c ****     CyDelay(20);
 1803              		.loc 1 407 0
 1804 001a A220     		movs	r0, #162
ARM GAS  C:\Users\Daniel\AppData\Local\Temp\cczCpxmi.s 			page 43


 1805 001c FFF7FEFF 		bl	PWM_Tilt_WriteCompare
 1806              	.LVL287:
 408:.\puck_functions.c ****     //Hold Weighting Sums & Colours.
 1807              		.loc 1 408 0
 1808 0020 1420     		movs	r0, #20
 1809 0022 FFF7FEFF 		bl	CyDelay
 1810              	.LVL288:
 414:.\puck_functions.c ****     Yend = CamIdenifyEndzonePuck(clr);
 1811              		.loc 1 414 0
 1812 0026 FFF7FEFF 		bl	CaptureFrameWithLights
 1813              	.LVL289:
 415:.\puck_functions.c ****     centreX = closestX-numCols/2;
 1814              		.loc 1 415 0
 1815 002a 2846     		mov	r0, r5
 1816 002c FFF7FEFF 		bl	CamIdenifyEndzonePuck
 1817              	.LVL290:
 416:.\puck_functions.c ****     centreY = 240-closestY + CAMERA_Y_OFFSET;
 1818              		.loc 1 416 0
 1819 0030 A94B     		ldr	r3, .L131+32
 1820 0032 B3F80090 		ldrh	r9, [r3]
 1821 0036 A94B     		ldr	r3, .L131+36
 1822 0038 1B88     		ldrh	r3, [r3]
 1823 003a A9EB5309 		sub	r9, r9, r3, lsr #1
 1824              	.LVL291:
 417:.\puck_functions.c ****     
 1825              		.loc 1 417 0
 1826 003e A84B     		ldr	r3, .L131+40
 1827 0040 1C88     		ldrh	r4, [r3]
 1828 0042 C4F5C874 		rsb	r4, r4, #400
 1829              	.LVL292:
 419:.\puck_functions.c ****     while (!positioned){
 1830              		.loc 1 419 0
 1831 0046 4FF00008 		mov	r8, #0
 420:.\puck_functions.c ****         if(240-closestY > numRows*3.0/8.0){ //Align: CloseAquire uses 240-Y > 65...
 1832              		.loc 1 420 0
 1833 004a 2EE1     		b	.L117
 1834              	.LVL293:
 1835              	.L126:
 421:.\puck_functions.c ****             while(abs(centreX) > 8) { //Keep turning untill we get a decent alignment //(abs(closes
 1836              		.loc 1 421 0
 1837 004c A44B     		ldr	r3, .L131+40
 1838 004e 1888     		ldrh	r0, [r3]
 1839 0050 C0F1F000 		rsb	r0, r0, #240
 1840 0054 FFF7FEFF 		bl	__aeabi_i2d
 1841              	.LVL294:
 1842 0058 0646     		mov	r6, r0
 1843 005a 0F46     		mov	r7, r1
 1844 005c A14B     		ldr	r3, .L131+44
 1845 005e 1878     		ldrb	r0, [r3]	@ zero_extendqisi2
 1846 0060 FFF7FEFF 		bl	__aeabi_i2d
 1847              	.LVL295:
 1848 0064 8246     		mov	r10, r0
 1849 0066 8B46     		mov	fp, r1
 1850 0068 0022     		movs	r2, #0
 1851 006a 9F4B     		ldr	r3, .L131+48
 1852 006c FFF7FEFF 		bl	__aeabi_dmul
 1853              	.LVL296:
ARM GAS  C:\Users\Daniel\AppData\Local\Temp\cczCpxmi.s 			page 44


 1854 0070 0022     		movs	r2, #0
 1855 0072 4FF07F53 		mov	r3, #1069547520
 1856 0076 FFF7FEFF 		bl	__aeabi_dmul
 1857              	.LVL297:
 1858 007a 0246     		mov	r2, r0
 1859 007c 0B46     		mov	r3, r1
 1860 007e 3046     		mov	r0, r6
 1861 0080 3946     		mov	r1, r7
 1862 0082 FFF7FEFF 		bl	__aeabi_dcmpgt
 1863              	.LVL298:
 1864 0086 0028     		cmp	r0, #0
 1865 0088 7DD1     		bne	.L118
 1866 008a B1E0     		b	.L128
 1867              	.L122:
 423:.\puck_functions.c ****                     XYRatio = ((double)(centreX))/(centreY);
 1868              		.loc 1 423 0
 1869 008c B9F1000F 		cmp	r9, #0
 1870 0090 34DD     		ble	.L120
 424:.\puck_functions.c ****                     angle = cbrt((atan(XYRatio)*180)/PI*corrFact*0.8);
 1871              		.loc 1 424 0
 1872 0092 4846     		mov	r0, r9
 1873 0094 FFF7FEFF 		bl	__aeabi_i2d
 1874              	.LVL299:
 1875 0098 0646     		mov	r6, r0
 1876 009a 0F46     		mov	r7, r1
 1877 009c 2046     		mov	r0, r4
 1878 009e FFF7FEFF 		bl	__aeabi_i2d
 1879              	.LVL300:
 1880 00a2 0246     		mov	r2, r0
 1881 00a4 0B46     		mov	r3, r1
 1882 00a6 3046     		mov	r0, r6
 1883 00a8 3946     		mov	r1, r7
 1884 00aa FFF7FEFF 		bl	__aeabi_ddiv
 1885              	.LVL301:
 425:.\puck_functions.c ****                     MovementPivotRight(angle);
 1886              		.loc 1 425 0
 1887 00ae FFF7FEFF 		bl	atan
 1888              	.LVL302:
 1889 00b2 0022     		movs	r2, #0
 1890 00b4 8D4B     		ldr	r3, .L131+52
 1891 00b6 FFF7FEFF 		bl	__aeabi_dmul
 1892              	.LVL303:
 1893 00ba 7FA3     		adr	r3, .L131
 1894 00bc D3E90023 		ldrd	r2, [r3]
 1895 00c0 FFF7FEFF 		bl	__aeabi_ddiv
 1896              	.LVL304:
 1897 00c4 7EA3     		adr	r3, .L131+8
 1898 00c6 D3E90023 		ldrd	r2, [r3]
 1899 00ca FFF7FEFF 		bl	__aeabi_dmul
 1900              	.LVL305:
 1901 00ce 7EA3     		adr	r3, .L131+16
 1902 00d0 D3E90023 		ldrd	r2, [r3]
 1903 00d4 FFF7FEFF 		bl	__aeabi_dmul
 1904              	.LVL306:
 1905 00d8 FFF7FEFF 		bl	cbrt
 1906              	.LVL307:
 1907 00dc 0646     		mov	r6, r0
ARM GAS  C:\Users\Daniel\AppData\Local\Temp\cczCpxmi.s 			page 45


 1908 00de 0F46     		mov	r7, r1
 1909              	.LVL308:
 426:.\puck_functions.c ****                     angleTotal+=angle;
 1910              		.loc 1 426 0
 1911 00e0 FFF7FEFF 		bl	MovementPivotRight
 1912              	.LVL309:
 427:.\puck_functions.c ****                 } else { //centreX < 0
 1913              		.loc 1 427 0
 1914 00e4 824C     		ldr	r4, .L131+56
 1915              	.LVL310:
 1916 00e6 2088     		ldrh	r0, [r4]
 1917 00e8 FFF7FEFF 		bl	__aeabi_i2d
 1918              	.LVL311:
 1919 00ec 3246     		mov	r2, r6
 1920 00ee 3B46     		mov	r3, r7
 1921 00f0 FFF7FEFF 		bl	__aeabi_dadd
 1922              	.LVL312:
 1923 00f4 FFF7FEFF 		bl	__aeabi_d2uiz
 1924              	.LVL313:
 1925 00f8 2080     		strh	r0, [r4]	@ movhi
 1926 00fa 34E0     		b	.L121
 1927              	.LVL314:
 1928              	.L120:
 429:.\puck_functions.c ****                     angle = cbrt((atan(XYRatio)*180)/PI*corrFact*0.8);
 1929              		.loc 1 429 0
 1930 00fc C9F10000 		rsb	r0, r9, #0
 1931 0100 FFF7FEFF 		bl	__aeabi_i2d
 1932              	.LVL315:
 1933 0104 0646     		mov	r6, r0
 1934 0106 0F46     		mov	r7, r1
 1935 0108 2046     		mov	r0, r4
 1936 010a FFF7FEFF 		bl	__aeabi_i2d
 1937              	.LVL316:
 1938 010e 0246     		mov	r2, r0
 1939 0110 0B46     		mov	r3, r1
 1940 0112 3046     		mov	r0, r6
 1941 0114 3946     		mov	r1, r7
 1942 0116 FFF7FEFF 		bl	__aeabi_ddiv
 1943              	.LVL317:
 430:.\puck_functions.c ****                     MovementPivotLeft(angle);
 1944              		.loc 1 430 0
 1945 011a FFF7FEFF 		bl	atan
 1946              	.LVL318:
 1947 011e 0022     		movs	r2, #0
 1948 0120 724B     		ldr	r3, .L131+52
 1949 0122 FFF7FEFF 		bl	__aeabi_dmul
 1950              	.LVL319:
 1951 0126 64A3     		adr	r3, .L131
 1952 0128 D3E90023 		ldrd	r2, [r3]
 1953 012c FFF7FEFF 		bl	__aeabi_ddiv
 1954              	.LVL320:
 1955 0130 63A3     		adr	r3, .L131+8
 1956 0132 D3E90023 		ldrd	r2, [r3]
 1957 0136 FFF7FEFF 		bl	__aeabi_dmul
 1958              	.LVL321:
 1959 013a 63A3     		adr	r3, .L131+16
 1960 013c D3E90023 		ldrd	r2, [r3]
ARM GAS  C:\Users\Daniel\AppData\Local\Temp\cczCpxmi.s 			page 46


 1961 0140 FFF7FEFF 		bl	__aeabi_dmul
 1962              	.LVL322:
 1963 0144 FFF7FEFF 		bl	cbrt
 1964              	.LVL323:
 1965 0148 0646     		mov	r6, r0
 1966 014a 0F46     		mov	r7, r1
 1967              	.LVL324:
 431:.\puck_functions.c ****                     angleTotal+=angle;
 1968              		.loc 1 431 0
 1969 014c FFF7FEFF 		bl	MovementPivotLeft
 1970              	.LVL325:
 432:.\puck_functions.c ****                 }
 1971              		.loc 1 432 0
 1972 0150 674C     		ldr	r4, .L131+56
 1973              	.LVL326:
 1974 0152 2088     		ldrh	r0, [r4]
 1975 0154 FFF7FEFF 		bl	__aeabi_i2d
 1976              	.LVL327:
 1977 0158 3246     		mov	r2, r6
 1978 015a 3B46     		mov	r3, r7
 1979 015c FFF7FEFF 		bl	__aeabi_dadd
 1980              	.LVL328:
 1981 0160 FFF7FEFF 		bl	__aeabi_d2uiz
 1982              	.LVL329:
 1983 0164 2080     		strh	r0, [r4]	@ movhi
 1984              	.L121:
 435:.\puck_functions.c ****                 Yend = CamIdenifyEndzonePuck(clr);
 1985              		.loc 1 435 0
 1986 0166 FFF7FEFF 		bl	CaptureFrameWithLights
 1987              	.LVL330:
 436:.\puck_functions.c ****                 centreX = closestX-numCols/2;
 1988              		.loc 1 436 0
 1989 016a 2846     		mov	r0, r5
 1990 016c FFF7FEFF 		bl	CamIdenifyEndzonePuck
 1991              	.LVL331:
 437:.\puck_functions.c ****                 centreY = 240-closestY + CAMERA_Y_OFFSET;
 1992              		.loc 1 437 0
 1993 0170 594B     		ldr	r3, .L131+32
 1994 0172 B3F80090 		ldrh	r9, [r3]
 1995              	.LVL332:
 1996 0176 594B     		ldr	r3, .L131+36
 1997 0178 1B88     		ldrh	r3, [r3]
 1998 017a A9EB5309 		sub	r9, r9, r3, lsr #1
 1999              	.LVL333:
 438:.\puck_functions.c ****             }
 2000              		.loc 1 438 0
 2001 017e 584B     		ldr	r3, .L131+40
 2002 0180 1C88     		ldrh	r4, [r3]
 2003 0182 C4F5C874 		rsb	r4, r4, #400
 2004              	.LVL334:
 2005              	.L118:
 422:.\puck_functions.c ****                 if (centreX > 0) {
 2006              		.loc 1 422 0
 2007 0186 89EAE973 		eor	r3, r9, r9, asr #31
 2008 018a A3EBE973 		sub	r3, r3, r9, asr #31
 2009 018e 082B     		cmp	r3, #8
 2010 0190 3FF77CAF 		bgt	.L122
ARM GAS  C:\Users\Daniel\AppData\Local\Temp\cczCpxmi.s 			page 47


 440:.\puck_functions.c ****             CaptureFrameWithLights();
 2011              		.loc 1 440 0
 2012 0194 574B     		ldr	r3, .L131+60
 2013 0196 1888     		ldrh	r0, [r3]
 2014 0198 FFF7FEFF 		bl	__aeabi_i2d
 2015              	.LVL335:
 2016 019c 0246     		mov	r2, r0
 2017 019e 0B46     		mov	r3, r1
 2018 01a0 0020     		movs	r0, #0
 2019 01a2 5549     		ldr	r1, .L131+64
 2020 01a4 FFF7FEFF 		bl	__aeabi_dsub
 2021              	.LVL336:
 2022 01a8 0022     		movs	r2, #0
 2023 01aa 544B     		ldr	r3, .L131+68
 2024 01ac FFF7FEFF 		bl	__aeabi_ddiv
 2025              	.LVL337:
 2026 01b0 0022     		movs	r2, #0
 2027 01b2 4FF08043 		mov	r3, #1073741824
 2028 01b6 FFF7FEFF 		bl	pow
 2029              	.LVL338:
 2030 01ba 45A3     		adr	r3, .L131+24
 2031 01bc D3E90023 		ldrd	r2, [r3]
 2032 01c0 FFF7FEFF 		bl	__aeabi_dmul
 2033              	.LVL339:
 2034 01c4 FFF7FEFF 		bl	__aeabi_d2uiz
 2035              	.LVL340:
 2036 01c8 80B2     		uxth	r0, r0
 2037 01ca FFF7FEFF 		bl	MovementForward
 2038              	.LVL341:
 441:.\puck_functions.c ****             Yend = CamIdenifyEndzonePuck(clr);
 2039              		.loc 1 441 0
 2040 01ce FFF7FEFF 		bl	CaptureFrameWithLights
 2041              	.LVL342:
 442:.\puck_functions.c ****             centreX = closestX-numCols/2;
 2042              		.loc 1 442 0
 2043 01d2 2846     		mov	r0, r5
 2044 01d4 FFF7FEFF 		bl	CamIdenifyEndzonePuck
 2045              	.LVL343:
 443:.\puck_functions.c ****             centreY = 240-closestY + CAMERA_Y_OFFSET;
 2046              		.loc 1 443 0
 2047 01d8 3F4B     		ldr	r3, .L131+32
 2048 01da B3F80090 		ldrh	r9, [r3]
 2049              	.LVL344:
 2050 01de 3F4B     		ldr	r3, .L131+36
 2051 01e0 1B88     		ldrh	r3, [r3]
 2052 01e2 A9EB5309 		sub	r9, r9, r3, lsr #1
 2053              	.LVL345:
 444:.\puck_functions.c ****         } else {
 2054              		.loc 1 444 0
 2055 01e6 3E4B     		ldr	r3, .L131+40
 2056 01e8 1C88     		ldrh	r4, [r3]
 2057              	.LVL346:
 2058 01ea C4F5C874 		rsb	r4, r4, #400
 2059              	.LVL347:
 2060 01ee 5CE0     		b	.L117
 2061              	.L128:
 447:.\puck_functions.c ****                 //Stack.
ARM GAS  C:\Users\Daniel\AppData\Local\Temp\cczCpxmi.s 			page 48


 2062              		.loc 1 447 0
 2063 01f0 404B     		ldr	r3, .L131+60
 2064 01f2 1C88     		ldrh	r4, [r3]
 2065              	.LVL348:
 2066 01f4 C4F1F000 		rsb	r0, r4, #240
 2067 01f8 FFF7FEFF 		bl	__aeabi_i2d
 2068              	.LVL349:
 2069 01fc 0646     		mov	r6, r0
 2070 01fe 0F46     		mov	r7, r1
 2071 0200 5046     		mov	r0, r10
 2072 0202 5946     		mov	r1, fp
 2073 0204 0022     		movs	r2, #0
 2074 0206 4FF07F53 		mov	r3, #1069547520
 2075 020a FFF7FEFF 		bl	__aeabi_dmul
 2076              	.LVL350:
 2077 020e 0246     		mov	r2, r0
 2078 0210 0B46     		mov	r3, r1
 2079 0212 3046     		mov	r0, r6
 2080 0214 3946     		mov	r1, r7
 2081 0216 FFF7FEFF 		bl	__aeabi_dcmplt
 2082              	.LVL351:
 2083 021a D0B1     		cbz	r0, .L129
 449:.\puck_functions.c ****                 PWM_Tilt_WriteCompare(162);
 2084              		.loc 1 449 0
 2085 021c 2846     		mov	r0, r5
 2086 021e FFF7FEFF 		bl	PuckPositionToStack2
 2087              	.LVL352:
 2088 0222 8046     		mov	r8, r0
 2089              	.LVL353:
 450:.\puck_functions.c ****                 CyDelay(200);
 2090              		.loc 1 450 0
 2091 0224 A220     		movs	r0, #162
 2092 0226 FFF7FEFF 		bl	PWM_Tilt_WriteCompare
 2093              	.LVL354:
 451:.\puck_functions.c ****                 CaptureFrameWithLights();
 2094              		.loc 1 451 0
 2095 022a C820     		movs	r0, #200
 2096 022c FFF7FEFF 		bl	CyDelay
 2097              	.LVL355:
 452:.\puck_functions.c ****                 Yend = CamIdenifyEndzonePuck(clr);
 2098              		.loc 1 452 0
 2099 0230 FFF7FEFF 		bl	CaptureFrameWithLights
 2100              	.LVL356:
 453:.\puck_functions.c ****                 centreX = closestX-numCols/2;
 2101              		.loc 1 453 0
 2102 0234 2846     		mov	r0, r5
 2103 0236 FFF7FEFF 		bl	CamIdenifyEndzonePuck
 2104              	.LVL357:
 454:.\puck_functions.c ****                 centreY = 240-closestY + CAMERA_Y_OFFSET;
 2105              		.loc 1 454 0
 2106 023a 274B     		ldr	r3, .L131+32
 2107 023c B3F80090 		ldrh	r9, [r3]
 2108              	.LVL358:
 2109 0240 264B     		ldr	r3, .L131+36
 2110 0242 1B88     		ldrh	r3, [r3]
 2111 0244 A9EB5309 		sub	r9, r9, r3, lsr #1
 2112              	.LVL359:
ARM GAS  C:\Users\Daniel\AppData\Local\Temp\cczCpxmi.s 			page 49


 455:.\puck_functions.c ****             } else {
 2113              		.loc 1 455 0
 2114 0248 254B     		ldr	r3, .L131+40
 2115 024a 1C88     		ldrh	r4, [r3]
 2116 024c C4F5C874 		rsb	r4, r4, #400
 2117              	.LVL360:
 2118 0250 2BE0     		b	.L117
 2119              	.LVL361:
 2120              	.L129:
 458:.\puck_functions.c ****                 CaptureFrameWithLights();
 2121              		.loc 1 458 0
 2122 0252 2046     		mov	r0, r4
 2123 0254 FFF7FEFF 		bl	__aeabi_i2d
 2124              	.LVL362:
 2125 0258 0246     		mov	r2, r0
 2126 025a 0B46     		mov	r3, r1
 2127 025c 0020     		movs	r0, #0
 2128 025e 2649     		ldr	r1, .L131+64
 2129 0260 FFF7FEFF 		bl	__aeabi_dsub
 2130              	.LVL363:
 2131 0264 0022     		movs	r2, #0
 2132 0266 264B     		ldr	r3, .L131+72
 2133 0268 FFF7FEFF 		bl	__aeabi_ddiv
 2134              	.LVL364:
 2135 026c 0022     		movs	r2, #0
 2136 026e 4FF08043 		mov	r3, #1073741824
 2137 0272 FFF7FEFF 		bl	pow
 2138              	.LVL365:
 2139 0276 16A3     		adr	r3, .L131+24
 2140 0278 D3E90023 		ldrd	r2, [r3]
 2141 027c FFF7FEFF 		bl	__aeabi_dmul
 2142              	.LVL366:
 2143 0280 FFF7FEFF 		bl	__aeabi_d2uiz
 2144              	.LVL367:
 2145 0284 80B2     		uxth	r0, r0
 2146 0286 FFF7FEFF 		bl	MovementForward
 2147              	.LVL368:
 459:.\puck_functions.c ****                 Yend = CamIdenifyEndzonePuck(clr);
 2148              		.loc 1 459 0
 2149 028a FFF7FEFF 		bl	CaptureFrameWithLights
 2150              	.LVL369:
 460:.\puck_functions.c ****                 centreX = closestX-numCols/2;
 2151              		.loc 1 460 0
 2152 028e 2846     		mov	r0, r5
 2153 0290 FFF7FEFF 		bl	CamIdenifyEndzonePuck
 2154              	.LVL370:
 461:.\puck_functions.c ****                 centreY = 240-closestY + CAMERA_Y_OFFSET;
 2155              		.loc 1 461 0
 2156 0294 104B     		ldr	r3, .L131+32
 2157 0296 B3F80090 		ldrh	r9, [r3]
 2158              	.LVL371:
 2159 029a 104B     		ldr	r3, .L131+36
 2160 029c 1B88     		ldrh	r3, [r3]
 2161 029e A9EB5309 		sub	r9, r9, r3, lsr #1
 2162              	.LVL372:
 462:.\puck_functions.c ****             }
 2163              		.loc 1 462 0
ARM GAS  C:\Users\Daniel\AppData\Local\Temp\cczCpxmi.s 			page 50


 2164 02a2 0F4B     		ldr	r3, .L131+40
 2165 02a4 1C88     		ldrh	r4, [r3]
 2166 02a6 C4F5C874 		rsb	r4, r4, #400
 2167              	.LVL373:
 2168              	.L117:
 420:.\puck_functions.c ****         if(240-closestY > numRows*3.0/8.0){ //Align: CloseAquire uses 240-Y > 65...
 2169              		.loc 1 420 0
 2170 02aa B8F1000F 		cmp	r8, #0
 2171 02ae 3FF4CDAE 		beq	.L126
 467:.\puck_functions.c **** 
 2172              		.loc 1 467 0
 2173 02b2 BDE8F88F 		pop	{r3, r4, r5, r6, r7, r8, r9, r10, fp, pc}
 2174              	.LVL374:
 2175              	.L132:
 2176 02b6 00BF     		.align	3
 2177              	.L131:
 2178 02b8 44174154 		.word	1413551940
 2179 02bc FB210940 		.word	1074340347
 2180 02c0 9A999999 		.word	-1717986918
 2181 02c4 9999D93F 		.word	1071225241
 2182 02c8 9A999999 		.word	-1717986918
 2183 02cc 9999E93F 		.word	1072273817
 2184 02d0 00000000 		.word	0
 2185 02d4 00C07240 		.word	1081262080
 2186 02d8 00000000 		.word	closestX
 2187 02dc 00000000 		.word	numCols
 2188 02e0 00000000 		.word	closestY
 2189 02e4 00000000 		.word	numRows
 2190 02e8 00000840 		.word	1074266112
 2191 02ec 00806640 		.word	1080459264
 2192 02f0 00000000 		.word	.LANCHOR0
 2193 02f4 00000000 		.word	lowestY
 2194 02f8 00006E40 		.word	1080950784
 2195 02fc 00004E40 		.word	1078853632
 2196 0300 00805640 		.word	1079410688
 2197              		.cfi_endproc
 2198              	.LFE71:
 2199              		.size	PuckPositionToStack, .-PuckPositionToStack
 2200              		.global	angleTotal
 2201              		.global	corrFact
 2202              		.global	PI
 2203              		.global	CAMERA_X_OFFSET
 2204              		.global	CAMERA_Y_OFFSET
 2205              		.comm	display_mode,1,1
 2206              		.comm	Camera_linebuffer,640,4
 2207 0304 AFF30080 		.section	.rodata
 2208              		.align	3
 2209              		.type	corrFact, %object
 2210              		.size	corrFact, 8
 2211              	corrFact:
 2212 0000 9A999999 		.word	-1717986918
 2213 0004 9999D93F 		.word	1071225241
 2214              		.type	PI, %object
 2215              		.size	PI, 8
 2216              	PI:
 2217 0008 44174154 		.word	1413551940
 2218 000c FB210940 		.word	1074340347
ARM GAS  C:\Users\Daniel\AppData\Local\Temp\cczCpxmi.s 			page 51


 2219              		.type	CAMERA_X_OFFSET, %object
 2220              		.size	CAMERA_X_OFFSET, 1
 2221              	CAMERA_X_OFFSET:
 2222 0010 0A       		.byte	10
 2223              		.type	CAMERA_Y_OFFSET, %object
 2224              		.size	CAMERA_Y_OFFSET, 1
 2225              	CAMERA_Y_OFFSET:
 2226 0011 A0       		.byte	-96
 2227 0012 00000000 		.bss
 2227      0000
 2228              		.align	1
 2229              		.set	.LANCHOR0,. + 0
 2230              		.type	angleTotal, %object
 2231              		.size	angleTotal, 2
 2232              	angleTotal:
 2233 0000 0000     		.space	2
 2234              		.text
 2235              	.Letext0:
 2236              		.file 2 "c:\\program files (x86)\\cypress\\psoc creator\\3.3\\psoc creator\\import\\gnu\\arm\\4.9.
 2237              		.file 3 "c:\\program files (x86)\\cypress\\psoc creator\\3.3\\psoc creator\\import\\gnu\\arm\\4.9.
 2238              		.file 4 "Generated_Source\\PSoC5/cytypes.h"
 2239              		.file 5 "Generated_Source\\PSoC5/core_cm3.h"
 2240              		.file 6 "Generated_Source\\PSoC5/Camera.h"
 2241              		.file 7 ".\\camera_display.h"
 2242              		.file 8 ".\\pwm_functions.h"
 2243              		.file 9 ".\\utils.h"
 2244              		.file 10 "Generated_Source\\PSoC5/CyLib.h"
 2245              		.file 11 ".\\movement_functions.h"
 2246              		.file 12 ".\\camera_functions.h"
 2247              		.file 13 "c:\\program files (x86)\\cypress\\psoc creator\\3.3\\psoc creator\\import\\gnu\\arm\\4.9
 2248              		.file 14 "Generated_Source\\PSoC5/PWM_Tilt.h"
 2249              		.section	.debug_info,"",%progbits
 2250              	.Ldebug_info0:
 2251 0000 9C100000 		.4byte	0x109c
 2252 0004 0400     		.2byte	0x4
 2253 0006 00000000 		.4byte	.Ldebug_abbrev0
 2254 000a 04       		.byte	0x4
 2255 000b 01       		.uleb128 0x1
 2256 000c F2030000 		.4byte	.LASF83
 2257 0010 01       		.byte	0x1
 2258 0011 39020000 		.4byte	.LASF84
 2259 0015 36010000 		.4byte	.LASF85
 2260 0019 18000000 		.4byte	.Ldebug_ranges0+0x18
 2261 001d 00000000 		.4byte	0
 2262 0021 00000000 		.4byte	.Ldebug_line0
 2263 0025 02       		.uleb128 0x2
 2264 0026 01       		.byte	0x1
 2265 0027 06       		.byte	0x6
 2266 0028 F4020000 		.4byte	.LASF0
 2267 002c 02       		.uleb128 0x2
 2268 002d 01       		.byte	0x1
 2269 002e 08       		.byte	0x8
 2270 002f F3010000 		.4byte	.LASF1
 2271 0033 02       		.uleb128 0x2
 2272 0034 02       		.byte	0x2
 2273 0035 05       		.byte	0x5
 2274 0036 93000000 		.4byte	.LASF2
ARM GAS  C:\Users\Daniel\AppData\Local\Temp\cczCpxmi.s 			page 52


 2275 003a 02       		.uleb128 0x2
 2276 003b 02       		.byte	0x2
 2277 003c 07       		.byte	0x7
 2278 003d E1020000 		.4byte	.LASF3
 2279 0041 03       		.uleb128 0x3
 2280 0042 E8030000 		.4byte	.LASF9
 2281 0046 02       		.byte	0x2
 2282 0047 3F       		.byte	0x3f
 2283 0048 4C000000 		.4byte	0x4c
 2284 004c 02       		.uleb128 0x2
 2285 004d 04       		.byte	0x4
 2286 004e 05       		.byte	0x5
 2287 004f 27030000 		.4byte	.LASF4
 2288 0053 02       		.uleb128 0x2
 2289 0054 04       		.byte	0x4
 2290 0055 07       		.byte	0x7
 2291 0056 9E030000 		.4byte	.LASF5
 2292 005a 02       		.uleb128 0x2
 2293 005b 08       		.byte	0x8
 2294 005c 05       		.byte	0x5
 2295 005d 7F010000 		.4byte	.LASF6
 2296 0061 02       		.uleb128 0x2
 2297 0062 08       		.byte	0x8
 2298 0063 07       		.byte	0x7
 2299 0064 7D020000 		.4byte	.LASF7
 2300 0068 04       		.uleb128 0x4
 2301 0069 04       		.byte	0x4
 2302 006a 05       		.byte	0x5
 2303 006b 696E7400 		.ascii	"int\000"
 2304 006f 02       		.uleb128 0x2
 2305 0070 04       		.byte	0x4
 2306 0071 07       		.byte	0x7
 2307 0072 94020000 		.4byte	.LASF8
 2308 0076 03       		.uleb128 0x3
 2309 0077 30030000 		.4byte	.LASF10
 2310 007b 03       		.byte	0x3
 2311 007c 2C       		.byte	0x2c
 2312 007d 41000000 		.4byte	0x41
 2313 0081 05       		.uleb128 0x5
 2314 0082 CB000000 		.4byte	.LASF11
 2315 0086 04       		.byte	0x4
 2316 0087 9201     		.2byte	0x192
 2317 0089 2C000000 		.4byte	0x2c
 2318 008d 05       		.uleb128 0x5
 2319 008e AD000000 		.4byte	.LASF12
 2320 0092 04       		.byte	0x4
 2321 0093 9301     		.2byte	0x193
 2322 0095 3A000000 		.4byte	0x3a
 2323 0099 05       		.uleb128 0x5
 2324 009a 82030000 		.4byte	.LASF13
 2325 009e 04       		.byte	0x4
 2326 009f 9401     		.2byte	0x194
 2327 00a1 53000000 		.4byte	0x53
 2328 00a5 05       		.uleb128 0x5
 2329 00a6 CD010000 		.4byte	.LASF14
 2330 00aa 04       		.byte	0x4
 2331 00ab 9501     		.2byte	0x195
ARM GAS  C:\Users\Daniel\AppData\Local\Temp\cczCpxmi.s 			page 53


 2332 00ad 25000000 		.4byte	0x25
 2333 00b1 02       		.uleb128 0x2
 2334 00b2 04       		.byte	0x4
 2335 00b3 04       		.byte	0x4
 2336 00b4 2B010000 		.4byte	.LASF15
 2337 00b8 02       		.uleb128 0x2
 2338 00b9 08       		.byte	0x8
 2339 00ba 04       		.byte	0x4
 2340 00bb B0030000 		.4byte	.LASF16
 2341 00bf 02       		.uleb128 0x2
 2342 00c0 01       		.byte	0x1
 2343 00c1 08       		.byte	0x8
 2344 00c2 0E030000 		.4byte	.LASF17
 2345 00c6 02       		.uleb128 0x2
 2346 00c7 04       		.byte	0x4
 2347 00c8 07       		.byte	0x7
 2348 00c9 5D000000 		.4byte	.LASF18
 2349 00cd 02       		.uleb128 0x2
 2350 00ce 08       		.byte	0x8
 2351 00cf 04       		.byte	0x4
 2352 00d0 0C020000 		.4byte	.LASF19
 2353 00d4 06       		.uleb128 0x6
 2354 00d5 01       		.byte	0x1
 2355 00d6 07       		.byte	0x7
 2356 00d7 1D       		.byte	0x1d
 2357 00d8 EF000000 		.4byte	0xef
 2358 00dc 07       		.uleb128 0x7
 2359 00dd ED010000 		.4byte	.LASF20
 2360 00e1 00       		.sleb128 0
 2361 00e2 07       		.uleb128 0x7
 2362 00e3 0D000000 		.4byte	.LASF21
 2363 00e7 01       		.sleb128 1
 2364 00e8 07       		.uleb128 0x7
 2365 00e9 AD010000 		.4byte	.LASF22
 2366 00ed 02       		.sleb128 2
 2367 00ee 00       		.byte	0
 2368 00ef 08       		.uleb128 0x8
 2369 00f0 38030000 		.4byte	.LASF26
 2370 00f4 01       		.byte	0x1
 2371 00f5 3C       		.byte	0x3c
 2372 00f6 BB010000 		.4byte	0x1bb
 2373 00fa 00000000 		.4byte	.LFB63
 2374 00fe 8C000000 		.4byte	.LFE63-.LFB63
 2375 0102 01       		.uleb128 0x1
 2376 0103 9C       		.byte	0x9c
 2377 0104 BB010000 		.4byte	0x1bb
 2378 0108 09       		.uleb128 0x9
 2379 0109 636C7200 		.ascii	"clr\000"
 2380 010d 01       		.byte	0x1
 2381 010e 3C       		.byte	0x3c
 2382 010f 81000000 		.4byte	0x81
 2383 0113 00000000 		.4byte	.LLST0
 2384 0117 0A       		.uleb128 0xa
 2385 0118 E8000000 		.4byte	.LASF23
 2386 011c 01       		.byte	0x1
 2387 011d 40       		.byte	0x40
 2388 011e 81000000 		.4byte	0x81
ARM GAS  C:\Users\Daniel\AppData\Local\Temp\cczCpxmi.s 			page 54


 2389 0122 21000000 		.4byte	.LLST1
 2390 0126 0A       		.uleb128 0xa
 2391 0127 9B040000 		.4byte	.LASF24
 2392 012b 01       		.byte	0x1
 2393 012c 43       		.byte	0x43
 2394 012d BB010000 		.4byte	0x1bb
 2395 0131 4B000000 		.4byte	.LLST2
 2396 0135 0B       		.uleb128 0xb
 2397 0136 08000000 		.4byte	.LVL1
 2398 013a 090F0000 		.4byte	0xf09
 2399 013e 0C       		.uleb128 0xc
 2400 013f 0E000000 		.4byte	.LVL2
 2401 0143 160F0000 		.4byte	0xf16
 2402 0147 52010000 		.4byte	0x152
 2403 014b 0D       		.uleb128 0xd
 2404 014c 01       		.uleb128 0x1
 2405 014d 50       		.byte	0x50
 2406 014e 02       		.uleb128 0x2
 2407 014f 08       		.byte	0x8
 2408 0150 64       		.byte	0x64
 2409 0151 00       		.byte	0
 2410 0152 0B       		.uleb128 0xb
 2411 0153 12000000 		.4byte	.LVL3
 2412 0157 270F0000 		.4byte	0xf27
 2413 015b 0C       		.uleb128 0xc
 2414 015c 1C000000 		.4byte	.LVL4
 2415 0160 340F0000 		.4byte	0xf34
 2416 0164 6F010000 		.4byte	0x16f
 2417 0168 0D       		.uleb128 0xd
 2418 0169 01       		.uleb128 0x1
 2419 016a 50       		.byte	0x50
 2420 016b 02       		.uleb128 0x2
 2421 016c 76       		.byte	0x76
 2422 016d 00       		.sleb128 0
 2423 016e 00       		.byte	0
 2424 016f 0B       		.uleb128 0xb
 2425 0170 2C000000 		.4byte	.LVL7
 2426 0174 4E0F0000 		.4byte	0xf4e
 2427 0178 0C       		.uleb128 0xc
 2428 0179 44000000 		.4byte	.LVL8
 2429 017d 160F0000 		.4byte	0xf16
 2430 0181 8B010000 		.4byte	0x18b
 2431 0185 0D       		.uleb128 0xd
 2432 0186 01       		.uleb128 0x1
 2433 0187 50       		.byte	0x50
 2434 0188 01       		.uleb128 0x1
 2435 0189 44       		.byte	0x44
 2436 018a 00       		.byte	0
 2437 018b 0B       		.uleb128 0xb
 2438 018c 4C000000 		.4byte	.LVL9
 2439 0190 5F0F0000 		.4byte	0xf5f
 2440 0194 0B       		.uleb128 0xb
 2441 0195 50000000 		.4byte	.LVL10
 2442 0199 270F0000 		.4byte	0xf27
 2443 019d 0C       		.uleb128 0xc
 2444 019e 5A000000 		.4byte	.LVL11
 2445 01a2 340F0000 		.4byte	0xf34
ARM GAS  C:\Users\Daniel\AppData\Local\Temp\cczCpxmi.s 			page 55


 2446 01a6 B1010000 		.4byte	0x1b1
 2447 01aa 0D       		.uleb128 0xd
 2448 01ab 01       		.uleb128 0x1
 2449 01ac 50       		.byte	0x50
 2450 01ad 02       		.uleb128 0x2
 2451 01ae 76       		.byte	0x76
 2452 01af 00       		.sleb128 0
 2453 01b0 00       		.byte	0
 2454 01b1 0B       		.uleb128 0xb
 2455 01b2 70000000 		.4byte	.LVL15
 2456 01b6 4E0F0000 		.4byte	0xf4e
 2457 01ba 00       		.byte	0
 2458 01bb 02       		.uleb128 0x2
 2459 01bc 01       		.byte	0x1
 2460 01bd 02       		.byte	0x2
 2461 01be 56030000 		.4byte	.LASF25
 2462 01c2 0E       		.uleb128 0xe
 2463 01c3 4D000000 		.4byte	.LASF27
 2464 01c7 01       		.byte	0x1
 2465 01c8 61       		.byte	0x61
 2466 01c9 BB010000 		.4byte	0x1bb
 2467 01cd 00000000 		.4byte	.LFB64
 2468 01d1 84020000 		.4byte	.LFE64-.LFB64
 2469 01d5 01       		.uleb128 0x1
 2470 01d6 9C       		.byte	0x9c
 2471 01d7 90030000 		.4byte	0x390
 2472 01db 09       		.uleb128 0x9
 2473 01dc 636C7200 		.ascii	"clr\000"
 2474 01e0 01       		.byte	0x1
 2475 01e1 61       		.byte	0x61
 2476 01e2 81000000 		.4byte	0x81
 2477 01e6 5E000000 		.4byte	.LLST3
 2478 01ea 0F       		.uleb128 0xf
 2479 01eb 96040000 		.4byte	.LASF28
 2480 01ef 01       		.byte	0x1
 2481 01f0 61       		.byte	0x61
 2482 01f1 BB010000 		.4byte	0x1bb
 2483 01f5 7F000000 		.4byte	.LLST4
 2484 01f9 10       		.uleb128 0x10
 2485 01fa D6030000 		.4byte	.LASF29
 2486 01fe 01       		.byte	0x1
 2487 01ff 65       		.byte	0x65
 2488 0200 BB010000 		.4byte	0x1bb
 2489 0204 00       		.byte	0
 2490 0205 0A       		.uleb128 0xa
 2491 0206 9B040000 		.4byte	.LASF24
 2492 020a 01       		.byte	0x1
 2493 020b 69       		.byte	0x69
 2494 020c BB010000 		.4byte	0x1bb
 2495 0210 A0000000 		.4byte	.LLST5
 2496 0214 11       		.uleb128 0x11
 2497 0215 00000000 		.4byte	.Ldebug_ranges0+0
 2498 0219 4D030000 		.4byte	0x34d
 2499 021d 0A       		.uleb128 0xa
 2500 021e A7000000 		.4byte	.LASF30
 2501 0222 01       		.byte	0x1
 2502 0223 6E       		.byte	0x6e
ARM GAS  C:\Users\Daniel\AppData\Local\Temp\cczCpxmi.s 			page 56


 2503 0224 B8000000 		.4byte	0xb8
 2504 0228 BE000000 		.4byte	.LLST6
 2505 022c 0A       		.uleb128 0xa
 2506 022d 4E030000 		.4byte	.LASF31
 2507 0231 01       		.byte	0x1
 2508 0232 6F       		.byte	0x6f
 2509 0233 B8000000 		.4byte	0xb8
 2510 0237 E6000000 		.4byte	.LLST7
 2511 023b 0B       		.uleb128 0xb
 2512 023c 4E000000 		.4byte	.LVL26
 2513 0240 700F0000 		.4byte	0xf70
 2514 0244 0B       		.uleb128 0xb
 2515 0245 72000000 		.4byte	.LVL31
 2516 0249 5F0F0000 		.4byte	0xf5f
 2517 024d 0B       		.uleb128 0xb
 2518 024e AE000000 		.4byte	.LVL39
 2519 0252 700F0000 		.4byte	0xf70
 2520 0256 0B       		.uleb128 0xb
 2521 0257 D2000000 		.4byte	.LVL44
 2522 025b 4E0F0000 		.4byte	0xf4e
 2523 025f 0B       		.uleb128 0xb
 2524 0260 EC000000 		.4byte	.LVL48
 2525 0264 270F0000 		.4byte	0xf27
 2526 0268 0C       		.uleb128 0xc
 2527 0269 F6000000 		.4byte	.LVL49
 2528 026d 340F0000 		.4byte	0xf34
 2529 0271 7C020000 		.4byte	0x27c
 2530 0275 0D       		.uleb128 0xd
 2531 0276 01       		.uleb128 0x1
 2532 0277 50       		.byte	0x50
 2533 0278 02       		.uleb128 0x2
 2534 0279 74       		.byte	0x74
 2535 027a 00       		.sleb128 0
 2536 027b 00       		.byte	0
 2537 027c 0B       		.uleb128 0xb
 2538 027d 34010000 		.4byte	.LVL50
 2539 0281 850F0000 		.4byte	0xf85
 2540 0285 0B       		.uleb128 0xb
 2541 0286 4C010000 		.4byte	.LVL51
 2542 028a 920F0000 		.4byte	0xf92
 2543 028e 0C       		.uleb128 0xc
 2544 028f 54010000 		.4byte	.LVL52
 2545 0293 9F0F0000 		.4byte	0xf9f
 2546 0297 A3020000 		.4byte	0x2a3
 2547 029b 0D       		.uleb128 0xd
 2548 029c 01       		.uleb128 0x1
 2549 029d 50       		.byte	0x50
 2550 029e 03       		.uleb128 0x3
 2551 029f 0A       		.byte	0xa
 2552 02a0 B80B     		.2byte	0xbb8
 2553 02a2 00       		.byte	0
 2554 02a3 0B       		.uleb128 0xb
 2555 02a4 62010000 		.4byte	.LVL53
 2556 02a8 4E0F0000 		.4byte	0xf4e
 2557 02ac 0B       		.uleb128 0xb
 2558 02ad 6C010000 		.4byte	.LVL54
 2559 02b1 5F0F0000 		.4byte	0xf5f
ARM GAS  C:\Users\Daniel\AppData\Local\Temp\cczCpxmi.s 			page 57


 2560 02b5 0C       		.uleb128 0xc
 2561 02b6 74010000 		.4byte	.LVL55
 2562 02ba B00F0000 		.4byte	0xfb0
 2563 02be CA020000 		.4byte	0x2ca
 2564 02c2 0D       		.uleb128 0xd
 2565 02c3 01       		.uleb128 0x1
 2566 02c4 50       		.byte	0x50
 2567 02c5 03       		.uleb128 0x3
 2568 02c6 0A       		.byte	0xa
 2569 02c7 F401     		.2byte	0x1f4
 2570 02c9 00       		.byte	0
 2571 02ca 0B       		.uleb128 0xb
 2572 02cb 78010000 		.4byte	.LVL56
 2573 02cf C10F0000 		.4byte	0xfc1
 2574 02d3 0C       		.uleb128 0xc
 2575 02d4 80010000 		.4byte	.LVL57
 2576 02d8 9F0F0000 		.4byte	0xf9f
 2577 02dc E8020000 		.4byte	0x2e8
 2578 02e0 0D       		.uleb128 0xd
 2579 02e1 01       		.uleb128 0x1
 2580 02e2 50       		.byte	0x50
 2581 02e3 03       		.uleb128 0x3
 2582 02e4 0A       		.byte	0xa
 2583 02e5 F401     		.2byte	0x1f4
 2584 02e7 00       		.byte	0
 2585 02e8 0C       		.uleb128 0xc
 2586 02e9 88010000 		.4byte	.LVL58
 2587 02ed 9F0F0000 		.4byte	0xf9f
 2588 02f1 FD020000 		.4byte	0x2fd
 2589 02f5 0D       		.uleb128 0xd
 2590 02f6 01       		.uleb128 0x1
 2591 02f7 50       		.byte	0x50
 2592 02f8 03       		.uleb128 0x3
 2593 02f9 0A       		.byte	0xa
 2594 02fa E803     		.2byte	0x3e8
 2595 02fc 00       		.byte	0
 2596 02fd 0B       		.uleb128 0xb
 2597 02fe 96010000 		.4byte	.LVL59
 2598 0302 5F0F0000 		.4byte	0xf5f
 2599 0306 0B       		.uleb128 0xb
 2600 0307 A0010000 		.4byte	.LVL60
 2601 030b 4E0F0000 		.4byte	0xf4e
 2602 030f 0B       		.uleb128 0xb
 2603 0310 C8010000 		.4byte	.LVL64
 2604 0314 CE0F0000 		.4byte	0xfce
 2605 0318 0B       		.uleb128 0xb
 2606 0319 DA010000 		.4byte	.LVL67
 2607 031d B00F0000 		.4byte	0xfb0
 2608 0321 0B       		.uleb128 0xb
 2609 0322 FE010000 		.4byte	.LVL71
 2610 0326 CE0F0000 		.4byte	0xfce
 2611 032a 0B       		.uleb128 0xb
 2612 032b 10020000 		.4byte	.LVL74
 2613 032f B00F0000 		.4byte	0xfb0
 2614 0333 0B       		.uleb128 0xb
 2615 0334 14020000 		.4byte	.LVL75
 2616 0338 270F0000 		.4byte	0xf27
ARM GAS  C:\Users\Daniel\AppData\Local\Temp\cczCpxmi.s 			page 58


 2617 033c 12       		.uleb128 0x12
 2618 033d 1E020000 		.4byte	.LVL76
 2619 0341 340F0000 		.4byte	0xf34
 2620 0345 0D       		.uleb128 0xd
 2621 0346 01       		.uleb128 0x1
 2622 0347 50       		.byte	0x50
 2623 0348 02       		.uleb128 0x2
 2624 0349 74       		.byte	0x74
 2625 034a 00       		.sleb128 0
 2626 034b 00       		.byte	0
 2627 034c 00       		.byte	0
 2628 034d 0B       		.uleb128 0xb
 2629 034e 0C000000 		.4byte	.LVL18
 2630 0352 090F0000 		.4byte	0xf09
 2631 0356 0C       		.uleb128 0xc
 2632 0357 12000000 		.4byte	.LVL19
 2633 035b 160F0000 		.4byte	0xf16
 2634 035f 69030000 		.4byte	0x369
 2635 0363 0D       		.uleb128 0xd
 2636 0364 01       		.uleb128 0x1
 2637 0365 50       		.byte	0x50
 2638 0366 01       		.uleb128 0x1
 2639 0367 44       		.byte	0x44
 2640 0368 00       		.byte	0
 2641 0369 0B       		.uleb128 0xb
 2642 036a 16000000 		.4byte	.LVL20
 2643 036e 270F0000 		.4byte	0xf27
 2644 0372 0C       		.uleb128 0xc
 2645 0373 20000000 		.4byte	.LVL21
 2646 0377 340F0000 		.4byte	0xf34
 2647 037b 86030000 		.4byte	0x386
 2648 037f 0D       		.uleb128 0xd
 2649 0380 01       		.uleb128 0x1
 2650 0381 50       		.byte	0x50
 2651 0382 02       		.uleb128 0x2
 2652 0383 74       		.byte	0x74
 2653 0384 00       		.sleb128 0
 2654 0385 00       		.byte	0
 2655 0386 0B       		.uleb128 0xb
 2656 0387 2C020000 		.4byte	.LVL79
 2657 038b 4E0F0000 		.4byte	0xf4e
 2658 038f 00       		.byte	0
 2659 0390 08       		.uleb128 0x8
 2660 0391 D9010000 		.4byte	.LASF32
 2661 0395 01       		.byte	0x1
 2662 0396 B5       		.byte	0xb5
 2663 0397 BB010000 		.4byte	0x1bb
 2664 039b 00000000 		.4byte	.LFB65
 2665 039f 84000000 		.4byte	.LFE65-.LFB65
 2666 03a3 01       		.uleb128 0x1
 2667 03a4 9C       		.byte	0x9c
 2668 03a5 53040000 		.4byte	0x453
 2669 03a9 09       		.uleb128 0x9
 2670 03aa 636C7200 		.ascii	"clr\000"
 2671 03ae 01       		.byte	0x1
 2672 03af B5       		.byte	0xb5
 2673 03b0 81000000 		.4byte	0x81
ARM GAS  C:\Users\Daniel\AppData\Local\Temp\cczCpxmi.s 			page 59


 2674 03b4 0E010000 		.4byte	.LLST8
 2675 03b8 0A       		.uleb128 0xa
 2676 03b9 E8000000 		.4byte	.LASF23
 2677 03bd 01       		.byte	0x1
 2678 03be B9       		.byte	0xb9
 2679 03bf 81000000 		.4byte	0x81
 2680 03c3 2F010000 		.4byte	.LLST9
 2681 03c7 0A       		.uleb128 0xa
 2682 03c8 9B040000 		.4byte	.LASF24
 2683 03cc 01       		.byte	0x1
 2684 03cd BD       		.byte	0xbd
 2685 03ce BB010000 		.4byte	0x1bb
 2686 03d2 59010000 		.4byte	.LLST10
 2687 03d6 0C       		.uleb128 0xc
 2688 03d7 0A000000 		.4byte	.LVL82
 2689 03db E80F0000 		.4byte	0xfe8
 2690 03df EA030000 		.4byte	0x3ea
 2691 03e3 0D       		.uleb128 0xd
 2692 03e4 01       		.uleb128 0x1
 2693 03e5 50       		.byte	0x50
 2694 03e6 02       		.uleb128 0x2
 2695 03e7 08       		.byte	0x8
 2696 03e8 87       		.byte	0x87
 2697 03e9 00       		.byte	0
 2698 03ea 0C       		.uleb128 0xc
 2699 03eb 10000000 		.4byte	.LVL83
 2700 03ef 160F0000 		.4byte	0xf16
 2701 03f3 FD030000 		.4byte	0x3fd
 2702 03f7 0D       		.uleb128 0xd
 2703 03f8 01       		.uleb128 0x1
 2704 03f9 50       		.byte	0x50
 2705 03fa 01       		.uleb128 0x1
 2706 03fb 44       		.byte	0x44
 2707 03fc 00       		.byte	0
 2708 03fd 0B       		.uleb128 0xb
 2709 03fe 14000000 		.4byte	.LVL84
 2710 0402 270F0000 		.4byte	0xf27
 2711 0406 0C       		.uleb128 0xc
 2712 0407 1E000000 		.4byte	.LVL85
 2713 040b 340F0000 		.4byte	0xf34
 2714 040f 1A040000 		.4byte	0x41a
 2715 0413 0D       		.uleb128 0xd
 2716 0414 01       		.uleb128 0x1
 2717 0415 50       		.byte	0x50
 2718 0416 02       		.uleb128 0x2
 2719 0417 76       		.byte	0x76
 2720 0418 00       		.sleb128 0
 2721 0419 00       		.byte	0
 2722 041a 0B       		.uleb128 0xb
 2723 041b 2E000000 		.4byte	.LVL88
 2724 041f 4E0F0000 		.4byte	0xf4e
 2725 0423 0B       		.uleb128 0xb
 2726 0424 40000000 		.4byte	.LVL89
 2727 0428 5F0F0000 		.4byte	0xf5f
 2728 042c 0B       		.uleb128 0xb
 2729 042d 4C000000 		.4byte	.LVL90
 2730 0431 270F0000 		.4byte	0xf27
ARM GAS  C:\Users\Daniel\AppData\Local\Temp\cczCpxmi.s 			page 60


 2731 0435 0C       		.uleb128 0xc
 2732 0436 56000000 		.4byte	.LVL91
 2733 043a 340F0000 		.4byte	0xf34
 2734 043e 49040000 		.4byte	0x449
 2735 0442 0D       		.uleb128 0xd
 2736 0443 01       		.uleb128 0x1
 2737 0444 50       		.byte	0x50
 2738 0445 02       		.uleb128 0x2
 2739 0446 76       		.byte	0x76
 2740 0447 00       		.sleb128 0
 2741 0448 00       		.byte	0
 2742 0449 0B       		.uleb128 0xb
 2743 044a 6C000000 		.4byte	.LVL95
 2744 044e 4E0F0000 		.4byte	0xf4e
 2745 0452 00       		.byte	0
 2746 0453 0E       		.uleb128 0xe
 2747 0454 FA000000 		.4byte	.LASF33
 2748 0458 01       		.byte	0x1
 2749 0459 DC       		.byte	0xdc
 2750 045a BB010000 		.4byte	0x1bb
 2751 045e 00000000 		.4byte	.LFB66
 2752 0462 6C010000 		.4byte	.LFE66-.LFB66
 2753 0466 01       		.uleb128 0x1
 2754 0467 9C       		.byte	0x9c
 2755 0468 75050000 		.4byte	0x575
 2756 046c 09       		.uleb128 0x9
 2757 046d 636C7200 		.ascii	"clr\000"
 2758 0471 01       		.byte	0x1
 2759 0472 DC       		.byte	0xdc
 2760 0473 81000000 		.4byte	0x81
 2761 0477 6C010000 		.4byte	.LLST11
 2762 047b 0A       		.uleb128 0xa
 2763 047c 9B040000 		.4byte	.LASF24
 2764 0480 01       		.byte	0x1
 2765 0481 E1       		.byte	0xe1
 2766 0482 BB010000 		.4byte	0x1bb
 2767 0486 8D010000 		.4byte	.LLST12
 2768 048a 13       		.uleb128 0x13
 2769 048b 28000000 		.4byte	.LBB4
 2770 048f 08010000 		.4byte	.LBE4-.LBB4
 2771 0493 2E050000 		.4byte	0x52e
 2772 0497 0A       		.uleb128 0xa
 2773 0498 A7000000 		.4byte	.LASF30
 2774 049c 01       		.byte	0x1
 2775 049d E6       		.byte	0xe6
 2776 049e B8000000 		.4byte	0xb8
 2777 04a2 A0010000 		.4byte	.LLST13
 2778 04a6 0A       		.uleb128 0xa
 2779 04a7 4E030000 		.4byte	.LASF31
 2780 04ab 01       		.byte	0x1
 2781 04ac E7       		.byte	0xe7
 2782 04ad B8000000 		.4byte	0xb8
 2783 04b1 C8010000 		.4byte	.LLST14
 2784 04b5 0B       		.uleb128 0xb
 2785 04b6 56000000 		.4byte	.LVL107
 2786 04ba 700F0000 		.4byte	0xf70
 2787 04be 0B       		.uleb128 0xb
ARM GAS  C:\Users\Daniel\AppData\Local\Temp\cczCpxmi.s 			page 61


 2788 04bf 76000000 		.4byte	.LVL111
 2789 04c3 5F0F0000 		.4byte	0xf5f
 2790 04c7 0B       		.uleb128 0xb
 2791 04c8 9E000000 		.4byte	.LVL115
 2792 04cc 700F0000 		.4byte	0xf70
 2793 04d0 0B       		.uleb128 0xb
 2794 04d1 BE000000 		.4byte	.LVL119
 2795 04d5 4E0F0000 		.4byte	0xf4e
 2796 04d9 0B       		.uleb128 0xb
 2797 04da C2000000 		.4byte	.LVL120
 2798 04de 270F0000 		.4byte	0xf27
 2799 04e2 0C       		.uleb128 0xc
 2800 04e3 CA000000 		.4byte	.LVL121
 2801 04e7 340F0000 		.4byte	0xf34
 2802 04eb FC040000 		.4byte	0x4fc
 2803 04ef 0D       		.uleb128 0xd
 2804 04f0 01       		.uleb128 0x1
 2805 04f1 51       		.byte	0x51
 2806 04f2 02       		.uleb128 0x2
 2807 04f3 74       		.byte	0x74
 2808 04f4 00       		.sleb128 0
 2809 04f5 0D       		.uleb128 0xd
 2810 04f6 01       		.uleb128 0x1
 2811 04f7 50       		.byte	0x50
 2812 04f8 02       		.uleb128 0x2
 2813 04f9 75       		.byte	0x75
 2814 04fa 00       		.sleb128 0
 2815 04fb 00       		.byte	0
 2816 04fc 0B       		.uleb128 0xb
 2817 04fd 02010000 		.4byte	.LVL124
 2818 0501 CE0F0000 		.4byte	0xfce
 2819 0505 0B       		.uleb128 0xb
 2820 0506 16010000 		.4byte	.LVL127
 2821 050a B00F0000 		.4byte	0xfb0
 2822 050e 0B       		.uleb128 0xb
 2823 050f 1A010000 		.4byte	.LVL128
 2824 0513 270F0000 		.4byte	0xf27
 2825 0517 12       		.uleb128 0x12
 2826 0518 22010000 		.4byte	.LVL129
 2827 051c 340F0000 		.4byte	0xf34
 2828 0520 0D       		.uleb128 0xd
 2829 0521 01       		.uleb128 0x1
 2830 0522 51       		.byte	0x51
 2831 0523 02       		.uleb128 0x2
 2832 0524 74       		.byte	0x74
 2833 0525 00       		.sleb128 0
 2834 0526 0D       		.uleb128 0xd
 2835 0527 01       		.uleb128 0x1
 2836 0528 50       		.byte	0x50
 2837 0529 02       		.uleb128 0x2
 2838 052a 75       		.byte	0x75
 2839 052b 00       		.sleb128 0
 2840 052c 00       		.byte	0
 2841 052d 00       		.byte	0
 2842 052e 0C       		.uleb128 0xc
 2843 052f 0C000000 		.4byte	.LVL99
 2844 0533 E80F0000 		.4byte	0xfe8
ARM GAS  C:\Users\Daniel\AppData\Local\Temp\cczCpxmi.s 			page 62


 2845 0537 42050000 		.4byte	0x542
 2846 053b 0D       		.uleb128 0xd
 2847 053c 01       		.uleb128 0x1
 2848 053d 50       		.byte	0x50
 2849 053e 02       		.uleb128 0x2
 2850 053f 08       		.byte	0x8
 2851 0540 87       		.byte	0x87
 2852 0541 00       		.byte	0
 2853 0542 0C       		.uleb128 0xc
 2854 0543 12000000 		.4byte	.LVL100
 2855 0547 160F0000 		.4byte	0xf16
 2856 054b 55050000 		.4byte	0x555
 2857 054f 0D       		.uleb128 0xd
 2858 0550 01       		.uleb128 0x1
 2859 0551 50       		.byte	0x50
 2860 0552 01       		.uleb128 0x1
 2861 0553 44       		.byte	0x44
 2862 0554 00       		.byte	0
 2863 0555 0B       		.uleb128 0xb
 2864 0556 16000000 		.4byte	.LVL101
 2865 055a 270F0000 		.4byte	0xf27
 2866 055e 12       		.uleb128 0x12
 2867 055f 22000000 		.4byte	.LVL102
 2868 0563 340F0000 		.4byte	0xf34
 2869 0567 0D       		.uleb128 0xd
 2870 0568 01       		.uleb128 0x1
 2871 0569 51       		.byte	0x51
 2872 056a 02       		.uleb128 0x2
 2873 056b 74       		.byte	0x74
 2874 056c 00       		.sleb128 0
 2875 056d 0D       		.uleb128 0xd
 2876 056e 01       		.uleb128 0x1
 2877 056f 50       		.byte	0x50
 2878 0570 02       		.uleb128 0x2
 2879 0571 75       		.byte	0x75
 2880 0572 00       		.sleb128 0
 2881 0573 00       		.byte	0
 2882 0574 00       		.byte	0
 2883 0575 14       		.uleb128 0x14
 2884 0576 29000000 		.4byte	.LASF34
 2885 057a 01       		.byte	0x1
 2886 057b 0701     		.2byte	0x107
 2887 057d BB010000 		.4byte	0x1bb
 2888 0581 00000000 		.4byte	.LFB67
 2889 0585 24010000 		.4byte	.LFE67-.LFB67
 2890 0589 01       		.uleb128 0x1
 2891 058a 9C       		.byte	0x9c
 2892 058b 69070000 		.4byte	0x769
 2893 058f 15       		.uleb128 0x15
 2894 0590 636C7200 		.ascii	"clr\000"
 2895 0594 01       		.byte	0x1
 2896 0595 0701     		.2byte	0x107
 2897 0597 81000000 		.4byte	0x81
 2898 059b F0010000 		.4byte	.LLST15
 2899 059f 16       		.uleb128 0x16
 2900 05a0 96040000 		.4byte	.LASF28
 2901 05a4 01       		.byte	0x1
ARM GAS  C:\Users\Daniel\AppData\Local\Temp\cczCpxmi.s 			page 63


 2902 05a5 0701     		.2byte	0x107
 2903 05a7 BB010000 		.4byte	0x1bb
 2904 05ab 11020000 		.4byte	.LLST16
 2905 05af 17       		.uleb128 0x17
 2906 05b0 C2020000 		.4byte	.LASF35
 2907 05b4 01       		.byte	0x1
 2908 05b5 0901     		.2byte	0x109
 2909 05b7 69070000 		.4byte	0x769
 2910 05bb B4       		.byte	0xb4
 2911 05bc 18       		.uleb128 0x18
 2912 05bd 9B040000 		.4byte	.LASF24
 2913 05c1 01       		.byte	0x1
 2914 05c2 0C01     		.2byte	0x10c
 2915 05c4 BB010000 		.4byte	0x1bb
 2916 05c8 32020000 		.4byte	.LLST17
 2917 05cc 17       		.uleb128 0x17
 2918 05cd 80040000 		.4byte	.LASF36
 2919 05d1 01       		.byte	0x1
 2920 05d2 0D01     		.2byte	0x10d
 2921 05d4 6E070000 		.4byte	0x76e
 2922 05d8 28       		.byte	0x28
 2923 05d9 17       		.uleb128 0x17
 2924 05da BE040000 		.4byte	.LASF37
 2925 05de 01       		.byte	0x1
 2926 05df 0E01     		.2byte	0x10e
 2927 05e1 6E070000 		.4byte	0x76e
 2928 05e5 3C       		.byte	0x3c
 2929 05e6 13       		.uleb128 0x13
 2930 05e7 24000000 		.4byte	.LBB5
 2931 05eb E4000000 		.4byte	.LBE5-.LBB5
 2932 05ef 34070000 		.4byte	0x734
 2933 05f3 19       		.uleb128 0x19
 2934 05f4 6900     		.ascii	"i\000"
 2935 05f6 01       		.byte	0x1
 2936 05f7 1501     		.2byte	0x115
 2937 05f9 81000000 		.4byte	0x81
 2938 05fd 71020000 		.4byte	.LLST18
 2939 0601 18       		.uleb128 0x18
 2940 0602 2E020000 		.4byte	.LASF38
 2941 0606 01       		.byte	0x1
 2942 0607 1601     		.2byte	0x116
 2943 0609 BB010000 		.4byte	0x1bb
 2944 060d A6020000 		.4byte	.LLST19
 2945 0611 0C       		.uleb128 0xc
 2946 0612 2A000000 		.4byte	.LVL136
 2947 0616 B00F0000 		.4byte	0xfb0
 2948 061a 25060000 		.4byte	0x625
 2949 061e 0D       		.uleb128 0xd
 2950 061f 01       		.uleb128 0x1
 2951 0620 50       		.byte	0x50
 2952 0621 02       		.uleb128 0x2
 2953 0622 08       		.byte	0x8
 2954 0623 64       		.byte	0x64
 2955 0624 00       		.byte	0
 2956 0625 0B       		.uleb128 0xb
 2957 0626 2E000000 		.4byte	.LVL137
 2958 062a 270F0000 		.4byte	0xf27
ARM GAS  C:\Users\Daniel\AppData\Local\Temp\cczCpxmi.s 			page 64


 2959 062e 0C       		.uleb128 0xc
 2960 062f 38000000 		.4byte	.LVL138
 2961 0633 340F0000 		.4byte	0xf34
 2962 0637 49060000 		.4byte	0x649
 2963 063b 0D       		.uleb128 0xd
 2964 063c 01       		.uleb128 0x1
 2965 063d 51       		.byte	0x51
 2966 063e 03       		.uleb128 0x3
 2967 063f 0A       		.byte	0xa
 2968 0640 8813     		.2byte	0x1388
 2969 0642 0D       		.uleb128 0xd
 2970 0643 01       		.uleb128 0x1
 2971 0644 50       		.byte	0x50
 2972 0645 02       		.uleb128 0x2
 2973 0646 76       		.byte	0x76
 2974 0647 00       		.sleb128 0
 2975 0648 00       		.byte	0
 2976 0649 0B       		.uleb128 0xb
 2977 064a 52000000 		.4byte	.LVL141
 2978 064e 270F0000 		.4byte	0xf27
 2979 0652 0C       		.uleb128 0xc
 2980 0653 5C000000 		.4byte	.LVL142
 2981 0657 340F0000 		.4byte	0xf34
 2982 065b 6D060000 		.4byte	0x66d
 2983 065f 0D       		.uleb128 0xd
 2984 0660 01       		.uleb128 0x1
 2985 0661 51       		.byte	0x51
 2986 0662 03       		.uleb128 0x3
 2987 0663 0A       		.byte	0xa
 2988 0664 8813     		.2byte	0x1388
 2989 0666 0D       		.uleb128 0xd
 2990 0667 01       		.uleb128 0x1
 2991 0668 50       		.byte	0x50
 2992 0669 02       		.uleb128 0x2
 2993 066a 76       		.byte	0x76
 2994 066b 00       		.sleb128 0
 2995 066c 00       		.byte	0
 2996 066d 0C       		.uleb128 0xc
 2997 066e 72000000 		.4byte	.LVL146
 2998 0672 9F0F0000 		.4byte	0xf9f
 2999 0676 82060000 		.4byte	0x682
 3000 067a 0D       		.uleb128 0xd
 3001 067b 01       		.uleb128 0x1
 3002 067c 50       		.byte	0x50
 3003 067d 03       		.uleb128 0x3
 3004 067e 0A       		.byte	0xa
 3005 067f D007     		.2byte	0x7d0
 3006 0681 00       		.byte	0
 3007 0682 0B       		.uleb128 0xb
 3008 0683 82000000 		.4byte	.LVL148
 3009 0687 850F0000 		.4byte	0xf85
 3010 068b 0B       		.uleb128 0xb
 3011 068c 9A000000 		.4byte	.LVL149
 3012 0690 920F0000 		.4byte	0xf92
 3013 0694 0C       		.uleb128 0xc
 3014 0695 A2000000 		.4byte	.LVL150
 3015 0699 9F0F0000 		.4byte	0xf9f
ARM GAS  C:\Users\Daniel\AppData\Local\Temp\cczCpxmi.s 			page 65


 3016 069d A9060000 		.4byte	0x6a9
 3017 06a1 0D       		.uleb128 0xd
 3018 06a2 01       		.uleb128 0x1
 3019 06a3 50       		.byte	0x50
 3020 06a4 03       		.uleb128 0x3
 3021 06a5 0A       		.byte	0xa
 3022 06a6 D007     		.2byte	0x7d0
 3023 06a8 00       		.byte	0
 3024 06a9 0B       		.uleb128 0xb
 3025 06aa AC000000 		.4byte	.LVL151
 3026 06ae 4E0F0000 		.4byte	0xf4e
 3027 06b2 0B       		.uleb128 0xb
 3028 06b3 B6000000 		.4byte	.LVL152
 3029 06b7 5F0F0000 		.4byte	0xf5f
 3030 06bb 0C       		.uleb128 0xc
 3031 06bc BE000000 		.4byte	.LVL153
 3032 06c0 B00F0000 		.4byte	0xfb0
 3033 06c4 D0060000 		.4byte	0x6d0
 3034 06c8 0D       		.uleb128 0xd
 3035 06c9 01       		.uleb128 0x1
 3036 06ca 50       		.byte	0x50
 3037 06cb 03       		.uleb128 0x3
 3038 06cc 0A       		.byte	0xa
 3039 06cd F401     		.2byte	0x1f4
 3040 06cf 00       		.byte	0
 3041 06d0 0B       		.uleb128 0xb
 3042 06d1 C2000000 		.4byte	.LVL154
 3043 06d5 C10F0000 		.4byte	0xfc1
 3044 06d9 0C       		.uleb128 0xc
 3045 06da CA000000 		.4byte	.LVL155
 3046 06de 9F0F0000 		.4byte	0xf9f
 3047 06e2 EE060000 		.4byte	0x6ee
 3048 06e6 0D       		.uleb128 0xd
 3049 06e7 01       		.uleb128 0x1
 3050 06e8 50       		.byte	0x50
 3051 06e9 03       		.uleb128 0x3
 3052 06ea 0A       		.byte	0xa
 3053 06eb F401     		.2byte	0x1f4
 3054 06ed 00       		.byte	0
 3055 06ee 0C       		.uleb128 0xc
 3056 06ef D2000000 		.4byte	.LVL156
 3057 06f3 9F0F0000 		.4byte	0xf9f
 3058 06f7 03070000 		.4byte	0x703
 3059 06fb 0D       		.uleb128 0xd
 3060 06fc 01       		.uleb128 0x1
 3061 06fd 50       		.byte	0x50
 3062 06fe 03       		.uleb128 0x3
 3063 06ff 0A       		.byte	0xa
 3064 0700 E803     		.2byte	0x3e8
 3065 0702 00       		.byte	0
 3066 0703 0B       		.uleb128 0xb
 3067 0704 DC000000 		.4byte	.LVL157
 3068 0708 5F0F0000 		.4byte	0xf5f
 3069 070c 0B       		.uleb128 0xb
 3070 070d E6000000 		.4byte	.LVL158
 3071 0711 4E0F0000 		.4byte	0xf4e
 3072 0715 0C       		.uleb128 0xc
ARM GAS  C:\Users\Daniel\AppData\Local\Temp\cczCpxmi.s 			page 66


 3073 0716 EE000000 		.4byte	.LVL159
 3074 071a B00F0000 		.4byte	0xfb0
 3075 071e 2A070000 		.4byte	0x72a
 3076 0722 0D       		.uleb128 0xd
 3077 0723 01       		.uleb128 0x1
 3078 0724 50       		.byte	0x50
 3079 0725 03       		.uleb128 0x3
 3080 0726 0A       		.byte	0xa
 3081 0727 8403     		.2byte	0x384
 3082 0729 00       		.byte	0
 3083 072a 0B       		.uleb128 0xb
 3084 072b 02010000 		.4byte	.LVL162
 3085 072f 920F0000 		.4byte	0xf92
 3086 0733 00       		.byte	0
 3087 0734 0C       		.uleb128 0xc
 3088 0735 0E000000 		.4byte	.LVL132
 3089 0739 E80F0000 		.4byte	0xfe8
 3090 073d 48070000 		.4byte	0x748
 3091 0741 0D       		.uleb128 0xd
 3092 0742 01       		.uleb128 0x1
 3093 0743 50       		.byte	0x50
 3094 0744 02       		.uleb128 0x2
 3095 0745 08       		.byte	0x8
 3096 0746 B1       		.byte	0xb1
 3097 0747 00       		.byte	0
 3098 0748 0B       		.uleb128 0xb
 3099 0749 12000000 		.4byte	.LVL133
 3100 074d 270F0000 		.4byte	0xf27
 3101 0751 12       		.uleb128 0x12
 3102 0752 1C000000 		.4byte	.LVL134
 3103 0756 340F0000 		.4byte	0xf34
 3104 075a 0D       		.uleb128 0xd
 3105 075b 01       		.uleb128 0x1
 3106 075c 51       		.byte	0x51
 3107 075d 03       		.uleb128 0x3
 3108 075e 0A       		.byte	0xa
 3109 075f B004     		.2byte	0x4b0
 3110 0761 0D       		.uleb128 0xd
 3111 0762 01       		.uleb128 0x1
 3112 0763 50       		.byte	0x50
 3113 0764 02       		.uleb128 0x2
 3114 0765 76       		.byte	0x76
 3115 0766 00       		.sleb128 0
 3116 0767 00       		.byte	0
 3117 0768 00       		.byte	0
 3118 0769 1A       		.uleb128 0x1a
 3119 076a 8D000000 		.4byte	0x8d
 3120 076e 1A       		.uleb128 0x1a
 3121 076f 81000000 		.4byte	0x81
 3122 0773 1B       		.uleb128 0x1b
 3123 0774 72030000 		.4byte	.LASF39
 3124 0778 01       		.byte	0x1
 3125 0779 4601     		.2byte	0x146
 3126 077b BB010000 		.4byte	0x1bb
 3127 077f 00000000 		.4byte	.LFB68
 3128 0783 F4000000 		.4byte	.LFE68-.LFB68
 3129 0787 01       		.uleb128 0x1
ARM GAS  C:\Users\Daniel\AppData\Local\Temp\cczCpxmi.s 			page 67


 3130 0788 9C       		.byte	0x9c
 3131 0789 FA080000 		.4byte	0x8fa
 3132 078d 0C       		.uleb128 0xc
 3133 078e 10000000 		.4byte	.LVL166
 3134 0792 F90F0000 		.4byte	0xff9
 3135 0796 B2070000 		.4byte	0x7b2
 3136 079a 0D       		.uleb128 0xd
 3137 079b 01       		.uleb128 0x1
 3138 079c 53       		.byte	0x53
 3139 079d 02       		.uleb128 0x2
 3140 079e 09       		.byte	0x9
 3141 079f 80       		.byte	0x80
 3142 07a0 0D       		.uleb128 0xd
 3143 07a1 01       		.uleb128 0x1
 3144 07a2 52       		.byte	0x52
 3145 07a3 02       		.uleb128 0x2
 3146 07a4 09       		.byte	0x9
 3147 07a5 80       		.byte	0x80
 3148 07a6 0D       		.uleb128 0xd
 3149 07a7 01       		.uleb128 0x1
 3150 07a8 51       		.byte	0x51
 3151 07a9 01       		.uleb128 0x1
 3152 07aa 30       		.byte	0x30
 3153 07ab 0D       		.uleb128 0xd
 3154 07ac 01       		.uleb128 0x1
 3155 07ad 50       		.byte	0x50
 3156 07ae 02       		.uleb128 0x2
 3157 07af 08       		.byte	0x8
 3158 07b0 A0       		.byte	0xa0
 3159 07b1 00       		.byte	0
 3160 07b2 0C       		.uleb128 0xc
 3161 07b3 30000000 		.4byte	.LVL167
 3162 07b7 19100000 		.4byte	0x1019
 3163 07bb F2070000 		.4byte	0x7f2
 3164 07bf 0D       		.uleb128 0xd
 3165 07c0 01       		.uleb128 0x1
 3166 07c1 53       		.byte	0x53
 3167 07c2 02       		.uleb128 0x2
 3168 07c3 09       		.byte	0x9
 3169 07c4 C0       		.byte	0xc0
 3170 07c5 0D       		.uleb128 0xd
 3171 07c6 01       		.uleb128 0x1
 3172 07c7 52       		.byte	0x52
 3173 07c8 01       		.uleb128 0x1
 3174 07c9 30       		.byte	0x30
 3175 07ca 0D       		.uleb128 0xd
 3176 07cb 01       		.uleb128 0x1
 3177 07cc 51       		.byte	0x51
 3178 07cd 02       		.uleb128 0x2
 3179 07ce 08       		.byte	0x8
 3180 07cf 40       		.byte	0x40
 3181 07d0 0D       		.uleb128 0xd
 3182 07d1 01       		.uleb128 0x1
 3183 07d2 50       		.byte	0x50
 3184 07d3 02       		.uleb128 0x2
 3185 07d4 09       		.byte	0x9
 3186 07d5 E0       		.byte	0xe0
ARM GAS  C:\Users\Daniel\AppData\Local\Temp\cczCpxmi.s 			page 68


 3187 07d6 0D       		.uleb128 0xd
 3188 07d7 02       		.uleb128 0x2
 3189 07d8 7D       		.byte	0x7d
 3190 07d9 0C       		.sleb128 12
 3191 07da 01       		.uleb128 0x1
 3192 07db 40       		.byte	0x40
 3193 07dc 0D       		.uleb128 0xd
 3194 07dd 02       		.uleb128 0x2
 3195 07de 7D       		.byte	0x7d
 3196 07df 08       		.sleb128 8
 3197 07e0 02       		.uleb128 0x2
 3198 07e1 09       		.byte	0x9
 3199 07e2 F0       		.byte	0xf0
 3200 07e3 0D       		.uleb128 0xd
 3201 07e4 02       		.uleb128 0x2
 3202 07e5 7D       		.byte	0x7d
 3203 07e6 04       		.sleb128 4
 3204 07e7 02       		.uleb128 0x2
 3205 07e8 09       		.byte	0x9
 3206 07e9 E0       		.byte	0xe0
 3207 07ea 0D       		.uleb128 0xd
 3208 07eb 02       		.uleb128 0x2
 3209 07ec 7D       		.byte	0x7d
 3210 07ed 00       		.sleb128 0
 3211 07ee 02       		.uleb128 0x2
 3212 07ef 08       		.byte	0x8
 3213 07f0 30       		.byte	0x30
 3214 07f1 00       		.byte	0
 3215 07f2 0B       		.uleb128 0xb
 3216 07f3 34000000 		.4byte	.LVL168
 3217 07f7 090F0000 		.4byte	0xf09
 3218 07fb 0B       		.uleb128 0xb
 3219 07fc 38000000 		.4byte	.LVL169
 3220 0800 270F0000 		.4byte	0xf27
 3221 0804 0B       		.uleb128 0xb
 3222 0805 3C000000 		.4byte	.LVL170
 3223 0809 4D100000 		.4byte	0x104d
 3224 080d 0B       		.uleb128 0xb
 3225 080e 5A000000 		.4byte	.LVL173
 3226 0812 CE0F0000 		.4byte	0xfce
 3227 0816 0B       		.uleb128 0xb
 3228 0817 6E000000 		.4byte	.LVL176
 3229 081b B00F0000 		.4byte	0xfb0
 3230 081f 0B       		.uleb128 0xb
 3231 0820 72000000 		.4byte	.LVL177
 3232 0824 270F0000 		.4byte	0xf27
 3233 0828 0B       		.uleb128 0xb
 3234 0829 76000000 		.4byte	.LVL178
 3235 082d 4D100000 		.4byte	0x104d
 3236 0831 0C       		.uleb128 0xc
 3237 0832 8A000000 		.4byte	.LVL179
 3238 0836 F90F0000 		.4byte	0xff9
 3239 083a 56080000 		.4byte	0x856
 3240 083e 0D       		.uleb128 0xd
 3241 083f 01       		.uleb128 0x1
 3242 0840 53       		.byte	0x53
 3243 0841 02       		.uleb128 0x2
ARM GAS  C:\Users\Daniel\AppData\Local\Temp\cczCpxmi.s 			page 69


 3244 0842 09       		.byte	0x9
 3245 0843 80       		.byte	0x80
 3246 0844 0D       		.uleb128 0xd
 3247 0845 01       		.uleb128 0x1
 3248 0846 52       		.byte	0x52
 3249 0847 02       		.uleb128 0x2
 3250 0848 09       		.byte	0x9
 3251 0849 80       		.byte	0x80
 3252 084a 0D       		.uleb128 0xd
 3253 084b 01       		.uleb128 0x1
 3254 084c 51       		.byte	0x51
 3255 084d 01       		.uleb128 0x1
 3256 084e 30       		.byte	0x30
 3257 084f 0D       		.uleb128 0xd
 3258 0850 01       		.uleb128 0x1
 3259 0851 50       		.byte	0x50
 3260 0852 02       		.uleb128 0x2
 3261 0853 08       		.byte	0x8
 3262 0854 A0       		.byte	0xa0
 3263 0855 00       		.byte	0
 3264 0856 0C       		.uleb128 0xc
 3265 0857 AA000000 		.4byte	.LVL180
 3266 085b 19100000 		.4byte	0x1019
 3267 085f 97080000 		.4byte	0x897
 3268 0863 0D       		.uleb128 0xd
 3269 0864 01       		.uleb128 0x1
 3270 0865 53       		.byte	0x53
 3271 0866 02       		.uleb128 0x2
 3272 0867 09       		.byte	0x9
 3273 0868 C0       		.byte	0xc0
 3274 0869 0D       		.uleb128 0xd
 3275 086a 01       		.uleb128 0x1
 3276 086b 52       		.byte	0x52
 3277 086c 01       		.uleb128 0x1
 3278 086d 30       		.byte	0x30
 3279 086e 0D       		.uleb128 0xd
 3280 086f 01       		.uleb128 0x1
 3281 0870 51       		.byte	0x51
 3282 0871 02       		.uleb128 0x2
 3283 0872 08       		.byte	0x8
 3284 0873 40       		.byte	0x40
 3285 0874 0D       		.uleb128 0xd
 3286 0875 01       		.uleb128 0x1
 3287 0876 50       		.byte	0x50
 3288 0877 02       		.uleb128 0x2
 3289 0878 09       		.byte	0x9
 3290 0879 E0       		.byte	0xe0
 3291 087a 0D       		.uleb128 0xd
 3292 087b 02       		.uleb128 0x2
 3293 087c 7D       		.byte	0x7d
 3294 087d 0C       		.sleb128 12
 3295 087e 02       		.uleb128 0x2
 3296 087f 08       		.byte	0x8
 3297 0880 20       		.byte	0x20
 3298 0881 0D       		.uleb128 0xd
 3299 0882 02       		.uleb128 0x2
 3300 0883 7D       		.byte	0x7d
ARM GAS  C:\Users\Daniel\AppData\Local\Temp\cczCpxmi.s 			page 70


 3301 0884 08       		.sleb128 8
 3302 0885 02       		.uleb128 0x2
 3303 0886 09       		.byte	0x9
 3304 0887 F0       		.byte	0xf0
 3305 0888 0D       		.uleb128 0xd
 3306 0889 02       		.uleb128 0x2
 3307 088a 7D       		.byte	0x7d
 3308 088b 04       		.sleb128 4
 3309 088c 02       		.uleb128 0x2
 3310 088d 09       		.byte	0x9
 3311 088e E0       		.byte	0xe0
 3312 088f 0D       		.uleb128 0xd
 3313 0890 02       		.uleb128 0x2
 3314 0891 7D       		.byte	0x7d
 3315 0892 00       		.sleb128 0
 3316 0893 02       		.uleb128 0x2
 3317 0894 08       		.byte	0x8
 3318 0895 30       		.byte	0x30
 3319 0896 00       		.byte	0
 3320 0897 0C       		.uleb128 0xc
 3321 0898 B8000000 		.4byte	.LVL181
 3322 089c F90F0000 		.4byte	0xff9
 3323 08a0 BC080000 		.4byte	0x8bc
 3324 08a4 0D       		.uleb128 0xd
 3325 08a5 01       		.uleb128 0x1
 3326 08a6 53       		.byte	0x53
 3327 08a7 02       		.uleb128 0x2
 3328 08a8 09       		.byte	0x9
 3329 08a9 80       		.byte	0x80
 3330 08aa 0D       		.uleb128 0xd
 3331 08ab 01       		.uleb128 0x1
 3332 08ac 52       		.byte	0x52
 3333 08ad 02       		.uleb128 0x2
 3334 08ae 09       		.byte	0x9
 3335 08af 80       		.byte	0x80
 3336 08b0 0D       		.uleb128 0xd
 3337 08b1 01       		.uleb128 0x1
 3338 08b2 51       		.byte	0x51
 3339 08b3 01       		.uleb128 0x1
 3340 08b4 30       		.byte	0x30
 3341 08b5 0D       		.uleb128 0xd
 3342 08b6 01       		.uleb128 0x1
 3343 08b7 50       		.byte	0x50
 3344 08b8 02       		.uleb128 0x2
 3345 08b9 08       		.byte	0x8
 3346 08ba A0       		.byte	0xa0
 3347 08bb 00       		.byte	0
 3348 08bc 12       		.uleb128 0x12
 3349 08bd D8000000 		.4byte	.LVL182
 3350 08c1 19100000 		.4byte	0x1019
 3351 08c5 0D       		.uleb128 0xd
 3352 08c6 01       		.uleb128 0x1
 3353 08c7 53       		.byte	0x53
 3354 08c8 02       		.uleb128 0x2
 3355 08c9 09       		.byte	0x9
 3356 08ca C0       		.byte	0xc0
 3357 08cb 0D       		.uleb128 0xd
ARM GAS  C:\Users\Daniel\AppData\Local\Temp\cczCpxmi.s 			page 71


 3358 08cc 01       		.uleb128 0x1
 3359 08cd 52       		.byte	0x52
 3360 08ce 01       		.uleb128 0x1
 3361 08cf 30       		.byte	0x30
 3362 08d0 0D       		.uleb128 0xd
 3363 08d1 01       		.uleb128 0x1
 3364 08d2 51       		.byte	0x51
 3365 08d3 02       		.uleb128 0x2
 3366 08d4 08       		.byte	0x8
 3367 08d5 40       		.byte	0x40
 3368 08d6 0D       		.uleb128 0xd
 3369 08d7 01       		.uleb128 0x1
 3370 08d8 50       		.byte	0x50
 3371 08d9 02       		.uleb128 0x2
 3372 08da 09       		.byte	0x9
 3373 08db E0       		.byte	0xe0
 3374 08dc 0D       		.uleb128 0xd
 3375 08dd 02       		.uleb128 0x2
 3376 08de 7D       		.byte	0x7d
 3377 08df 0C       		.sleb128 12
 3378 08e0 02       		.uleb128 0x2
 3379 08e1 08       		.byte	0x8
 3380 08e2 20       		.byte	0x20
 3381 08e3 0D       		.uleb128 0xd
 3382 08e4 02       		.uleb128 0x2
 3383 08e5 7D       		.byte	0x7d
 3384 08e6 08       		.sleb128 8
 3385 08e7 02       		.uleb128 0x2
 3386 08e8 09       		.byte	0x9
 3387 08e9 F0       		.byte	0xf0
 3388 08ea 0D       		.uleb128 0xd
 3389 08eb 02       		.uleb128 0x2
 3390 08ec 7D       		.byte	0x7d
 3391 08ed 04       		.sleb128 4
 3392 08ee 02       		.uleb128 0x2
 3393 08ef 09       		.byte	0x9
 3394 08f0 E0       		.byte	0xe0
 3395 08f1 0D       		.uleb128 0xd
 3396 08f2 02       		.uleb128 0x2
 3397 08f3 7D       		.byte	0x7d
 3398 08f4 00       		.sleb128 0
 3399 08f5 02       		.uleb128 0x2
 3400 08f6 08       		.byte	0x8
 3401 08f7 30       		.byte	0x30
 3402 08f8 00       		.byte	0
 3403 08f9 00       		.byte	0
 3404 08fa 1C       		.uleb128 0x1c
 3405 08fb B9010000 		.4byte	.LASF86
 3406 08ff 01       		.byte	0x1
 3407 0900 8401     		.2byte	0x184
 3408 0902 00000000 		.4byte	.LFB70
 3409 0906 0C000000 		.4byte	.LFE70-.LFB70
 3410 090a 01       		.uleb128 0x1
 3411 090b 9C       		.byte	0x9c
 3412 090c 1D       		.uleb128 0x1d
 3413 090d 01020000 		.4byte	.LASF40
 3414 0911 01       		.byte	0x1
ARM GAS  C:\Users\Daniel\AppData\Local\Temp\cczCpxmi.s 			page 72


 3415 0912 6401     		.2byte	0x164
 3416 0914 00000000 		.4byte	.LFB69
 3417 0918 BC000000 		.4byte	.LFE69-.LFB69
 3418 091c 01       		.uleb128 0x1
 3419 091d 9C       		.byte	0x9c
 3420 091e 560A0000 		.4byte	0xa56
 3421 0922 15       		.uleb128 0x15
 3422 0923 636C7200 		.ascii	"clr\000"
 3423 0927 01       		.byte	0x1
 3424 0928 6401     		.2byte	0x164
 3425 092a 81000000 		.4byte	0x81
 3426 092e D0020000 		.4byte	.LLST20
 3427 0932 16       		.uleb128 0x16
 3428 0933 96040000 		.4byte	.LASF28
 3429 0937 01       		.byte	0x1
 3430 0938 6401     		.2byte	0x164
 3431 093a BB010000 		.4byte	0x1bb
 3432 093e F1020000 		.4byte	.LLST21
 3433 0942 18       		.uleb128 0x18
 3434 0943 D6030000 		.4byte	.LASF29
 3435 0947 01       		.byte	0x1
 3436 0948 6901     		.2byte	0x169
 3437 094a BB010000 		.4byte	0x1bb
 3438 094e 12030000 		.4byte	.LLST22
 3439 0952 0B       		.uleb128 0xb
 3440 0953 0A000000 		.4byte	.LVL184
 3441 0957 5E100000 		.4byte	0x105e
 3442 095b 0C       		.uleb128 0xc
 3443 095c 10000000 		.4byte	.LVL185
 3444 0960 160F0000 		.4byte	0xf16
 3445 0964 6F090000 		.4byte	0x96f
 3446 0968 0D       		.uleb128 0xd
 3447 0969 01       		.uleb128 0x1
 3448 096a 50       		.byte	0x50
 3449 096b 02       		.uleb128 0x2
 3450 096c 08       		.byte	0x8
 3451 096d 32       		.byte	0x32
 3452 096e 00       		.byte	0
 3453 096f 0C       		.uleb128 0xc
 3454 0970 16000000 		.4byte	.LVL186
 3455 0974 90030000 		.4byte	0x390
 3456 0978 83090000 		.4byte	0x983
 3457 097c 0D       		.uleb128 0xd
 3458 097d 01       		.uleb128 0x1
 3459 097e 50       		.byte	0x50
 3460 097f 02       		.uleb128 0x2
 3461 0980 74       		.byte	0x74
 3462 0981 00       		.sleb128 0
 3463 0982 00       		.byte	0
 3464 0983 0C       		.uleb128 0xc
 3465 0984 1C000000 		.4byte	.LVL187
 3466 0988 53040000 		.4byte	0x453
 3467 098c 97090000 		.4byte	0x997
 3468 0990 0D       		.uleb128 0xd
 3469 0991 01       		.uleb128 0x1
 3470 0992 50       		.byte	0x50
 3471 0993 02       		.uleb128 0x2
ARM GAS  C:\Users\Daniel\AppData\Local\Temp\cczCpxmi.s 			page 73


 3472 0994 74       		.byte	0x74
 3473 0995 00       		.sleb128 0
 3474 0996 00       		.byte	0
 3475 0997 0C       		.uleb128 0xc
 3476 0998 26000000 		.4byte	.LVL189
 3477 099c EF000000 		.4byte	0xef
 3478 09a0 AB090000 		.4byte	0x9ab
 3479 09a4 0D       		.uleb128 0xd
 3480 09a5 01       		.uleb128 0x1
 3481 09a6 50       		.byte	0x50
 3482 09a7 02       		.uleb128 0x2
 3483 09a8 74       		.byte	0x74
 3484 09a9 00       		.sleb128 0
 3485 09aa 00       		.byte	0
 3486 09ab 0C       		.uleb128 0xc
 3487 09ac 30000000 		.4byte	.LVL190
 3488 09b0 C2010000 		.4byte	0x1c2
 3489 09b4 C5090000 		.4byte	0x9c5
 3490 09b8 0D       		.uleb128 0xd
 3491 09b9 01       		.uleb128 0x1
 3492 09ba 51       		.byte	0x51
 3493 09bb 02       		.uleb128 0x2
 3494 09bc 76       		.byte	0x76
 3495 09bd 00       		.sleb128 0
 3496 09be 0D       		.uleb128 0xd
 3497 09bf 01       		.uleb128 0x1
 3498 09c0 50       		.byte	0x50
 3499 09c1 02       		.uleb128 0x2
 3500 09c2 74       		.byte	0x74
 3501 09c3 00       		.sleb128 0
 3502 09c4 00       		.byte	0
 3503 09c5 0C       		.uleb128 0xc
 3504 09c6 3A000000 		.4byte	.LVL191
 3505 09ca 75050000 		.4byte	0x575
 3506 09ce DF090000 		.4byte	0x9df
 3507 09d2 0D       		.uleb128 0xd
 3508 09d3 01       		.uleb128 0x1
 3509 09d4 51       		.byte	0x51
 3510 09d5 02       		.uleb128 0x2
 3511 09d6 76       		.byte	0x76
 3512 09d7 00       		.sleb128 0
 3513 09d8 0D       		.uleb128 0xd
 3514 09d9 01       		.uleb128 0x1
 3515 09da 50       		.byte	0x50
 3516 09db 02       		.uleb128 0x2
 3517 09dc 74       		.byte	0x74
 3518 09dd 00       		.sleb128 0
 3519 09de 00       		.byte	0
 3520 09df 0C       		.uleb128 0xc
 3521 09e0 44000000 		.4byte	.LVL193
 3522 09e4 90030000 		.4byte	0x390
 3523 09e8 F3090000 		.4byte	0x9f3
 3524 09ec 0D       		.uleb128 0xd
 3525 09ed 01       		.uleb128 0x1
 3526 09ee 50       		.byte	0x50
 3527 09ef 02       		.uleb128 0x2
 3528 09f0 74       		.byte	0x74
ARM GAS  C:\Users\Daniel\AppData\Local\Temp\cczCpxmi.s 			page 74


 3529 09f1 00       		.sleb128 0
 3530 09f2 00       		.byte	0
 3531 09f3 0C       		.uleb128 0xc
 3532 09f4 4C000000 		.4byte	.LVL194
 3533 09f8 53040000 		.4byte	0x453
 3534 09fc 070A0000 		.4byte	0xa07
 3535 0a00 0D       		.uleb128 0xd
 3536 0a01 01       		.uleb128 0x1
 3537 0a02 50       		.byte	0x50
 3538 0a03 02       		.uleb128 0x2
 3539 0a04 74       		.byte	0x74
 3540 0a05 00       		.sleb128 0
 3541 0a06 00       		.byte	0
 3542 0a07 0B       		.uleb128 0xb
 3543 0a08 50000000 		.4byte	.LVL195
 3544 0a0c 6B100000 		.4byte	0x106b
 3545 0a10 0C       		.uleb128 0xc
 3546 0a11 58000000 		.4byte	.LVL196
 3547 0a15 160F0000 		.4byte	0xf16
 3548 0a19 250A0000 		.4byte	0xa25
 3549 0a1d 0D       		.uleb128 0xd
 3550 0a1e 01       		.uleb128 0x1
 3551 0a1f 50       		.byte	0x50
 3552 0a20 03       		.uleb128 0x3
 3553 0a21 0A       		.byte	0xa
 3554 0a22 F401     		.2byte	0x1f4
 3555 0a24 00       		.byte	0
 3556 0a25 0C       		.uleb128 0xc
 3557 0a26 64000000 		.4byte	.LVL197
 3558 0a2a 9F0F0000 		.4byte	0xf9f
 3559 0a2e 3A0A0000 		.4byte	0xa3a
 3560 0a32 0D       		.uleb128 0xd
 3561 0a33 01       		.uleb128 0x1
 3562 0a34 50       		.byte	0x50
 3563 0a35 03       		.uleb128 0x3
 3564 0a36 0A       		.byte	0xa
 3565 0a37 B80B     		.2byte	0xbb8
 3566 0a39 00       		.byte	0
 3567 0a3a 0B       		.uleb128 0xb
 3568 0a3b 86000000 		.4byte	.LVL199
 3569 0a3f 4E0F0000 		.4byte	0xf4e
 3570 0a43 0B       		.uleb128 0xb
 3571 0a44 A8000000 		.4byte	.LVL201
 3572 0a48 5F0F0000 		.4byte	0xf5f
 3573 0a4c 0B       		.uleb128 0xb
 3574 0a4d AC000000 		.4byte	.LVL202
 3575 0a51 FA080000 		.4byte	0x8fa
 3576 0a55 00       		.byte	0
 3577 0a56 1E       		.uleb128 0x1e
 3578 0a57 89030000 		.4byte	.LASF41
 3579 0a5b 01       		.byte	0x1
 3580 0a5c D501     		.2byte	0x1d5
 3581 0a5e BB010000 		.4byte	0x1bb
 3582 0a62 00000000 		.4byte	.LFB72
 3583 0a66 8C020000 		.4byte	.LFE72-.LFB72
 3584 0a6a 01       		.uleb128 0x1
 3585 0a6b 9C       		.byte	0x9c
ARM GAS  C:\Users\Daniel\AppData\Local\Temp\cczCpxmi.s 			page 75


 3586 0a6c EE0B0000 		.4byte	0xbee
 3587 0a70 15       		.uleb128 0x15
 3588 0a71 636C7200 		.ascii	"clr\000"
 3589 0a75 01       		.byte	0x1
 3590 0a76 D501     		.2byte	0x1d5
 3591 0a78 81000000 		.4byte	0x81
 3592 0a7c 31030000 		.4byte	.LLST23
 3593 0a80 18       		.uleb128 0x18
 3594 0a81 A7000000 		.4byte	.LASF30
 3595 0a85 01       		.byte	0x1
 3596 0a86 DC01     		.2byte	0x1dc
 3597 0a88 B8000000 		.4byte	0xb8
 3598 0a8c 52030000 		.4byte	.LLST24
 3599 0a90 18       		.uleb128 0x18
 3600 0a91 4E030000 		.4byte	.LASF31
 3601 0a95 01       		.byte	0x1
 3602 0a96 DC01     		.2byte	0x1dc
 3603 0a98 B8000000 		.4byte	0xb8
 3604 0a9c 8A030000 		.4byte	.LLST25
 3605 0aa0 18       		.uleb128 0x18
 3606 0aa1 AC040000 		.4byte	.LASF42
 3607 0aa5 01       		.byte	0x1
 3608 0aa6 DC01     		.2byte	0x1dc
 3609 0aa8 B8000000 		.4byte	0xb8
 3610 0aac B2030000 		.4byte	.LLST26
 3611 0ab0 18       		.uleb128 0x18
 3612 0ab1 08010000 		.4byte	.LASF43
 3613 0ab5 01       		.byte	0x1
 3614 0ab6 DD01     		.2byte	0x1dd
 3615 0ab8 68000000 		.4byte	0x68
 3616 0abc 0E040000 		.4byte	.LLST27
 3617 0ac0 18       		.uleb128 0x18
 3618 0ac1 10010000 		.4byte	.LASF44
 3619 0ac5 01       		.byte	0x1
 3620 0ac6 DD01     		.2byte	0x1dd
 3621 0ac8 68000000 		.4byte	0x68
 3622 0acc 4D040000 		.4byte	.LLST28
 3623 0ad0 18       		.uleb128 0x18
 3624 0ad1 D2010000 		.4byte	.LASF45
 3625 0ad5 01       		.byte	0x1
 3626 0ad6 DF01     		.2byte	0x1df
 3627 0ad8 BB010000 		.4byte	0x1bb
 3628 0adc 76040000 		.4byte	.LLST29
 3629 0ae0 17       		.uleb128 0x17
 3630 0ae1 66000000 		.4byte	.LASF46
 3631 0ae5 01       		.byte	0x1
 3632 0ae6 E401     		.2byte	0x1e4
 3633 0ae8 BB010000 		.4byte	0x1bb
 3634 0aec 00       		.byte	0
 3635 0aed 0C       		.uleb128 0xc
 3636 0aee 0E000000 		.4byte	.LVL206
 3637 0af2 E80F0000 		.4byte	0xfe8
 3638 0af6 010B0000 		.4byte	0xb01
 3639 0afa 0D       		.uleb128 0xd
 3640 0afb 01       		.uleb128 0x1
 3641 0afc 50       		.byte	0x50
 3642 0afd 02       		.uleb128 0x2
ARM GAS  C:\Users\Daniel\AppData\Local\Temp\cczCpxmi.s 			page 76


 3643 0afe 08       		.byte	0x8
 3644 0aff B4       		.byte	0xb4
 3645 0b00 00       		.byte	0
 3646 0b01 0C       		.uleb128 0xc
 3647 0b02 14000000 		.4byte	.LVL207
 3648 0b06 160F0000 		.4byte	0xf16
 3649 0b0a 140B0000 		.4byte	0xb14
 3650 0b0e 0D       		.uleb128 0xd
 3651 0b0f 01       		.uleb128 0x1
 3652 0b10 50       		.byte	0x50
 3653 0b11 01       		.uleb128 0x1
 3654 0b12 44       		.byte	0x44
 3655 0b13 00       		.byte	0
 3656 0b14 0B       		.uleb128 0xb
 3657 0b15 18000000 		.4byte	.LVL208
 3658 0b19 270F0000 		.4byte	0xf27
 3659 0b1d 0C       		.uleb128 0xc
 3660 0b1e 1E000000 		.4byte	.LVL209
 3661 0b22 78100000 		.4byte	0x1078
 3662 0b26 310B0000 		.4byte	0xb31
 3663 0b2a 0D       		.uleb128 0xd
 3664 0b2b 01       		.uleb128 0x1
 3665 0b2c 50       		.byte	0x50
 3666 0b2d 02       		.uleb128 0x2
 3667 0b2e 79       		.byte	0x79
 3668 0b2f 00       		.sleb128 0
 3669 0b30 00       		.byte	0
 3670 0b31 0B       		.uleb128 0xb
 3671 0b32 A0000000 		.4byte	.LVL223
 3672 0b36 700F0000 		.4byte	0xf70
 3673 0b3a 0B       		.uleb128 0xb
 3674 0b3b C8000000 		.4byte	.LVL228
 3675 0b3f 8D100000 		.4byte	0x108d
 3676 0b43 0B       		.uleb128 0xb
 3677 0b44 F2000000 		.4byte	.LVL233
 3678 0b48 5F0F0000 		.4byte	0xf5f
 3679 0b4c 0B       		.uleb128 0xb
 3680 0b4d 14010000 		.4byte	.LVL239
 3681 0b51 700F0000 		.4byte	0xf70
 3682 0b55 0B       		.uleb128 0xb
 3683 0b56 3C010000 		.4byte	.LVL244
 3684 0b5a 8D100000 		.4byte	0x108d
 3685 0b5e 0B       		.uleb128 0xb
 3686 0b5f 60010000 		.4byte	.LVL248
 3687 0b63 4E0F0000 		.4byte	0xf4e
 3688 0b67 0B       		.uleb128 0xb
 3689 0b68 74010000 		.4byte	.LVL252
 3690 0b6c 270F0000 		.4byte	0xf27
 3691 0b70 0C       		.uleb128 0xc
 3692 0b71 7A010000 		.4byte	.LVL253
 3693 0b75 78100000 		.4byte	0x1078
 3694 0b79 840B0000 		.4byte	0xb84
 3695 0b7d 0D       		.uleb128 0xd
 3696 0b7e 01       		.uleb128 0x1
 3697 0b7f 50       		.byte	0x50
 3698 0b80 02       		.uleb128 0x2
 3699 0b81 79       		.byte	0x79
ARM GAS  C:\Users\Daniel\AppData\Local\Temp\cczCpxmi.s 			page 77


 3700 0b82 00       		.sleb128 0
 3701 0b83 00       		.byte	0
 3702 0b84 0B       		.uleb128 0xb
 3703 0b85 C0010000 		.4byte	.LVL261
 3704 0b89 CE0F0000 		.4byte	0xfce
 3705 0b8d 0B       		.uleb128 0xb
 3706 0b8e D2010000 		.4byte	.LVL264
 3707 0b92 B00F0000 		.4byte	0xfb0
 3708 0b96 0B       		.uleb128 0xb
 3709 0b97 D6010000 		.4byte	.LVL265
 3710 0b9b 270F0000 		.4byte	0xf27
 3711 0b9f 0C       		.uleb128 0xc
 3712 0ba0 DC010000 		.4byte	.LVL266
 3713 0ba4 78100000 		.4byte	0x1078
 3714 0ba8 B30B0000 		.4byte	0xbb3
 3715 0bac 0D       		.uleb128 0xd
 3716 0bad 01       		.uleb128 0x1
 3717 0bae 50       		.byte	0x50
 3718 0baf 02       		.uleb128 0x2
 3719 0bb0 79       		.byte	0x79
 3720 0bb1 00       		.sleb128 0
 3721 0bb2 00       		.byte	0
 3722 0bb3 0C       		.uleb128 0xc
 3723 0bb4 14020000 		.4byte	.LVL274
 3724 0bb8 B00F0000 		.4byte	0xfb0
 3725 0bbc C80B0000 		.4byte	0xbc8
 3726 0bc0 0D       		.uleb128 0xd
 3727 0bc1 01       		.uleb128 0x1
 3728 0bc2 50       		.byte	0x50
 3729 0bc3 03       		.uleb128 0x3
 3730 0bc4 0A       		.byte	0xa
 3731 0bc5 9001     		.2byte	0x190
 3732 0bc7 00       		.byte	0
 3733 0bc8 0C       		.uleb128 0xc
 3734 0bc9 20020000 		.4byte	.LVL275
 3735 0bcd 9F0F0000 		.4byte	0xf9f
 3736 0bd1 DD0B0000 		.4byte	0xbdd
 3737 0bd5 0D       		.uleb128 0xd
 3738 0bd6 01       		.uleb128 0x1
 3739 0bd7 50       		.byte	0x50
 3740 0bd8 03       		.uleb128 0x3
 3741 0bd9 0A       		.byte	0xa
 3742 0bda F401     		.2byte	0x1f4
 3743 0bdc 00       		.byte	0
 3744 0bdd 12       		.uleb128 0x12
 3745 0bde 2E020000 		.4byte	.LVL276
 3746 0be2 9F0F0000 		.4byte	0xf9f
 3747 0be6 0D       		.uleb128 0xd
 3748 0be7 01       		.uleb128 0x1
 3749 0be8 50       		.byte	0x50
 3750 0be9 02       		.uleb128 0x2
 3751 0bea 08       		.byte	0x8
 3752 0beb 64       		.byte	0x64
 3753 0bec 00       		.byte	0
 3754 0bed 00       		.byte	0
 3755 0bee 1D       		.uleb128 0x1d
 3756 0bef 13030000 		.4byte	.LASF47
ARM GAS  C:\Users\Daniel\AppData\Local\Temp\cczCpxmi.s 			page 78


 3757 0bf3 01       		.byte	0x1
 3758 0bf4 8F01     		.2byte	0x18f
 3759 0bf6 00000000 		.4byte	.LFB71
 3760 0bfa 04030000 		.4byte	.LFE71-.LFB71
 3761 0bfe 01       		.uleb128 0x1
 3762 0bff 9C       		.byte	0x9c
 3763 0c00 F50D0000 		.4byte	0xdf5
 3764 0c04 15       		.uleb128 0x15
 3765 0c05 636C7200 		.ascii	"clr\000"
 3766 0c09 01       		.byte	0x1
 3767 0c0a 8F01     		.2byte	0x18f
 3768 0c0c 81000000 		.4byte	0x81
 3769 0c10 9F040000 		.4byte	.LLST30
 3770 0c14 1F       		.uleb128 0x1f
 3771 0c15 E3030000 		.4byte	.LASF87
 3772 0c19 01       		.byte	0x1
 3773 0c1a 9B01     		.2byte	0x19b
 3774 0c1c 68000000 		.4byte	0x68
 3775 0c20 18       		.uleb128 0x18
 3776 0c21 A7000000 		.4byte	.LASF30
 3777 0c25 01       		.byte	0x1
 3778 0c26 9C01     		.2byte	0x19c
 3779 0c28 B8000000 		.4byte	0xb8
 3780 0c2c C0040000 		.4byte	.LLST31
 3781 0c30 18       		.uleb128 0x18
 3782 0c31 4E030000 		.4byte	.LASF31
 3783 0c35 01       		.byte	0x1
 3784 0c36 9C01     		.2byte	0x19c
 3785 0c38 B8000000 		.4byte	0xb8
 3786 0c3c E8040000 		.4byte	.LLST32
 3787 0c40 18       		.uleb128 0x18
 3788 0c41 08010000 		.4byte	.LASF43
 3789 0c45 01       		.byte	0x1
 3790 0c46 9D01     		.2byte	0x19d
 3791 0c48 68000000 		.4byte	0x68
 3792 0c4c 10050000 		.4byte	.LLST33
 3793 0c50 18       		.uleb128 0x18
 3794 0c51 10010000 		.4byte	.LASF44
 3795 0c55 01       		.byte	0x1
 3796 0c56 9D01     		.2byte	0x19d
 3797 0c58 68000000 		.4byte	0x68
 3798 0c5c 4F050000 		.4byte	.LLST34
 3799 0c60 18       		.uleb128 0x18
 3800 0c61 66000000 		.4byte	.LASF46
 3801 0c65 01       		.byte	0x1
 3802 0c66 A301     		.2byte	0x1a3
 3803 0c68 BB010000 		.4byte	0x1bb
 3804 0c6c 99050000 		.4byte	.LLST35
 3805 0c70 0B       		.uleb128 0xb
 3806 0c71 0A000000 		.4byte	.LVL283
 3807 0c75 5E100000 		.4byte	0x105e
 3808 0c79 0C       		.uleb128 0xc
 3809 0c7a 10000000 		.4byte	.LVL284
 3810 0c7e 160F0000 		.4byte	0xf16
 3811 0c82 8D0C0000 		.4byte	0xc8d
 3812 0c86 0D       		.uleb128 0xd
 3813 0c87 01       		.uleb128 0x1
ARM GAS  C:\Users\Daniel\AppData\Local\Temp\cczCpxmi.s 			page 79


 3814 0c88 50       		.byte	0x50
 3815 0c89 02       		.uleb128 0x2
 3816 0c8a 08       		.byte	0x8
 3817 0c8b C8       		.byte	0xc8
 3818 0c8c 00       		.byte	0
 3819 0c8d 0B       		.uleb128 0xb
 3820 0c8e 14000000 		.4byte	.LVL285
 3821 0c92 090F0000 		.4byte	0xf09
 3822 0c96 0C       		.uleb128 0xc
 3823 0c97 1A000000 		.4byte	.LVL286
 3824 0c9b 160F0000 		.4byte	0xf16
 3825 0c9f AA0C0000 		.4byte	0xcaa
 3826 0ca3 0D       		.uleb128 0xd
 3827 0ca4 01       		.uleb128 0x1
 3828 0ca5 50       		.byte	0x50
 3829 0ca6 02       		.uleb128 0x2
 3830 0ca7 08       		.byte	0x8
 3831 0ca8 C8       		.byte	0xc8
 3832 0ca9 00       		.byte	0
 3833 0caa 0C       		.uleb128 0xc
 3834 0cab 20000000 		.4byte	.LVL287
 3835 0caf E80F0000 		.4byte	0xfe8
 3836 0cb3 BE0C0000 		.4byte	0xcbe
 3837 0cb7 0D       		.uleb128 0xd
 3838 0cb8 01       		.uleb128 0x1
 3839 0cb9 50       		.byte	0x50
 3840 0cba 02       		.uleb128 0x2
 3841 0cbb 08       		.byte	0x8
 3842 0cbc A2       		.byte	0xa2
 3843 0cbd 00       		.byte	0
 3844 0cbe 0C       		.uleb128 0xc
 3845 0cbf 26000000 		.4byte	.LVL288
 3846 0cc3 160F0000 		.4byte	0xf16
 3847 0cc7 D10C0000 		.4byte	0xcd1
 3848 0ccb 0D       		.uleb128 0xd
 3849 0ccc 01       		.uleb128 0x1
 3850 0ccd 50       		.byte	0x50
 3851 0cce 01       		.uleb128 0x1
 3852 0ccf 44       		.byte	0x44
 3853 0cd0 00       		.byte	0
 3854 0cd1 0B       		.uleb128 0xb
 3855 0cd2 2A000000 		.4byte	.LVL289
 3856 0cd6 270F0000 		.4byte	0xf27
 3857 0cda 0C       		.uleb128 0xc
 3858 0cdb 30000000 		.4byte	.LVL290
 3859 0cdf 78100000 		.4byte	0x1078
 3860 0ce3 EE0C0000 		.4byte	0xcee
 3861 0ce7 0D       		.uleb128 0xd
 3862 0ce8 01       		.uleb128 0x1
 3863 0ce9 50       		.byte	0x50
 3864 0cea 02       		.uleb128 0x2
 3865 0ceb 75       		.byte	0x75
 3866 0cec 00       		.sleb128 0
 3867 0ced 00       		.byte	0
 3868 0cee 0B       		.uleb128 0xb
 3869 0cef B2000000 		.4byte	.LVL302
 3870 0cf3 700F0000 		.4byte	0xf70
ARM GAS  C:\Users\Daniel\AppData\Local\Temp\cczCpxmi.s 			page 80


 3871 0cf7 0B       		.uleb128 0xb
 3872 0cf8 DC000000 		.4byte	.LVL307
 3873 0cfc 8D100000 		.4byte	0x108d
 3874 0d00 0B       		.uleb128 0xb
 3875 0d01 E4000000 		.4byte	.LVL309
 3876 0d05 5F0F0000 		.4byte	0xf5f
 3877 0d09 0B       		.uleb128 0xb
 3878 0d0a 1E010000 		.4byte	.LVL318
 3879 0d0e 700F0000 		.4byte	0xf70
 3880 0d12 0B       		.uleb128 0xb
 3881 0d13 48010000 		.4byte	.LVL323
 3882 0d17 8D100000 		.4byte	0x108d
 3883 0d1b 0B       		.uleb128 0xb
 3884 0d1c 50010000 		.4byte	.LVL325
 3885 0d20 4E0F0000 		.4byte	0xf4e
 3886 0d24 0B       		.uleb128 0xb
 3887 0d25 6A010000 		.4byte	.LVL330
 3888 0d29 270F0000 		.4byte	0xf27
 3889 0d2d 0C       		.uleb128 0xc
 3890 0d2e 70010000 		.4byte	.LVL331
 3891 0d32 78100000 		.4byte	0x1078
 3892 0d36 410D0000 		.4byte	0xd41
 3893 0d3a 0D       		.uleb128 0xd
 3894 0d3b 01       		.uleb128 0x1
 3895 0d3c 50       		.byte	0x50
 3896 0d3d 02       		.uleb128 0x2
 3897 0d3e 75       		.byte	0x75
 3898 0d3f 00       		.sleb128 0
 3899 0d40 00       		.byte	0
 3900 0d41 0B       		.uleb128 0xb
 3901 0d42 BA010000 		.4byte	.LVL338
 3902 0d46 CE0F0000 		.4byte	0xfce
 3903 0d4a 0B       		.uleb128 0xb
 3904 0d4b CE010000 		.4byte	.LVL341
 3905 0d4f B00F0000 		.4byte	0xfb0
 3906 0d53 0B       		.uleb128 0xb
 3907 0d54 D2010000 		.4byte	.LVL342
 3908 0d58 270F0000 		.4byte	0xf27
 3909 0d5c 0C       		.uleb128 0xc
 3910 0d5d D8010000 		.4byte	.LVL343
 3911 0d61 78100000 		.4byte	0x1078
 3912 0d65 700D0000 		.4byte	0xd70
 3913 0d69 0D       		.uleb128 0xd
 3914 0d6a 01       		.uleb128 0x1
 3915 0d6b 50       		.byte	0x50
 3916 0d6c 02       		.uleb128 0x2
 3917 0d6d 75       		.byte	0x75
 3918 0d6e 00       		.sleb128 0
 3919 0d6f 00       		.byte	0
 3920 0d70 0C       		.uleb128 0xc
 3921 0d71 22020000 		.4byte	.LVL352
 3922 0d75 560A0000 		.4byte	0xa56
 3923 0d79 840D0000 		.4byte	0xd84
 3924 0d7d 0D       		.uleb128 0xd
 3925 0d7e 01       		.uleb128 0x1
 3926 0d7f 50       		.byte	0x50
 3927 0d80 02       		.uleb128 0x2
ARM GAS  C:\Users\Daniel\AppData\Local\Temp\cczCpxmi.s 			page 81


 3928 0d81 75       		.byte	0x75
 3929 0d82 00       		.sleb128 0
 3930 0d83 00       		.byte	0
 3931 0d84 0C       		.uleb128 0xc
 3932 0d85 2A020000 		.4byte	.LVL354
 3933 0d89 E80F0000 		.4byte	0xfe8
 3934 0d8d 980D0000 		.4byte	0xd98
 3935 0d91 0D       		.uleb128 0xd
 3936 0d92 01       		.uleb128 0x1
 3937 0d93 50       		.byte	0x50
 3938 0d94 02       		.uleb128 0x2
 3939 0d95 08       		.byte	0x8
 3940 0d96 A2       		.byte	0xa2
 3941 0d97 00       		.byte	0
 3942 0d98 0C       		.uleb128 0xc
 3943 0d99 30020000 		.4byte	.LVL355
 3944 0d9d 160F0000 		.4byte	0xf16
 3945 0da1 AC0D0000 		.4byte	0xdac
 3946 0da5 0D       		.uleb128 0xd
 3947 0da6 01       		.uleb128 0x1
 3948 0da7 50       		.byte	0x50
 3949 0da8 02       		.uleb128 0x2
 3950 0da9 08       		.byte	0x8
 3951 0daa C8       		.byte	0xc8
 3952 0dab 00       		.byte	0
 3953 0dac 0B       		.uleb128 0xb
 3954 0dad 34020000 		.4byte	.LVL356
 3955 0db1 270F0000 		.4byte	0xf27
 3956 0db5 0C       		.uleb128 0xc
 3957 0db6 3A020000 		.4byte	.LVL357
 3958 0dba 78100000 		.4byte	0x1078
 3959 0dbe C90D0000 		.4byte	0xdc9
 3960 0dc2 0D       		.uleb128 0xd
 3961 0dc3 01       		.uleb128 0x1
 3962 0dc4 50       		.byte	0x50
 3963 0dc5 02       		.uleb128 0x2
 3964 0dc6 75       		.byte	0x75
 3965 0dc7 00       		.sleb128 0
 3966 0dc8 00       		.byte	0
 3967 0dc9 0B       		.uleb128 0xb
 3968 0dca 76020000 		.4byte	.LVL365
 3969 0dce CE0F0000 		.4byte	0xfce
 3970 0dd2 0B       		.uleb128 0xb
 3971 0dd3 8A020000 		.4byte	.LVL368
 3972 0dd7 B00F0000 		.4byte	0xfb0
 3973 0ddb 0B       		.uleb128 0xb
 3974 0ddc 8E020000 		.4byte	.LVL369
 3975 0de0 270F0000 		.4byte	0xf27
 3976 0de4 12       		.uleb128 0x12
 3977 0de5 94020000 		.4byte	.LVL370
 3978 0de9 78100000 		.4byte	0x1078
 3979 0ded 0D       		.uleb128 0xd
 3980 0dee 01       		.uleb128 0x1
 3981 0def 50       		.byte	0x50
 3982 0df0 02       		.uleb128 0x2
 3983 0df1 75       		.byte	0x75
 3984 0df2 00       		.sleb128 0
ARM GAS  C:\Users\Daniel\AppData\Local\Temp\cczCpxmi.s 			page 82


 3985 0df3 00       		.byte	0
 3986 0df4 00       		.byte	0
 3987 0df5 20       		.uleb128 0x20
 3988 0df6 4C020000 		.4byte	.LASF48
 3989 0dfa 05       		.byte	0x5
 3990 0dfb 9606     		.2byte	0x696
 3991 0dfd 010E0000 		.4byte	0xe01
 3992 0e01 21       		.uleb128 0x21
 3993 0e02 76000000 		.4byte	0x76
 3994 0e06 22       		.uleb128 0x22
 3995 0e07 99000000 		.4byte	0x99
 3996 0e0b 160E0000 		.4byte	0xe16
 3997 0e0f 23       		.uleb128 0x23
 3998 0e10 C6000000 		.4byte	0xc6
 3999 0e14 9F       		.byte	0x9f
 4000 0e15 00       		.byte	0
 4001 0e16 24       		.uleb128 0x24
 4002 0e17 CF020000 		.4byte	.LASF49
 4003 0e1b 06       		.byte	0x6
 4004 0e1c 13       		.byte	0x13
 4005 0e1d 060E0000 		.4byte	0xe06
 4006 0e21 05       		.uleb128 0x5
 4007 0e22 03       		.byte	0x3
 4008 0e23 00000000 		.4byte	Camera_linebuffer
 4009 0e27 24       		.uleb128 0x24
 4010 0e28 00000000 		.4byte	.LASF50
 4011 0e2c 07       		.byte	0x7
 4012 0e2d 21       		.byte	0x21
 4013 0e2e D4000000 		.4byte	0xd4
 4014 0e32 05       		.uleb128 0x5
 4015 0e33 03       		.byte	0x3
 4016 0e34 00000000 		.4byte	display_mode
 4017 0e38 25       		.uleb128 0x25
 4018 0e39 17000000 		.4byte	.LASF51
 4019 0e3d 01       		.byte	0x1
 4020 0e3e 1C       		.byte	0x1c
 4021 0e3f 8D000000 		.4byte	0x8d
 4022 0e43 25       		.uleb128 0x25
 4023 0e44 20000000 		.4byte	.LASF52
 4024 0e48 01       		.byte	0x1
 4025 0e49 1D       		.byte	0x1d
 4026 0e4a 8D000000 		.4byte	0x8d
 4027 0e4e 25       		.uleb128 0x25
 4028 0e4f 46030000 		.4byte	.LASF53
 4029 0e53 01       		.byte	0x1
 4030 0e54 1E       		.byte	0x1e
 4031 0e55 8D000000 		.4byte	0x8d
 4032 0e59 25       		.uleb128 0x25
 4033 0e5a D1000000 		.4byte	.LASF54
 4034 0e5e 01       		.byte	0x1
 4035 0e5f 1F       		.byte	0x1f
 4036 0e60 6E070000 		.4byte	0x76e
 4037 0e64 25       		.uleb128 0x25
 4038 0e65 E5010000 		.4byte	.LASF55
 4039 0e69 01       		.byte	0x1
 4040 0e6a 20       		.byte	0x20
 4041 0e6b 69070000 		.4byte	0x769
ARM GAS  C:\Users\Daniel\AppData\Local\Temp\cczCpxmi.s 			page 83


 4042 0e6f 25       		.uleb128 0x25
 4043 0e70 8D010000 		.4byte	.LASF56
 4044 0e74 01       		.byte	0x1
 4045 0e75 24       		.byte	0x24
 4046 0e76 6E070000 		.4byte	0x76e
 4047 0e7a 22       		.uleb128 0x22
 4048 0e7b 81000000 		.4byte	0x81
 4049 0e7f 8A0E0000 		.4byte	0xe8a
 4050 0e83 23       		.uleb128 0x23
 4051 0e84 C6000000 		.4byte	0xc6
 4052 0e88 04       		.byte	0x4
 4053 0e89 00       		.byte	0
 4054 0e8a 25       		.uleb128 0x25
 4055 0e8b A6010000 		.4byte	.LASF57
 4056 0e8f 01       		.byte	0x1
 4057 0e90 25       		.byte	0x25
 4058 0e91 7A0E0000 		.4byte	0xe7a
 4059 0e95 22       		.uleb128 0x22
 4060 0e96 8D000000 		.4byte	0x8d
 4061 0e9a A50E0000 		.4byte	0xea5
 4062 0e9e 23       		.uleb128 0x23
 4063 0e9f C6000000 		.4byte	0xc6
 4064 0ea3 04       		.byte	0x4
 4065 0ea4 00       		.byte	0
 4066 0ea5 25       		.uleb128 0x25
 4067 0ea6 31010000 		.4byte	.LASF58
 4068 0eaa 01       		.byte	0x1
 4069 0eab 26       		.byte	0x26
 4070 0eac 950E0000 		.4byte	0xe95
 4071 0eb0 24       		.uleb128 0x24
 4072 0eb1 86040000 		.4byte	.LASF59
 4073 0eb5 01       		.byte	0x1
 4074 0eb6 28       		.byte	0x28
 4075 0eb7 6E070000 		.4byte	0x76e
 4076 0ebb 05       		.uleb128 0x5
 4077 0ebc 03       		.byte	0x3
 4078 0ebd 00000000 		.4byte	CAMERA_Y_OFFSET
 4079 0ec1 24       		.uleb128 0x24
 4080 0ec2 B7030000 		.4byte	.LASF60
 4081 0ec6 01       		.byte	0x1
 4082 0ec7 29       		.byte	0x29
 4083 0ec8 6E070000 		.4byte	0x76e
 4084 0ecc 05       		.uleb128 0x5
 4085 0ecd 03       		.byte	0x3
 4086 0ece 00000000 		.4byte	CAMERA_X_OFFSET
 4087 0ed2 26       		.uleb128 0x26
 4088 0ed3 504900   		.ascii	"PI\000"
 4089 0ed6 01       		.byte	0x1
 4090 0ed7 2A       		.byte	0x2a
 4091 0ed8 E20E0000 		.4byte	0xee2
 4092 0edc 05       		.uleb128 0x5
 4093 0edd 03       		.byte	0x3
 4094 0ede 00000000 		.4byte	PI
 4095 0ee2 1A       		.uleb128 0x1a
 4096 0ee3 B8000000 		.4byte	0xb8
 4097 0ee7 24       		.uleb128 0x24
 4098 0ee8 B5040000 		.4byte	.LASF61
ARM GAS  C:\Users\Daniel\AppData\Local\Temp\cczCpxmi.s 			page 84


 4099 0eec 01       		.byte	0x1
 4100 0eed 2B       		.byte	0x2b
 4101 0eee E20E0000 		.4byte	0xee2
 4102 0ef2 05       		.uleb128 0x5
 4103 0ef3 03       		.byte	0x3
 4104 0ef4 00000000 		.4byte	corrFact
 4105 0ef8 24       		.uleb128 0x24
 4106 0ef9 B7020000 		.4byte	.LASF62
 4107 0efd 01       		.byte	0x1
 4108 0efe 2D       		.byte	0x2d
 4109 0eff 8D000000 		.4byte	0x8d
 4110 0f03 05       		.uleb128 0x5
 4111 0f04 03       		.byte	0x3
 4112 0f05 00000000 		.4byte	angleTotal
 4113 0f09 27       		.uleb128 0x27
 4114 0f0a CE040000 		.4byte	.LASF63
 4115 0f0e 08       		.byte	0x8
 4116 0f0f 26       		.byte	0x26
 4117 0f10 160F0000 		.4byte	0xf16
 4118 0f14 28       		.uleb128 0x28
 4119 0f15 00       		.byte	0
 4120 0f16 29       		.uleb128 0x29
 4121 0f17 C6040000 		.4byte	.LASF65
 4122 0f1b 0A       		.byte	0xa
 4123 0f1c 76       		.byte	0x76
 4124 0f1d 270F0000 		.4byte	0xf27
 4125 0f21 2A       		.uleb128 0x2a
 4126 0f22 99000000 		.4byte	0x99
 4127 0f26 00       		.byte	0
 4128 0f27 27       		.uleb128 0x27
 4129 0f28 B4000000 		.4byte	.LASF64
 4130 0f2c 09       		.byte	0x9
 4131 0f2d 1D       		.byte	0x1d
 4132 0f2e 340F0000 		.4byte	0xf34
 4133 0f32 28       		.uleb128 0x28
 4134 0f33 00       		.byte	0
 4135 0f34 2B       		.uleb128 0x2b
 4136 0f35 C7030000 		.4byte	.LASF68
 4137 0f39 0C       		.byte	0xc
 4138 0f3a 17       		.byte	0x17
 4139 0f3b BB010000 		.4byte	0x1bb
 4140 0f3f 4E0F0000 		.4byte	0xf4e
 4141 0f43 2A       		.uleb128 0x2a
 4142 0f44 81000000 		.4byte	0x81
 4143 0f48 2A       		.uleb128 0x2a
 4144 0f49 8D000000 		.4byte	0x8d
 4145 0f4d 00       		.byte	0
 4146 0f4e 29       		.uleb128 0x29
 4147 0f4f 71000000 		.4byte	.LASF66
 4148 0f53 0B       		.byte	0xb
 4149 0f54 24       		.byte	0x24
 4150 0f55 5F0F0000 		.4byte	0xf5f
 4151 0f59 2A       		.uleb128 0x2a
 4152 0f5a B8000000 		.4byte	0xb8
 4153 0f5e 00       		.byte	0
 4154 0f5f 29       		.uleb128 0x29
 4155 0f60 6A020000 		.4byte	.LASF67
ARM GAS  C:\Users\Daniel\AppData\Local\Temp\cczCpxmi.s 			page 85


 4156 0f64 0B       		.byte	0xb
 4157 0f65 23       		.byte	0x23
 4158 0f66 700F0000 		.4byte	0xf70
 4159 0f6a 2A       		.uleb128 0x2a
 4160 0f6b B8000000 		.4byte	0xb8
 4161 0f6f 00       		.byte	0
 4162 0f70 2B       		.uleb128 0x2b
 4163 0f71 6D030000 		.4byte	.LASF69
 4164 0f75 0D       		.byte	0xd
 4165 0f76 6C       		.byte	0x6c
 4166 0f77 B8000000 		.4byte	0xb8
 4167 0f7b 850F0000 		.4byte	0xf85
 4168 0f7f 2A       		.uleb128 0x2a
 4169 0f80 B8000000 		.4byte	0xb8
 4170 0f84 00       		.byte	0
 4171 0f85 27       		.uleb128 0x27
 4172 0f86 5C030000 		.4byte	.LASF70
 4173 0f8a 0C       		.byte	0xc
 4174 0f8b 1B       		.byte	0x1b
 4175 0f8c 920F0000 		.4byte	0xf92
 4176 0f90 28       		.uleb128 0x28
 4177 0f91 00       		.byte	0
 4178 0f92 27       		.uleb128 0x27
 4179 0f93 9D000000 		.4byte	.LASF71
 4180 0f97 08       		.byte	0x8
 4181 0f98 1C       		.byte	0x1c
 4182 0f99 9F0F0000 		.4byte	0xf9f
 4183 0f9d 28       		.uleb128 0x28
 4184 0f9e 00       		.byte	0
 4185 0f9f 29       		.uleb128 0x29
 4186 0fa0 59020000 		.4byte	.LASF72
 4187 0fa4 0B       		.byte	0xb
 4188 0fa5 26       		.byte	0x26
 4189 0fa6 B00F0000 		.4byte	0xfb0
 4190 0faa 2A       		.uleb128 0x2a
 4191 0fab 8D000000 		.4byte	0x8d
 4192 0faf 00       		.byte	0
 4193 0fb0 29       		.uleb128 0x29
 4194 0fb1 83000000 		.4byte	.LASF73
 4195 0fb5 0B       		.byte	0xb
 4196 0fb6 25       		.byte	0x25
 4197 0fb7 C10F0000 		.4byte	0xfc1
 4198 0fbb 2A       		.uleb128 0x2a
 4199 0fbc 8D000000 		.4byte	0x8d
 4200 0fc0 00       		.byte	0
 4201 0fc1 27       		.uleb128 0x27
 4202 0fc2 F1000000 		.4byte	.LASF74
 4203 0fc6 08       		.byte	0x8
 4204 0fc7 1A       		.byte	0x1a
 4205 0fc8 CE0F0000 		.4byte	0xfce
 4206 0fcc 28       		.uleb128 0x28
 4207 0fcd 00       		.byte	0
 4208 0fce 2C       		.uleb128 0x2c
 4209 0fcf 706F7700 		.ascii	"pow\000"
 4210 0fd3 0D       		.byte	0xd
 4211 0fd4 85       		.byte	0x85
 4212 0fd5 B8000000 		.4byte	0xb8
ARM GAS  C:\Users\Daniel\AppData\Local\Temp\cczCpxmi.s 			page 86


 4213 0fd9 E80F0000 		.4byte	0xfe8
 4214 0fdd 2A       		.uleb128 0x2a
 4215 0fde B8000000 		.4byte	0xb8
 4216 0fe2 2A       		.uleb128 0x2a
 4217 0fe3 B8000000 		.4byte	0xb8
 4218 0fe7 00       		.byte	0
 4219 0fe8 29       		.uleb128 0x29
 4220 0fe9 A1020000 		.4byte	.LASF75
 4221 0fed 0E       		.byte	0xe
 4222 0fee C3       		.byte	0xc3
 4223 0fef F90F0000 		.4byte	0xff9
 4224 0ff3 2A       		.uleb128 0x2a
 4225 0ff4 8D000000 		.4byte	0x8d
 4226 0ff8 00       		.byte	0
 4227 0ff9 29       		.uleb128 0x29
 4228 0ffa D9000000 		.4byte	.LASF76
 4229 0ffe 07       		.byte	0x7
 4230 0fff 2C       		.byte	0x2c
 4231 1000 19100000 		.4byte	0x1019
 4232 1004 2A       		.uleb128 0x2a
 4233 1005 8D000000 		.4byte	0x8d
 4234 1009 2A       		.uleb128 0x2a
 4235 100a 81000000 		.4byte	0x81
 4236 100e 2A       		.uleb128 0x2a
 4237 100f 81000000 		.4byte	0x81
 4238 1013 2A       		.uleb128 0x2a
 4239 1014 81000000 		.4byte	0x81
 4240 1018 00       		.byte	0
 4241 1019 29       		.uleb128 0x29
 4242 101a 38000000 		.4byte	.LASF77
 4243 101e 07       		.byte	0x7
 4244 101f 26       		.byte	0x26
 4245 1020 4D100000 		.4byte	0x104d
 4246 1024 2A       		.uleb128 0x2a
 4247 1025 A5000000 		.4byte	0xa5
 4248 1029 2A       		.uleb128 0x2a
 4249 102a A5000000 		.4byte	0xa5
 4250 102e 2A       		.uleb128 0x2a
 4251 102f A5000000 		.4byte	0xa5
 4252 1033 2A       		.uleb128 0x2a
 4253 1034 A5000000 		.4byte	0xa5
 4254 1038 2A       		.uleb128 0x2a
 4255 1039 A5000000 		.4byte	0xa5
 4256 103d 2A       		.uleb128 0x2a
 4257 103e A5000000 		.4byte	0xa5
 4258 1042 2A       		.uleb128 0x2a
 4259 1043 A5000000 		.4byte	0xa5
 4260 1047 2A       		.uleb128 0x2a
 4261 1048 A5000000 		.4byte	0xa5
 4262 104c 00       		.byte	0
 4263 104d 2D       		.uleb128 0x2d
 4264 104e 18010000 		.4byte	.LASF78
 4265 1052 0C       		.byte	0xc
 4266 1053 19       		.byte	0x19
 4267 1054 BB010000 		.4byte	0x1bb
 4268 1058 5E100000 		.4byte	0x105e
 4269 105c 28       		.uleb128 0x28
ARM GAS  C:\Users\Daniel\AppData\Local\Temp\cczCpxmi.s 			page 87


 4270 105d 00       		.byte	0
 4271 105e 27       		.uleb128 0x27
 4272 105f DC030000 		.4byte	.LASF79
 4273 1063 08       		.byte	0x8
 4274 1064 2A       		.byte	0x2a
 4275 1065 6B100000 		.4byte	0x106b
 4276 1069 28       		.uleb128 0x28
 4277 106a 00       		.byte	0
 4278 106b 27       		.uleb128 0x27
 4279 106c 00030000 		.4byte	.LASF80
 4280 1070 0C       		.byte	0xc
 4281 1071 14       		.byte	0x14
 4282 1072 78100000 		.4byte	0x1078
 4283 1076 28       		.uleb128 0x28
 4284 1077 00       		.byte	0
 4285 1078 2B       		.uleb128 0x2b
 4286 1079 18020000 		.4byte	.LASF81
 4287 107d 0C       		.byte	0xc
 4288 107e 1A       		.byte	0x1a
 4289 107f BB010000 		.4byte	0x1bb
 4290 1083 8D100000 		.4byte	0x108d
 4291 1087 2A       		.uleb128 0x2a
 4292 1088 81000000 		.4byte	0x81
 4293 108c 00       		.byte	0
 4294 108d 2E       		.uleb128 0x2e
 4295 108e A7040000 		.4byte	.LASF82
 4296 1092 0D       		.byte	0xd
 4297 1093 0F01     		.2byte	0x10f
 4298 1095 B8000000 		.4byte	0xb8
 4299 1099 2A       		.uleb128 0x2a
 4300 109a B8000000 		.4byte	0xb8
 4301 109e 00       		.byte	0
 4302 109f 00       		.byte	0
 4303              		.section	.debug_abbrev,"",%progbits
 4304              	.Ldebug_abbrev0:
 4305 0000 01       		.uleb128 0x1
 4306 0001 11       		.uleb128 0x11
 4307 0002 01       		.byte	0x1
 4308 0003 25       		.uleb128 0x25
 4309 0004 0E       		.uleb128 0xe
 4310 0005 13       		.uleb128 0x13
 4311 0006 0B       		.uleb128 0xb
 4312 0007 03       		.uleb128 0x3
 4313 0008 0E       		.uleb128 0xe
 4314 0009 1B       		.uleb128 0x1b
 4315 000a 0E       		.uleb128 0xe
 4316 000b 55       		.uleb128 0x55
 4317 000c 17       		.uleb128 0x17
 4318 000d 11       		.uleb128 0x11
 4319 000e 01       		.uleb128 0x1
 4320 000f 10       		.uleb128 0x10
 4321 0010 17       		.uleb128 0x17
 4322 0011 00       		.byte	0
 4323 0012 00       		.byte	0
 4324 0013 02       		.uleb128 0x2
 4325 0014 24       		.uleb128 0x24
 4326 0015 00       		.byte	0
ARM GAS  C:\Users\Daniel\AppData\Local\Temp\cczCpxmi.s 			page 88


 4327 0016 0B       		.uleb128 0xb
 4328 0017 0B       		.uleb128 0xb
 4329 0018 3E       		.uleb128 0x3e
 4330 0019 0B       		.uleb128 0xb
 4331 001a 03       		.uleb128 0x3
 4332 001b 0E       		.uleb128 0xe
 4333 001c 00       		.byte	0
 4334 001d 00       		.byte	0
 4335 001e 03       		.uleb128 0x3
 4336 001f 16       		.uleb128 0x16
 4337 0020 00       		.byte	0
 4338 0021 03       		.uleb128 0x3
 4339 0022 0E       		.uleb128 0xe
 4340 0023 3A       		.uleb128 0x3a
 4341 0024 0B       		.uleb128 0xb
 4342 0025 3B       		.uleb128 0x3b
 4343 0026 0B       		.uleb128 0xb
 4344 0027 49       		.uleb128 0x49
 4345 0028 13       		.uleb128 0x13
 4346 0029 00       		.byte	0
 4347 002a 00       		.byte	0
 4348 002b 04       		.uleb128 0x4
 4349 002c 24       		.uleb128 0x24
 4350 002d 00       		.byte	0
 4351 002e 0B       		.uleb128 0xb
 4352 002f 0B       		.uleb128 0xb
 4353 0030 3E       		.uleb128 0x3e
 4354 0031 0B       		.uleb128 0xb
 4355 0032 03       		.uleb128 0x3
 4356 0033 08       		.uleb128 0x8
 4357 0034 00       		.byte	0
 4358 0035 00       		.byte	0
 4359 0036 05       		.uleb128 0x5
 4360 0037 16       		.uleb128 0x16
 4361 0038 00       		.byte	0
 4362 0039 03       		.uleb128 0x3
 4363 003a 0E       		.uleb128 0xe
 4364 003b 3A       		.uleb128 0x3a
 4365 003c 0B       		.uleb128 0xb
 4366 003d 3B       		.uleb128 0x3b
 4367 003e 05       		.uleb128 0x5
 4368 003f 49       		.uleb128 0x49
 4369 0040 13       		.uleb128 0x13
 4370 0041 00       		.byte	0
 4371 0042 00       		.byte	0
 4372 0043 06       		.uleb128 0x6
 4373 0044 04       		.uleb128 0x4
 4374 0045 01       		.byte	0x1
 4375 0046 0B       		.uleb128 0xb
 4376 0047 0B       		.uleb128 0xb
 4377 0048 3A       		.uleb128 0x3a
 4378 0049 0B       		.uleb128 0xb
 4379 004a 3B       		.uleb128 0x3b
 4380 004b 0B       		.uleb128 0xb
 4381 004c 01       		.uleb128 0x1
 4382 004d 13       		.uleb128 0x13
 4383 004e 00       		.byte	0
ARM GAS  C:\Users\Daniel\AppData\Local\Temp\cczCpxmi.s 			page 89


 4384 004f 00       		.byte	0
 4385 0050 07       		.uleb128 0x7
 4386 0051 28       		.uleb128 0x28
 4387 0052 00       		.byte	0
 4388 0053 03       		.uleb128 0x3
 4389 0054 0E       		.uleb128 0xe
 4390 0055 1C       		.uleb128 0x1c
 4391 0056 0D       		.uleb128 0xd
 4392 0057 00       		.byte	0
 4393 0058 00       		.byte	0
 4394 0059 08       		.uleb128 0x8
 4395 005a 2E       		.uleb128 0x2e
 4396 005b 01       		.byte	0x1
 4397 005c 3F       		.uleb128 0x3f
 4398 005d 19       		.uleb128 0x19
 4399 005e 03       		.uleb128 0x3
 4400 005f 0E       		.uleb128 0xe
 4401 0060 3A       		.uleb128 0x3a
 4402 0061 0B       		.uleb128 0xb
 4403 0062 3B       		.uleb128 0x3b
 4404 0063 0B       		.uleb128 0xb
 4405 0064 27       		.uleb128 0x27
 4406 0065 19       		.uleb128 0x19
 4407 0066 49       		.uleb128 0x49
 4408 0067 13       		.uleb128 0x13
 4409 0068 11       		.uleb128 0x11
 4410 0069 01       		.uleb128 0x1
 4411 006a 12       		.uleb128 0x12
 4412 006b 06       		.uleb128 0x6
 4413 006c 40       		.uleb128 0x40
 4414 006d 18       		.uleb128 0x18
 4415 006e 9742     		.uleb128 0x2117
 4416 0070 19       		.uleb128 0x19
 4417 0071 01       		.uleb128 0x1
 4418 0072 13       		.uleb128 0x13
 4419 0073 00       		.byte	0
 4420 0074 00       		.byte	0
 4421 0075 09       		.uleb128 0x9
 4422 0076 05       		.uleb128 0x5
 4423 0077 00       		.byte	0
 4424 0078 03       		.uleb128 0x3
 4425 0079 08       		.uleb128 0x8
 4426 007a 3A       		.uleb128 0x3a
 4427 007b 0B       		.uleb128 0xb
 4428 007c 3B       		.uleb128 0x3b
 4429 007d 0B       		.uleb128 0xb
 4430 007e 49       		.uleb128 0x49
 4431 007f 13       		.uleb128 0x13
 4432 0080 02       		.uleb128 0x2
 4433 0081 17       		.uleb128 0x17
 4434 0082 00       		.byte	0
 4435 0083 00       		.byte	0
 4436 0084 0A       		.uleb128 0xa
 4437 0085 34       		.uleb128 0x34
 4438 0086 00       		.byte	0
 4439 0087 03       		.uleb128 0x3
 4440 0088 0E       		.uleb128 0xe
ARM GAS  C:\Users\Daniel\AppData\Local\Temp\cczCpxmi.s 			page 90


 4441 0089 3A       		.uleb128 0x3a
 4442 008a 0B       		.uleb128 0xb
 4443 008b 3B       		.uleb128 0x3b
 4444 008c 0B       		.uleb128 0xb
 4445 008d 49       		.uleb128 0x49
 4446 008e 13       		.uleb128 0x13
 4447 008f 02       		.uleb128 0x2
 4448 0090 17       		.uleb128 0x17
 4449 0091 00       		.byte	0
 4450 0092 00       		.byte	0
 4451 0093 0B       		.uleb128 0xb
 4452 0094 898201   		.uleb128 0x4109
 4453 0097 00       		.byte	0
 4454 0098 11       		.uleb128 0x11
 4455 0099 01       		.uleb128 0x1
 4456 009a 31       		.uleb128 0x31
 4457 009b 13       		.uleb128 0x13
 4458 009c 00       		.byte	0
 4459 009d 00       		.byte	0
 4460 009e 0C       		.uleb128 0xc
 4461 009f 898201   		.uleb128 0x4109
 4462 00a2 01       		.byte	0x1
 4463 00a3 11       		.uleb128 0x11
 4464 00a4 01       		.uleb128 0x1
 4465 00a5 31       		.uleb128 0x31
 4466 00a6 13       		.uleb128 0x13
 4467 00a7 01       		.uleb128 0x1
 4468 00a8 13       		.uleb128 0x13
 4469 00a9 00       		.byte	0
 4470 00aa 00       		.byte	0
 4471 00ab 0D       		.uleb128 0xd
 4472 00ac 8A8201   		.uleb128 0x410a
 4473 00af 00       		.byte	0
 4474 00b0 02       		.uleb128 0x2
 4475 00b1 18       		.uleb128 0x18
 4476 00b2 9142     		.uleb128 0x2111
 4477 00b4 18       		.uleb128 0x18
 4478 00b5 00       		.byte	0
 4479 00b6 00       		.byte	0
 4480 00b7 0E       		.uleb128 0xe
 4481 00b8 2E       		.uleb128 0x2e
 4482 00b9 01       		.byte	0x1
 4483 00ba 3F       		.uleb128 0x3f
 4484 00bb 19       		.uleb128 0x19
 4485 00bc 03       		.uleb128 0x3
 4486 00bd 0E       		.uleb128 0xe
 4487 00be 3A       		.uleb128 0x3a
 4488 00bf 0B       		.uleb128 0xb
 4489 00c0 3B       		.uleb128 0x3b
 4490 00c1 0B       		.uleb128 0xb
 4491 00c2 27       		.uleb128 0x27
 4492 00c3 19       		.uleb128 0x19
 4493 00c4 49       		.uleb128 0x49
 4494 00c5 13       		.uleb128 0x13
 4495 00c6 11       		.uleb128 0x11
 4496 00c7 01       		.uleb128 0x1
 4497 00c8 12       		.uleb128 0x12
ARM GAS  C:\Users\Daniel\AppData\Local\Temp\cczCpxmi.s 			page 91


 4498 00c9 06       		.uleb128 0x6
 4499 00ca 40       		.uleb128 0x40
 4500 00cb 18       		.uleb128 0x18
 4501 00cc 9642     		.uleb128 0x2116
 4502 00ce 19       		.uleb128 0x19
 4503 00cf 01       		.uleb128 0x1
 4504 00d0 13       		.uleb128 0x13
 4505 00d1 00       		.byte	0
 4506 00d2 00       		.byte	0
 4507 00d3 0F       		.uleb128 0xf
 4508 00d4 05       		.uleb128 0x5
 4509 00d5 00       		.byte	0
 4510 00d6 03       		.uleb128 0x3
 4511 00d7 0E       		.uleb128 0xe
 4512 00d8 3A       		.uleb128 0x3a
 4513 00d9 0B       		.uleb128 0xb
 4514 00da 3B       		.uleb128 0x3b
 4515 00db 0B       		.uleb128 0xb
 4516 00dc 49       		.uleb128 0x49
 4517 00dd 13       		.uleb128 0x13
 4518 00de 02       		.uleb128 0x2
 4519 00df 17       		.uleb128 0x17
 4520 00e0 00       		.byte	0
 4521 00e1 00       		.byte	0
 4522 00e2 10       		.uleb128 0x10
 4523 00e3 34       		.uleb128 0x34
 4524 00e4 00       		.byte	0
 4525 00e5 03       		.uleb128 0x3
 4526 00e6 0E       		.uleb128 0xe
 4527 00e7 3A       		.uleb128 0x3a
 4528 00e8 0B       		.uleb128 0xb
 4529 00e9 3B       		.uleb128 0x3b
 4530 00ea 0B       		.uleb128 0xb
 4531 00eb 49       		.uleb128 0x49
 4532 00ec 13       		.uleb128 0x13
 4533 00ed 1C       		.uleb128 0x1c
 4534 00ee 0B       		.uleb128 0xb
 4535 00ef 00       		.byte	0
 4536 00f0 00       		.byte	0
 4537 00f1 11       		.uleb128 0x11
 4538 00f2 0B       		.uleb128 0xb
 4539 00f3 01       		.byte	0x1
 4540 00f4 55       		.uleb128 0x55
 4541 00f5 17       		.uleb128 0x17
 4542 00f6 01       		.uleb128 0x1
 4543 00f7 13       		.uleb128 0x13
 4544 00f8 00       		.byte	0
 4545 00f9 00       		.byte	0
 4546 00fa 12       		.uleb128 0x12
 4547 00fb 898201   		.uleb128 0x4109
 4548 00fe 01       		.byte	0x1
 4549 00ff 11       		.uleb128 0x11
 4550 0100 01       		.uleb128 0x1
 4551 0101 31       		.uleb128 0x31
 4552 0102 13       		.uleb128 0x13
 4553 0103 00       		.byte	0
 4554 0104 00       		.byte	0
ARM GAS  C:\Users\Daniel\AppData\Local\Temp\cczCpxmi.s 			page 92


 4555 0105 13       		.uleb128 0x13
 4556 0106 0B       		.uleb128 0xb
 4557 0107 01       		.byte	0x1
 4558 0108 11       		.uleb128 0x11
 4559 0109 01       		.uleb128 0x1
 4560 010a 12       		.uleb128 0x12
 4561 010b 06       		.uleb128 0x6
 4562 010c 01       		.uleb128 0x1
 4563 010d 13       		.uleb128 0x13
 4564 010e 00       		.byte	0
 4565 010f 00       		.byte	0
 4566 0110 14       		.uleb128 0x14
 4567 0111 2E       		.uleb128 0x2e
 4568 0112 01       		.byte	0x1
 4569 0113 3F       		.uleb128 0x3f
 4570 0114 19       		.uleb128 0x19
 4571 0115 03       		.uleb128 0x3
 4572 0116 0E       		.uleb128 0xe
 4573 0117 3A       		.uleb128 0x3a
 4574 0118 0B       		.uleb128 0xb
 4575 0119 3B       		.uleb128 0x3b
 4576 011a 05       		.uleb128 0x5
 4577 011b 27       		.uleb128 0x27
 4578 011c 19       		.uleb128 0x19
 4579 011d 49       		.uleb128 0x49
 4580 011e 13       		.uleb128 0x13
 4581 011f 11       		.uleb128 0x11
 4582 0120 01       		.uleb128 0x1
 4583 0121 12       		.uleb128 0x12
 4584 0122 06       		.uleb128 0x6
 4585 0123 40       		.uleb128 0x40
 4586 0124 18       		.uleb128 0x18
 4587 0125 9742     		.uleb128 0x2117
 4588 0127 19       		.uleb128 0x19
 4589 0128 01       		.uleb128 0x1
 4590 0129 13       		.uleb128 0x13
 4591 012a 00       		.byte	0
 4592 012b 00       		.byte	0
 4593 012c 15       		.uleb128 0x15
 4594 012d 05       		.uleb128 0x5
 4595 012e 00       		.byte	0
 4596 012f 03       		.uleb128 0x3
 4597 0130 08       		.uleb128 0x8
 4598 0131 3A       		.uleb128 0x3a
 4599 0132 0B       		.uleb128 0xb
 4600 0133 3B       		.uleb128 0x3b
 4601 0134 05       		.uleb128 0x5
 4602 0135 49       		.uleb128 0x49
 4603 0136 13       		.uleb128 0x13
 4604 0137 02       		.uleb128 0x2
 4605 0138 17       		.uleb128 0x17
 4606 0139 00       		.byte	0
 4607 013a 00       		.byte	0
 4608 013b 16       		.uleb128 0x16
 4609 013c 05       		.uleb128 0x5
 4610 013d 00       		.byte	0
 4611 013e 03       		.uleb128 0x3
ARM GAS  C:\Users\Daniel\AppData\Local\Temp\cczCpxmi.s 			page 93


 4612 013f 0E       		.uleb128 0xe
 4613 0140 3A       		.uleb128 0x3a
 4614 0141 0B       		.uleb128 0xb
 4615 0142 3B       		.uleb128 0x3b
 4616 0143 05       		.uleb128 0x5
 4617 0144 49       		.uleb128 0x49
 4618 0145 13       		.uleb128 0x13
 4619 0146 02       		.uleb128 0x2
 4620 0147 17       		.uleb128 0x17
 4621 0148 00       		.byte	0
 4622 0149 00       		.byte	0
 4623 014a 17       		.uleb128 0x17
 4624 014b 34       		.uleb128 0x34
 4625 014c 00       		.byte	0
 4626 014d 03       		.uleb128 0x3
 4627 014e 0E       		.uleb128 0xe
 4628 014f 3A       		.uleb128 0x3a
 4629 0150 0B       		.uleb128 0xb
 4630 0151 3B       		.uleb128 0x3b
 4631 0152 05       		.uleb128 0x5
 4632 0153 49       		.uleb128 0x49
 4633 0154 13       		.uleb128 0x13
 4634 0155 1C       		.uleb128 0x1c
 4635 0156 0B       		.uleb128 0xb
 4636 0157 00       		.byte	0
 4637 0158 00       		.byte	0
 4638 0159 18       		.uleb128 0x18
 4639 015a 34       		.uleb128 0x34
 4640 015b 00       		.byte	0
 4641 015c 03       		.uleb128 0x3
 4642 015d 0E       		.uleb128 0xe
 4643 015e 3A       		.uleb128 0x3a
 4644 015f 0B       		.uleb128 0xb
 4645 0160 3B       		.uleb128 0x3b
 4646 0161 05       		.uleb128 0x5
 4647 0162 49       		.uleb128 0x49
 4648 0163 13       		.uleb128 0x13
 4649 0164 02       		.uleb128 0x2
 4650 0165 17       		.uleb128 0x17
 4651 0166 00       		.byte	0
 4652 0167 00       		.byte	0
 4653 0168 19       		.uleb128 0x19
 4654 0169 34       		.uleb128 0x34
 4655 016a 00       		.byte	0
 4656 016b 03       		.uleb128 0x3
 4657 016c 08       		.uleb128 0x8
 4658 016d 3A       		.uleb128 0x3a
 4659 016e 0B       		.uleb128 0xb
 4660 016f 3B       		.uleb128 0x3b
 4661 0170 05       		.uleb128 0x5
 4662 0171 49       		.uleb128 0x49
 4663 0172 13       		.uleb128 0x13
 4664 0173 02       		.uleb128 0x2
 4665 0174 17       		.uleb128 0x17
 4666 0175 00       		.byte	0
 4667 0176 00       		.byte	0
 4668 0177 1A       		.uleb128 0x1a
ARM GAS  C:\Users\Daniel\AppData\Local\Temp\cczCpxmi.s 			page 94


 4669 0178 26       		.uleb128 0x26
 4670 0179 00       		.byte	0
 4671 017a 49       		.uleb128 0x49
 4672 017b 13       		.uleb128 0x13
 4673 017c 00       		.byte	0
 4674 017d 00       		.byte	0
 4675 017e 1B       		.uleb128 0x1b
 4676 017f 2E       		.uleb128 0x2e
 4677 0180 01       		.byte	0x1
 4678 0181 3F       		.uleb128 0x3f
 4679 0182 19       		.uleb128 0x19
 4680 0183 03       		.uleb128 0x3
 4681 0184 0E       		.uleb128 0xe
 4682 0185 3A       		.uleb128 0x3a
 4683 0186 0B       		.uleb128 0xb
 4684 0187 3B       		.uleb128 0x3b
 4685 0188 05       		.uleb128 0x5
 4686 0189 49       		.uleb128 0x49
 4687 018a 13       		.uleb128 0x13
 4688 018b 11       		.uleb128 0x11
 4689 018c 01       		.uleb128 0x1
 4690 018d 12       		.uleb128 0x12
 4691 018e 06       		.uleb128 0x6
 4692 018f 40       		.uleb128 0x40
 4693 0190 18       		.uleb128 0x18
 4694 0191 9642     		.uleb128 0x2116
 4695 0193 19       		.uleb128 0x19
 4696 0194 01       		.uleb128 0x1
 4697 0195 13       		.uleb128 0x13
 4698 0196 00       		.byte	0
 4699 0197 00       		.byte	0
 4700 0198 1C       		.uleb128 0x1c
 4701 0199 2E       		.uleb128 0x2e
 4702 019a 00       		.byte	0
 4703 019b 3F       		.uleb128 0x3f
 4704 019c 19       		.uleb128 0x19
 4705 019d 03       		.uleb128 0x3
 4706 019e 0E       		.uleb128 0xe
 4707 019f 3A       		.uleb128 0x3a
 4708 01a0 0B       		.uleb128 0xb
 4709 01a1 3B       		.uleb128 0x3b
 4710 01a2 05       		.uleb128 0x5
 4711 01a3 11       		.uleb128 0x11
 4712 01a4 01       		.uleb128 0x1
 4713 01a5 12       		.uleb128 0x12
 4714 01a6 06       		.uleb128 0x6
 4715 01a7 40       		.uleb128 0x40
 4716 01a8 18       		.uleb128 0x18
 4717 01a9 9742     		.uleb128 0x2117
 4718 01ab 19       		.uleb128 0x19
 4719 01ac 00       		.byte	0
 4720 01ad 00       		.byte	0
 4721 01ae 1D       		.uleb128 0x1d
 4722 01af 2E       		.uleb128 0x2e
 4723 01b0 01       		.byte	0x1
 4724 01b1 3F       		.uleb128 0x3f
 4725 01b2 19       		.uleb128 0x19
ARM GAS  C:\Users\Daniel\AppData\Local\Temp\cczCpxmi.s 			page 95


 4726 01b3 03       		.uleb128 0x3
 4727 01b4 0E       		.uleb128 0xe
 4728 01b5 3A       		.uleb128 0x3a
 4729 01b6 0B       		.uleb128 0xb
 4730 01b7 3B       		.uleb128 0x3b
 4731 01b8 05       		.uleb128 0x5
 4732 01b9 27       		.uleb128 0x27
 4733 01ba 19       		.uleb128 0x19
 4734 01bb 11       		.uleb128 0x11
 4735 01bc 01       		.uleb128 0x1
 4736 01bd 12       		.uleb128 0x12
 4737 01be 06       		.uleb128 0x6
 4738 01bf 40       		.uleb128 0x40
 4739 01c0 18       		.uleb128 0x18
 4740 01c1 9642     		.uleb128 0x2116
 4741 01c3 19       		.uleb128 0x19
 4742 01c4 01       		.uleb128 0x1
 4743 01c5 13       		.uleb128 0x13
 4744 01c6 00       		.byte	0
 4745 01c7 00       		.byte	0
 4746 01c8 1E       		.uleb128 0x1e
 4747 01c9 2E       		.uleb128 0x2e
 4748 01ca 01       		.byte	0x1
 4749 01cb 3F       		.uleb128 0x3f
 4750 01cc 19       		.uleb128 0x19
 4751 01cd 03       		.uleb128 0x3
 4752 01ce 0E       		.uleb128 0xe
 4753 01cf 3A       		.uleb128 0x3a
 4754 01d0 0B       		.uleb128 0xb
 4755 01d1 3B       		.uleb128 0x3b
 4756 01d2 05       		.uleb128 0x5
 4757 01d3 27       		.uleb128 0x27
 4758 01d4 19       		.uleb128 0x19
 4759 01d5 49       		.uleb128 0x49
 4760 01d6 13       		.uleb128 0x13
 4761 01d7 11       		.uleb128 0x11
 4762 01d8 01       		.uleb128 0x1
 4763 01d9 12       		.uleb128 0x12
 4764 01da 06       		.uleb128 0x6
 4765 01db 40       		.uleb128 0x40
 4766 01dc 18       		.uleb128 0x18
 4767 01dd 9642     		.uleb128 0x2116
 4768 01df 19       		.uleb128 0x19
 4769 01e0 01       		.uleb128 0x1
 4770 01e1 13       		.uleb128 0x13
 4771 01e2 00       		.byte	0
 4772 01e3 00       		.byte	0
 4773 01e4 1F       		.uleb128 0x1f
 4774 01e5 34       		.uleb128 0x34
 4775 01e6 00       		.byte	0
 4776 01e7 03       		.uleb128 0x3
 4777 01e8 0E       		.uleb128 0xe
 4778 01e9 3A       		.uleb128 0x3a
 4779 01ea 0B       		.uleb128 0xb
 4780 01eb 3B       		.uleb128 0x3b
 4781 01ec 05       		.uleb128 0x5
 4782 01ed 49       		.uleb128 0x49
ARM GAS  C:\Users\Daniel\AppData\Local\Temp\cczCpxmi.s 			page 96


 4783 01ee 13       		.uleb128 0x13
 4784 01ef 00       		.byte	0
 4785 01f0 00       		.byte	0
 4786 01f1 20       		.uleb128 0x20
 4787 01f2 34       		.uleb128 0x34
 4788 01f3 00       		.byte	0
 4789 01f4 03       		.uleb128 0x3
 4790 01f5 0E       		.uleb128 0xe
 4791 01f6 3A       		.uleb128 0x3a
 4792 01f7 0B       		.uleb128 0xb
 4793 01f8 3B       		.uleb128 0x3b
 4794 01f9 05       		.uleb128 0x5
 4795 01fa 49       		.uleb128 0x49
 4796 01fb 13       		.uleb128 0x13
 4797 01fc 3F       		.uleb128 0x3f
 4798 01fd 19       		.uleb128 0x19
 4799 01fe 3C       		.uleb128 0x3c
 4800 01ff 19       		.uleb128 0x19
 4801 0200 00       		.byte	0
 4802 0201 00       		.byte	0
 4803 0202 21       		.uleb128 0x21
 4804 0203 35       		.uleb128 0x35
 4805 0204 00       		.byte	0
 4806 0205 49       		.uleb128 0x49
 4807 0206 13       		.uleb128 0x13
 4808 0207 00       		.byte	0
 4809 0208 00       		.byte	0
 4810 0209 22       		.uleb128 0x22
 4811 020a 01       		.uleb128 0x1
 4812 020b 01       		.byte	0x1
 4813 020c 49       		.uleb128 0x49
 4814 020d 13       		.uleb128 0x13
 4815 020e 01       		.uleb128 0x1
 4816 020f 13       		.uleb128 0x13
 4817 0210 00       		.byte	0
 4818 0211 00       		.byte	0
 4819 0212 23       		.uleb128 0x23
 4820 0213 21       		.uleb128 0x21
 4821 0214 00       		.byte	0
 4822 0215 49       		.uleb128 0x49
 4823 0216 13       		.uleb128 0x13
 4824 0217 2F       		.uleb128 0x2f
 4825 0218 0B       		.uleb128 0xb
 4826 0219 00       		.byte	0
 4827 021a 00       		.byte	0
 4828 021b 24       		.uleb128 0x24
 4829 021c 34       		.uleb128 0x34
 4830 021d 00       		.byte	0
 4831 021e 03       		.uleb128 0x3
 4832 021f 0E       		.uleb128 0xe
 4833 0220 3A       		.uleb128 0x3a
 4834 0221 0B       		.uleb128 0xb
 4835 0222 3B       		.uleb128 0x3b
 4836 0223 0B       		.uleb128 0xb
 4837 0224 49       		.uleb128 0x49
 4838 0225 13       		.uleb128 0x13
 4839 0226 3F       		.uleb128 0x3f
ARM GAS  C:\Users\Daniel\AppData\Local\Temp\cczCpxmi.s 			page 97


 4840 0227 19       		.uleb128 0x19
 4841 0228 02       		.uleb128 0x2
 4842 0229 18       		.uleb128 0x18
 4843 022a 00       		.byte	0
 4844 022b 00       		.byte	0
 4845 022c 25       		.uleb128 0x25
 4846 022d 34       		.uleb128 0x34
 4847 022e 00       		.byte	0
 4848 022f 03       		.uleb128 0x3
 4849 0230 0E       		.uleb128 0xe
 4850 0231 3A       		.uleb128 0x3a
 4851 0232 0B       		.uleb128 0xb
 4852 0233 3B       		.uleb128 0x3b
 4853 0234 0B       		.uleb128 0xb
 4854 0235 49       		.uleb128 0x49
 4855 0236 13       		.uleb128 0x13
 4856 0237 3F       		.uleb128 0x3f
 4857 0238 19       		.uleb128 0x19
 4858 0239 3C       		.uleb128 0x3c
 4859 023a 19       		.uleb128 0x19
 4860 023b 00       		.byte	0
 4861 023c 00       		.byte	0
 4862 023d 26       		.uleb128 0x26
 4863 023e 34       		.uleb128 0x34
 4864 023f 00       		.byte	0
 4865 0240 03       		.uleb128 0x3
 4866 0241 08       		.uleb128 0x8
 4867 0242 3A       		.uleb128 0x3a
 4868 0243 0B       		.uleb128 0xb
 4869 0244 3B       		.uleb128 0x3b
 4870 0245 0B       		.uleb128 0xb
 4871 0246 49       		.uleb128 0x49
 4872 0247 13       		.uleb128 0x13
 4873 0248 3F       		.uleb128 0x3f
 4874 0249 19       		.uleb128 0x19
 4875 024a 02       		.uleb128 0x2
 4876 024b 18       		.uleb128 0x18
 4877 024c 00       		.byte	0
 4878 024d 00       		.byte	0
 4879 024e 27       		.uleb128 0x27
 4880 024f 2E       		.uleb128 0x2e
 4881 0250 01       		.byte	0x1
 4882 0251 3F       		.uleb128 0x3f
 4883 0252 19       		.uleb128 0x19
 4884 0253 03       		.uleb128 0x3
 4885 0254 0E       		.uleb128 0xe
 4886 0255 3A       		.uleb128 0x3a
 4887 0256 0B       		.uleb128 0xb
 4888 0257 3B       		.uleb128 0x3b
 4889 0258 0B       		.uleb128 0xb
 4890 0259 3C       		.uleb128 0x3c
 4891 025a 19       		.uleb128 0x19
 4892 025b 01       		.uleb128 0x1
 4893 025c 13       		.uleb128 0x13
 4894 025d 00       		.byte	0
 4895 025e 00       		.byte	0
 4896 025f 28       		.uleb128 0x28
ARM GAS  C:\Users\Daniel\AppData\Local\Temp\cczCpxmi.s 			page 98


 4897 0260 18       		.uleb128 0x18
 4898 0261 00       		.byte	0
 4899 0262 00       		.byte	0
 4900 0263 00       		.byte	0
 4901 0264 29       		.uleb128 0x29
 4902 0265 2E       		.uleb128 0x2e
 4903 0266 01       		.byte	0x1
 4904 0267 3F       		.uleb128 0x3f
 4905 0268 19       		.uleb128 0x19
 4906 0269 03       		.uleb128 0x3
 4907 026a 0E       		.uleb128 0xe
 4908 026b 3A       		.uleb128 0x3a
 4909 026c 0B       		.uleb128 0xb
 4910 026d 3B       		.uleb128 0x3b
 4911 026e 0B       		.uleb128 0xb
 4912 026f 27       		.uleb128 0x27
 4913 0270 19       		.uleb128 0x19
 4914 0271 3C       		.uleb128 0x3c
 4915 0272 19       		.uleb128 0x19
 4916 0273 01       		.uleb128 0x1
 4917 0274 13       		.uleb128 0x13
 4918 0275 00       		.byte	0
 4919 0276 00       		.byte	0
 4920 0277 2A       		.uleb128 0x2a
 4921 0278 05       		.uleb128 0x5
 4922 0279 00       		.byte	0
 4923 027a 49       		.uleb128 0x49
 4924 027b 13       		.uleb128 0x13
 4925 027c 00       		.byte	0
 4926 027d 00       		.byte	0
 4927 027e 2B       		.uleb128 0x2b
 4928 027f 2E       		.uleb128 0x2e
 4929 0280 01       		.byte	0x1
 4930 0281 3F       		.uleb128 0x3f
 4931 0282 19       		.uleb128 0x19
 4932 0283 03       		.uleb128 0x3
 4933 0284 0E       		.uleb128 0xe
 4934 0285 3A       		.uleb128 0x3a
 4935 0286 0B       		.uleb128 0xb
 4936 0287 3B       		.uleb128 0x3b
 4937 0288 0B       		.uleb128 0xb
 4938 0289 27       		.uleb128 0x27
 4939 028a 19       		.uleb128 0x19
 4940 028b 49       		.uleb128 0x49
 4941 028c 13       		.uleb128 0x13
 4942 028d 3C       		.uleb128 0x3c
 4943 028e 19       		.uleb128 0x19
 4944 028f 01       		.uleb128 0x1
 4945 0290 13       		.uleb128 0x13
 4946 0291 00       		.byte	0
 4947 0292 00       		.byte	0
 4948 0293 2C       		.uleb128 0x2c
 4949 0294 2E       		.uleb128 0x2e
 4950 0295 01       		.byte	0x1
 4951 0296 3F       		.uleb128 0x3f
 4952 0297 19       		.uleb128 0x19
 4953 0298 03       		.uleb128 0x3
ARM GAS  C:\Users\Daniel\AppData\Local\Temp\cczCpxmi.s 			page 99


 4954 0299 08       		.uleb128 0x8
 4955 029a 3A       		.uleb128 0x3a
 4956 029b 0B       		.uleb128 0xb
 4957 029c 3B       		.uleb128 0x3b
 4958 029d 0B       		.uleb128 0xb
 4959 029e 27       		.uleb128 0x27
 4960 029f 19       		.uleb128 0x19
 4961 02a0 49       		.uleb128 0x49
 4962 02a1 13       		.uleb128 0x13
 4963 02a2 3C       		.uleb128 0x3c
 4964 02a3 19       		.uleb128 0x19
 4965 02a4 01       		.uleb128 0x1
 4966 02a5 13       		.uleb128 0x13
 4967 02a6 00       		.byte	0
 4968 02a7 00       		.byte	0
 4969 02a8 2D       		.uleb128 0x2d
 4970 02a9 2E       		.uleb128 0x2e
 4971 02aa 01       		.byte	0x1
 4972 02ab 3F       		.uleb128 0x3f
 4973 02ac 19       		.uleb128 0x19
 4974 02ad 03       		.uleb128 0x3
 4975 02ae 0E       		.uleb128 0xe
 4976 02af 3A       		.uleb128 0x3a
 4977 02b0 0B       		.uleb128 0xb
 4978 02b1 3B       		.uleb128 0x3b
 4979 02b2 0B       		.uleb128 0xb
 4980 02b3 49       		.uleb128 0x49
 4981 02b4 13       		.uleb128 0x13
 4982 02b5 3C       		.uleb128 0x3c
 4983 02b6 19       		.uleb128 0x19
 4984 02b7 01       		.uleb128 0x1
 4985 02b8 13       		.uleb128 0x13
 4986 02b9 00       		.byte	0
 4987 02ba 00       		.byte	0
 4988 02bb 2E       		.uleb128 0x2e
 4989 02bc 2E       		.uleb128 0x2e
 4990 02bd 01       		.byte	0x1
 4991 02be 3F       		.uleb128 0x3f
 4992 02bf 19       		.uleb128 0x19
 4993 02c0 03       		.uleb128 0x3
 4994 02c1 0E       		.uleb128 0xe
 4995 02c2 3A       		.uleb128 0x3a
 4996 02c3 0B       		.uleb128 0xb
 4997 02c4 3B       		.uleb128 0x3b
 4998 02c5 05       		.uleb128 0x5
 4999 02c6 27       		.uleb128 0x27
 5000 02c7 19       		.uleb128 0x19
 5001 02c8 49       		.uleb128 0x49
 5002 02c9 13       		.uleb128 0x13
 5003 02ca 3C       		.uleb128 0x3c
 5004 02cb 19       		.uleb128 0x19
 5005 02cc 00       		.byte	0
 5006 02cd 00       		.byte	0
 5007 02ce 00       		.byte	0
 5008              		.section	.debug_loc,"",%progbits
 5009              	.Ldebug_loc0:
 5010              	.LLST0:
ARM GAS  C:\Users\Daniel\AppData\Local\Temp\cczCpxmi.s 			page 100


 5011 0000 00000000 		.4byte	.LVL0
 5012 0004 07000000 		.4byte	.LVL1-1
 5013 0008 0100     		.2byte	0x1
 5014 000a 50       		.byte	0x50
 5015 000b 07000000 		.4byte	.LVL1-1
 5016 000f 8C000000 		.4byte	.LFE63
 5017 0013 0400     		.2byte	0x4
 5018 0015 F3       		.byte	0xf3
 5019 0016 01       		.uleb128 0x1
 5020 0017 50       		.byte	0x50
 5021 0018 9F       		.byte	0x9f
 5022 0019 00000000 		.4byte	0
 5023 001d 00000000 		.4byte	0
 5024              	.LLST1:
 5025 0021 0E000000 		.4byte	.LVL2
 5026 0025 22000000 		.4byte	.LVL6
 5027 0029 0200     		.2byte	0x2
 5028 002b 30       		.byte	0x30
 5029 002c 9F       		.byte	0x9f
 5030 002d 22000000 		.4byte	.LVL6
 5031 0031 5E000000 		.4byte	.LVL13
 5032 0035 0100     		.2byte	0x1
 5033 0037 54       		.byte	0x54
 5034 0038 60000000 		.4byte	.LVL14
 5035 003c 7C000000 		.4byte	.LVL16
 5036 0040 0100     		.2byte	0x1
 5037 0042 54       		.byte	0x54
 5038 0043 00000000 		.4byte	0
 5039 0047 00000000 		.4byte	0
 5040              	.LLST2:
 5041 004b 1E000000 		.4byte	.LVL5
 5042 004f 7C000000 		.4byte	.LVL16
 5043 0053 0100     		.2byte	0x1
 5044 0055 55       		.byte	0x55
 5045 0056 00000000 		.4byte	0
 5046 005a 00000000 		.4byte	0
 5047              	.LLST3:
 5048 005e 00000000 		.4byte	.LVL17
 5049 0062 0B000000 		.4byte	.LVL18-1
 5050 0066 0100     		.2byte	0x1
 5051 0068 50       		.byte	0x50
 5052 0069 0B000000 		.4byte	.LVL18-1
 5053 006d 84020000 		.4byte	.LFE64
 5054 0071 0400     		.2byte	0x4
 5055 0073 F3       		.byte	0xf3
 5056 0074 01       		.uleb128 0x1
 5057 0075 50       		.byte	0x50
 5058 0076 9F       		.byte	0x9f
 5059 0077 00000000 		.4byte	0
 5060 007b 00000000 		.4byte	0
 5061              	.LLST4:
 5062 007f 00000000 		.4byte	.LVL17
 5063 0083 0B000000 		.4byte	.LVL18-1
 5064 0087 0100     		.2byte	0x1
 5065 0089 51       		.byte	0x51
 5066 008a 0B000000 		.4byte	.LVL18-1
 5067 008e 84020000 		.4byte	.LFE64
ARM GAS  C:\Users\Daniel\AppData\Local\Temp\cczCpxmi.s 			page 101


 5068 0092 0400     		.2byte	0x4
 5069 0094 F3       		.byte	0xf3
 5070 0095 01       		.uleb128 0x1
 5071 0096 51       		.byte	0x51
 5072 0097 9F       		.byte	0x9f
 5073 0098 00000000 		.4byte	0
 5074 009c 00000000 		.4byte	0
 5075              	.LLST5:
 5076 00a0 20000000 		.4byte	.LVL21
 5077 00a4 26000000 		.4byte	.LVL22
 5078 00a8 0100     		.2byte	0x1
 5079 00aa 50       		.byte	0x50
 5080 00ab 24020000 		.4byte	.LVL77
 5081 00af 26020000 		.4byte	.LVL78
 5082 00b3 0100     		.2byte	0x1
 5083 00b5 50       		.byte	0x50
 5084 00b6 00000000 		.4byte	0
 5085 00ba 00000000 		.4byte	0
 5086              	.LLST6:
 5087 00be 6E000000 		.4byte	.LVL30
 5088 00c2 8A000000 		.4byte	.LVL35
 5089 00c6 0600     		.2byte	0x6
 5090 00c8 56       		.byte	0x56
 5091 00c9 93       		.byte	0x93
 5092 00ca 04       		.uleb128 0x4
 5093 00cb 57       		.byte	0x57
 5094 00cc 93       		.byte	0x93
 5095 00cd 04       		.uleb128 0x4
 5096 00ce CE000000 		.4byte	.LVL43
 5097 00d2 F6000000 		.4byte	.LVL49
 5098 00d6 0600     		.2byte	0x6
 5099 00d8 56       		.byte	0x56
 5100 00d9 93       		.byte	0x93
 5101 00da 04       		.uleb128 0x4
 5102 00db 57       		.byte	0x57
 5103 00dc 93       		.byte	0x93
 5104 00dd 04       		.uleb128 0x4
 5105 00de 00000000 		.4byte	0
 5106 00e2 00000000 		.4byte	0
 5107              	.LLST7:
 5108 00e6 4A000000 		.4byte	.LVL25
 5109 00ea 4D000000 		.4byte	.LVL26-1
 5110 00ee 0600     		.2byte	0x6
 5111 00f0 50       		.byte	0x50
 5112 00f1 93       		.byte	0x93
 5113 00f2 04       		.uleb128 0x4
 5114 00f3 51       		.byte	0x51
 5115 00f4 93       		.byte	0x93
 5116 00f5 04       		.uleb128 0x4
 5117 00f6 AA000000 		.4byte	.LVL38
 5118 00fa AD000000 		.4byte	.LVL39-1
 5119 00fe 0600     		.2byte	0x6
 5120 0100 50       		.byte	0x50
 5121 0101 93       		.byte	0x93
 5122 0102 04       		.uleb128 0x4
 5123 0103 51       		.byte	0x51
 5124 0104 93       		.byte	0x93
ARM GAS  C:\Users\Daniel\AppData\Local\Temp\cczCpxmi.s 			page 102


 5125 0105 04       		.uleb128 0x4
 5126 0106 00000000 		.4byte	0
 5127 010a 00000000 		.4byte	0
 5128              	.LLST8:
 5129 010e 00000000 		.4byte	.LVL80
 5130 0112 06000000 		.4byte	.LVL81
 5131 0116 0100     		.2byte	0x1
 5132 0118 50       		.byte	0x50
 5133 0119 06000000 		.4byte	.LVL81
 5134 011d 84000000 		.4byte	.LFE65
 5135 0121 0400     		.2byte	0x4
 5136 0123 F3       		.byte	0xf3
 5137 0124 01       		.uleb128 0x1
 5138 0125 50       		.byte	0x50
 5139 0126 9F       		.byte	0x9f
 5140 0127 00000000 		.4byte	0
 5141 012b 00000000 		.4byte	0
 5142              	.LLST9:
 5143 012f 10000000 		.4byte	.LVL83
 5144 0133 24000000 		.4byte	.LVL87
 5145 0137 0200     		.2byte	0x2
 5146 0139 30       		.byte	0x30
 5147 013a 9F       		.byte	0x9f
 5148 013b 24000000 		.4byte	.LVL87
 5149 013f 5A000000 		.4byte	.LVL93
 5150 0143 0100     		.2byte	0x1
 5151 0145 54       		.byte	0x54
 5152 0146 5C000000 		.4byte	.LVL94
 5153 014a 78000000 		.4byte	.LVL96
 5154 014e 0100     		.2byte	0x1
 5155 0150 54       		.byte	0x54
 5156 0151 00000000 		.4byte	0
 5157 0155 00000000 		.4byte	0
 5158              	.LLST10:
 5159 0159 20000000 		.4byte	.LVL86
 5160 015d 78000000 		.4byte	.LVL96
 5161 0161 0100     		.2byte	0x1
 5162 0163 55       		.byte	0x55
 5163 0164 00000000 		.4byte	0
 5164 0168 00000000 		.4byte	0
 5165              	.LLST11:
 5166 016c 00000000 		.4byte	.LVL97
 5167 0170 08000000 		.4byte	.LVL98
 5168 0174 0100     		.2byte	0x1
 5169 0176 50       		.byte	0x50
 5170 0177 08000000 		.4byte	.LVL98
 5171 017b 6C010000 		.4byte	.LFE66
 5172 017f 0400     		.2byte	0x4
 5173 0181 F3       		.byte	0xf3
 5174 0182 01       		.uleb128 0x1
 5175 0183 50       		.byte	0x50
 5176 0184 9F       		.byte	0x9f
 5177 0185 00000000 		.4byte	0
 5178 0189 00000000 		.4byte	0
 5179              	.LLST12:
 5180 018d 22000000 		.4byte	.LVL102
 5181 0191 2A000000 		.4byte	.LVL103
ARM GAS  C:\Users\Daniel\AppData\Local\Temp\cczCpxmi.s 			page 103


 5182 0195 0100     		.2byte	0x1
 5183 0197 50       		.byte	0x50
 5184 0198 00000000 		.4byte	0
 5185 019c 00000000 		.4byte	0
 5186              	.LLST13:
 5187 01a0 72000000 		.4byte	.LVL110
 5188 01a4 75000000 		.4byte	.LVL111-1
 5189 01a8 0600     		.2byte	0x6
 5190 01aa 50       		.byte	0x50
 5191 01ab 93       		.byte	0x93
 5192 01ac 04       		.uleb128 0x4
 5193 01ad 51       		.byte	0x51
 5194 01ae 93       		.byte	0x93
 5195 01af 04       		.uleb128 0x4
 5196 01b0 BA000000 		.4byte	.LVL118
 5197 01b4 BD000000 		.4byte	.LVL119-1
 5198 01b8 0600     		.2byte	0x6
 5199 01ba 50       		.byte	0x50
 5200 01bb 93       		.byte	0x93
 5201 01bc 04       		.uleb128 0x4
 5202 01bd 51       		.byte	0x51
 5203 01be 93       		.byte	0x93
 5204 01bf 04       		.uleb128 0x4
 5205 01c0 00000000 		.4byte	0
 5206 01c4 00000000 		.4byte	0
 5207              	.LLST14:
 5208 01c8 52000000 		.4byte	.LVL106
 5209 01cc 55000000 		.4byte	.LVL107-1
 5210 01d0 0600     		.2byte	0x6
 5211 01d2 50       		.byte	0x50
 5212 01d3 93       		.byte	0x93
 5213 01d4 04       		.uleb128 0x4
 5214 01d5 51       		.byte	0x51
 5215 01d6 93       		.byte	0x93
 5216 01d7 04       		.uleb128 0x4
 5217 01d8 9A000000 		.4byte	.LVL114
 5218 01dc 9D000000 		.4byte	.LVL115-1
 5219 01e0 0600     		.2byte	0x6
 5220 01e2 50       		.byte	0x50
 5221 01e3 93       		.byte	0x93
 5222 01e4 04       		.uleb128 0x4
 5223 01e5 51       		.byte	0x51
 5224 01e6 93       		.byte	0x93
 5225 01e7 04       		.uleb128 0x4
 5226 01e8 00000000 		.4byte	0
 5227 01ec 00000000 		.4byte	0
 5228              	.LLST15:
 5229 01f0 00000000 		.4byte	.LVL130
 5230 01f4 0A000000 		.4byte	.LVL131
 5231 01f8 0100     		.2byte	0x1
 5232 01fa 50       		.byte	0x50
 5233 01fb 0A000000 		.4byte	.LVL131
 5234 01ff 24010000 		.4byte	.LFE67
 5235 0203 0400     		.2byte	0x4
 5236 0205 F3       		.byte	0xf3
 5237 0206 01       		.uleb128 0x1
 5238 0207 50       		.byte	0x50
ARM GAS  C:\Users\Daniel\AppData\Local\Temp\cczCpxmi.s 			page 104


 5239 0208 9F       		.byte	0x9f
 5240 0209 00000000 		.4byte	0
 5241 020d 00000000 		.4byte	0
 5242              	.LLST16:
 5243 0211 00000000 		.4byte	.LVL130
 5244 0215 0D000000 		.4byte	.LVL132-1
 5245 0219 0100     		.2byte	0x1
 5246 021b 51       		.byte	0x51
 5247 021c 0D000000 		.4byte	.LVL132-1
 5248 0220 24010000 		.4byte	.LFE67
 5249 0224 0400     		.2byte	0x4
 5250 0226 F3       		.byte	0xf3
 5251 0227 01       		.uleb128 0x1
 5252 0228 51       		.byte	0x51
 5253 0229 9F       		.byte	0x9f
 5254 022a 00000000 		.4byte	0
 5255 022e 00000000 		.4byte	0
 5256              	.LLST17:
 5257 0232 1C000000 		.4byte	.LVL134
 5258 0236 24000000 		.4byte	.LVL135
 5259 023a 0100     		.2byte	0x1
 5260 023c 50       		.byte	0x50
 5261 023d 24000000 		.4byte	.LVL135
 5262 0241 5E000000 		.4byte	.LVL143
 5263 0245 0100     		.2byte	0x1
 5264 0247 55       		.byte	0x55
 5265 0248 5E000000 		.4byte	.LVL143
 5266 024c 6E000000 		.4byte	.LVL145
 5267 0250 0100     		.2byte	0x1
 5268 0252 50       		.byte	0x50
 5269 0253 7A000000 		.4byte	.LVL147
 5270 0257 81000000 		.4byte	.LVL148-1
 5271 025b 0100     		.2byte	0x1
 5272 025d 50       		.byte	0x50
 5273 025e F2000000 		.4byte	.LVL161
 5274 0262 14010000 		.4byte	.LVL165
 5275 0266 0100     		.2byte	0x1
 5276 0268 55       		.byte	0x55
 5277 0269 00000000 		.4byte	0
 5278 026d 00000000 		.4byte	0
 5279              	.LLST18:
 5280 0271 4E000000 		.4byte	.LVL140
 5281 0275 6A000000 		.4byte	.LVL144
 5282 0279 0100     		.2byte	0x1
 5283 027b 54       		.byte	0x54
 5284 027c 6A000000 		.4byte	.LVL144
 5285 0280 7A000000 		.4byte	.LVL147
 5286 0284 0200     		.2byte	0x2
 5287 0286 35       		.byte	0x35
 5288 0287 9F       		.byte	0x9f
 5289 0288 7A000000 		.4byte	.LVL147
 5290 028c F0000000 		.4byte	.LVL160
 5291 0290 0100     		.2byte	0x1
 5292 0292 54       		.byte	0x54
 5293 0293 F2000000 		.4byte	.LVL161
 5294 0297 14010000 		.4byte	.LVL165
 5295 029b 0100     		.2byte	0x1
ARM GAS  C:\Users\Daniel\AppData\Local\Temp\cczCpxmi.s 			page 105


 5296 029d 54       		.byte	0x54
 5297 029e 00000000 		.4byte	0
 5298 02a2 00000000 		.4byte	0
 5299              	.LLST19:
 5300 02a6 4E000000 		.4byte	.LVL140
 5301 02aa 6A000000 		.4byte	.LVL144
 5302 02ae 0100     		.2byte	0x1
 5303 02b0 58       		.byte	0x58
 5304 02b1 6A000000 		.4byte	.LVL144
 5305 02b5 7A000000 		.4byte	.LVL147
 5306 02b9 0200     		.2byte	0x2
 5307 02bb 30       		.byte	0x30
 5308 02bc 9F       		.byte	0x9f
 5309 02bd 7A000000 		.4byte	.LVL147
 5310 02c1 14010000 		.4byte	.LVL165
 5311 02c5 0100     		.2byte	0x1
 5312 02c7 58       		.byte	0x58
 5313 02c8 00000000 		.4byte	0
 5314 02cc 00000000 		.4byte	0
 5315              	.LLST20:
 5316 02d0 00000000 		.4byte	.LVL183
 5317 02d4 09000000 		.4byte	.LVL184-1
 5318 02d8 0100     		.2byte	0x1
 5319 02da 50       		.byte	0x50
 5320 02db 09000000 		.4byte	.LVL184-1
 5321 02df BC000000 		.4byte	.LFE69
 5322 02e3 0400     		.2byte	0x4
 5323 02e5 F3       		.byte	0xf3
 5324 02e6 01       		.uleb128 0x1
 5325 02e7 50       		.byte	0x50
 5326 02e8 9F       		.byte	0x9f
 5327 02e9 00000000 		.4byte	0
 5328 02ed 00000000 		.4byte	0
 5329              	.LLST21:
 5330 02f1 00000000 		.4byte	.LVL183
 5331 02f5 09000000 		.4byte	.LVL184-1
 5332 02f9 0100     		.2byte	0x1
 5333 02fb 51       		.byte	0x51
 5334 02fc 09000000 		.4byte	.LVL184-1
 5335 0300 BC000000 		.4byte	.LFE69
 5336 0304 0400     		.2byte	0x4
 5337 0306 F3       		.byte	0xf3
 5338 0307 01       		.uleb128 0x1
 5339 0308 51       		.byte	0x51
 5340 0309 9F       		.byte	0x9f
 5341 030a 00000000 		.4byte	0
 5342 030e 00000000 		.4byte	0
 5343              	.LLST22:
 5344 0312 10000000 		.4byte	.LVL185
 5345 0316 20000000 		.4byte	.LVL188
 5346 031a 0200     		.2byte	0x2
 5347 031c 30       		.byte	0x30
 5348 031d 9F       		.byte	0x9f
 5349 031e 20000000 		.4byte	.LVL188
 5350 0322 AE000000 		.4byte	.LVL203
 5351 0326 0100     		.2byte	0x1
 5352 0328 55       		.byte	0x55
ARM GAS  C:\Users\Daniel\AppData\Local\Temp\cczCpxmi.s 			page 106


 5353 0329 00000000 		.4byte	0
 5354 032d 00000000 		.4byte	0
 5355              	.LLST23:
 5356 0331 00000000 		.4byte	.LVL204
 5357 0335 0A000000 		.4byte	.LVL205
 5358 0339 0100     		.2byte	0x1
 5359 033b 50       		.byte	0x50
 5360 033c 0A000000 		.4byte	.LVL205
 5361 0340 8C020000 		.4byte	.LFE72
 5362 0344 0400     		.2byte	0x4
 5363 0346 F3       		.byte	0xf3
 5364 0347 01       		.uleb128 0x1
 5365 0348 50       		.byte	0x50
 5366 0349 9F       		.byte	0x9f
 5367 034a 00000000 		.4byte	0
 5368 034e 00000000 		.4byte	0
 5369              	.LLST24:
 5370 0352 CC000000 		.4byte	.LVL229
 5371 0356 F4000000 		.4byte	.LVL234
 5372 035a 0600     		.2byte	0x6
 5373 035c 56       		.byte	0x56
 5374 035d 93       		.byte	0x93
 5375 035e 04       		.uleb128 0x4
 5376 035f 57       		.byte	0x57
 5377 0360 93       		.byte	0x93
 5378 0361 04       		.uleb128 0x4
 5379 0362 40010000 		.4byte	.LVL245
 5380 0366 7E010000 		.4byte	.LVL254
 5381 036a 0600     		.2byte	0x6
 5382 036c 56       		.byte	0x56
 5383 036d 93       		.byte	0x93
 5384 036e 04       		.uleb128 0x4
 5385 036f 57       		.byte	0x57
 5386 0370 93       		.byte	0x93
 5387 0371 04       		.uleb128 0x4
 5388 0372 32020000 		.4byte	.LVL277
 5389 0376 3A020000 		.4byte	.LVL279
 5390 037a 0600     		.2byte	0x6
 5391 037c 56       		.byte	0x56
 5392 037d 93       		.byte	0x93
 5393 037e 04       		.uleb128 0x4
 5394 037f 57       		.byte	0x57
 5395 0380 93       		.byte	0x93
 5396 0381 04       		.uleb128 0x4
 5397 0382 00000000 		.4byte	0
 5398 0386 00000000 		.4byte	0
 5399              	.LLST25:
 5400 038a 9C000000 		.4byte	.LVL222
 5401 038e 9F000000 		.4byte	.LVL223-1
 5402 0392 0600     		.2byte	0x6
 5403 0394 50       		.byte	0x50
 5404 0395 93       		.byte	0x93
 5405 0396 04       		.uleb128 0x4
 5406 0397 51       		.byte	0x51
 5407 0398 93       		.byte	0x93
 5408 0399 04       		.uleb128 0x4
 5409 039a 10010000 		.4byte	.LVL238
ARM GAS  C:\Users\Daniel\AppData\Local\Temp\cczCpxmi.s 			page 107


 5410 039e 13010000 		.4byte	.LVL239-1
 5411 03a2 0600     		.2byte	0x6
 5412 03a4 50       		.byte	0x50
 5413 03a5 93       		.byte	0x93
 5414 03a6 04       		.uleb128 0x4
 5415 03a7 51       		.byte	0x51
 5416 03a8 93       		.byte	0x93
 5417 03a9 04       		.uleb128 0x4
 5418 03aa 00000000 		.4byte	0
 5419 03ae 00000000 		.4byte	0
 5420              	.LLST26:
 5421 03b2 14000000 		.4byte	.LVL207
 5422 03b6 42000000 		.4byte	.LVL213
 5423 03ba 0A00     		.2byte	0xa
 5424 03bc 9E       		.byte	0x9e
 5425 03bd 08       		.uleb128 0x8
 5426 03be 00000000 		.4byte	0
 5427 03c2 00000000 		.4byte	0
 5428 03c6 42000000 		.4byte	.LVL213
 5429 03ca DA000000 		.4byte	.LVL231
 5430 03ce 0600     		.2byte	0x6
 5431 03d0 54       		.byte	0x54
 5432 03d1 93       		.byte	0x93
 5433 03d2 04       		.uleb128 0x4
 5434 03d3 55       		.byte	0x55
 5435 03d4 93       		.byte	0x93
 5436 03d5 04       		.uleb128 0x4
 5437 03d6 F2000000 		.4byte	.LVL233
 5438 03da 6E010000 		.4byte	.LVL250
 5439 03de 0600     		.2byte	0x6
 5440 03e0 54       		.byte	0x54
 5441 03e1 93       		.byte	0x93
 5442 03e2 04       		.uleb128 0x4
 5443 03e3 55       		.byte	0x55
 5444 03e4 93       		.byte	0x93
 5445 03e5 04       		.uleb128 0x4
 5446 03e6 70010000 		.4byte	.LVL251
 5447 03ea 32020000 		.4byte	.LVL277
 5448 03ee 0600     		.2byte	0x6
 5449 03f0 54       		.byte	0x54
 5450 03f1 93       		.byte	0x93
 5451 03f2 04       		.uleb128 0x4
 5452 03f3 55       		.byte	0x55
 5453 03f4 93       		.byte	0x93
 5454 03f5 04       		.uleb128 0x4
 5455 03f6 36020000 		.4byte	.LVL278
 5456 03fa 3C020000 		.4byte	.LVL280
 5457 03fe 0600     		.2byte	0x6
 5458 0400 54       		.byte	0x54
 5459 0401 93       		.byte	0x93
 5460 0402 04       		.uleb128 0x4
 5461 0403 55       		.byte	0x55
 5462 0404 93       		.byte	0x93
 5463 0405 04       		.uleb128 0x4
 5464 0406 00000000 		.4byte	0
 5465 040a 00000000 		.4byte	0
 5466              	.LLST27:
ARM GAS  C:\Users\Daniel\AppData\Local\Temp\cczCpxmi.s 			page 108


 5467 040e 32000000 		.4byte	.LVL211
 5468 0412 88000000 		.4byte	.LVL220
 5469 0416 0100     		.2byte	0x1
 5470 0418 56       		.byte	0x56
 5471 0419 F4000000 		.4byte	.LVL234
 5472 041d FC000000 		.4byte	.LVL236
 5473 0421 0100     		.2byte	0x1
 5474 0423 56       		.byte	0x56
 5475 0424 82010000 		.4byte	.LVL255
 5476 0428 E2010000 		.4byte	.LVL268
 5477 042c 0100     		.2byte	0x1
 5478 042e 56       		.byte	0x56
 5479 042f E6010000 		.4byte	.LVL269
 5480 0433 32020000 		.4byte	.LVL277
 5481 0437 0100     		.2byte	0x1
 5482 0439 56       		.byte	0x56
 5483 043a 3A020000 		.4byte	.LVL279
 5484 043e 3C020000 		.4byte	.LVL280
 5485 0442 0100     		.2byte	0x1
 5486 0444 56       		.byte	0x56
 5487 0445 00000000 		.4byte	0
 5488 0449 00000000 		.4byte	0
 5489              	.LLST28:
 5490 044d 3C000000 		.4byte	.LVL212
 5491 0451 88010000 		.4byte	.LVL256
 5492 0455 0100     		.2byte	0x1
 5493 0457 5A       		.byte	0x5a
 5494 0458 8C010000 		.4byte	.LVL257
 5495 045c EC010000 		.4byte	.LVL270
 5496 0460 0100     		.2byte	0x1
 5497 0462 5A       		.byte	0x5a
 5498 0463 F0010000 		.4byte	.LVL271
 5499 0467 42020000 		.4byte	.LVL281
 5500 046b 0100     		.2byte	0x1
 5501 046d 5A       		.byte	0x5a
 5502 046e 00000000 		.4byte	0
 5503 0472 00000000 		.4byte	0
 5504              	.LLST29:
 5505 0476 20000000 		.4byte	.LVL210
 5506 047a 7C000000 		.4byte	.LVL218
 5507 047e 0100     		.2byte	0x1
 5508 0480 57       		.byte	0x57
 5509 0481 DE010000 		.4byte	.LVL267
 5510 0485 32020000 		.4byte	.LVL277
 5511 0489 0100     		.2byte	0x1
 5512 048b 57       		.byte	0x57
 5513 048c 3A020000 		.4byte	.LVL279
 5514 0490 3C020000 		.4byte	.LVL280
 5515 0494 0100     		.2byte	0x1
 5516 0496 57       		.byte	0x57
 5517 0497 00000000 		.4byte	0
 5518 049b 00000000 		.4byte	0
 5519              	.LLST30:
 5520 049f 00000000 		.4byte	.LVL282
 5521 04a3 09000000 		.4byte	.LVL283-1
 5522 04a7 0100     		.2byte	0x1
 5523 04a9 50       		.byte	0x50
ARM GAS  C:\Users\Daniel\AppData\Local\Temp\cczCpxmi.s 			page 109


 5524 04aa 09000000 		.4byte	.LVL283-1
 5525 04ae 04030000 		.4byte	.LFE71
 5526 04b2 0400     		.2byte	0x4
 5527 04b4 F3       		.byte	0xf3
 5528 04b5 01       		.uleb128 0x1
 5529 04b6 50       		.byte	0x50
 5530 04b7 9F       		.byte	0x9f
 5531 04b8 00000000 		.4byte	0
 5532 04bc 00000000 		.4byte	0
 5533              	.LLST31:
 5534 04c0 E0000000 		.4byte	.LVL308
 5535 04c4 FC000000 		.4byte	.LVL314
 5536 04c8 0600     		.2byte	0x6
 5537 04ca 56       		.byte	0x56
 5538 04cb 93       		.byte	0x93
 5539 04cc 04       		.uleb128 0x4
 5540 04cd 57       		.byte	0x57
 5541 04ce 93       		.byte	0x93
 5542 04cf 04       		.uleb128 0x4
 5543 04d0 4C010000 		.4byte	.LVL324
 5544 04d4 86010000 		.4byte	.LVL334
 5545 04d8 0600     		.2byte	0x6
 5546 04da 56       		.byte	0x56
 5547 04db 93       		.byte	0x93
 5548 04dc 04       		.uleb128 0x4
 5549 04dd 57       		.byte	0x57
 5550 04de 93       		.byte	0x93
 5551 04df 04       		.uleb128 0x4
 5552 04e0 00000000 		.4byte	0
 5553 04e4 00000000 		.4byte	0
 5554              	.LLST32:
 5555 04e8 AE000000 		.4byte	.LVL301
 5556 04ec B1000000 		.4byte	.LVL302-1
 5557 04f0 0600     		.2byte	0x6
 5558 04f2 50       		.byte	0x50
 5559 04f3 93       		.byte	0x93
 5560 04f4 04       		.uleb128 0x4
 5561 04f5 51       		.byte	0x51
 5562 04f6 93       		.byte	0x93
 5563 04f7 04       		.uleb128 0x4
 5564 04f8 1A010000 		.4byte	.LVL317
 5565 04fc 1D010000 		.4byte	.LVL318-1
 5566 0500 0600     		.2byte	0x6
 5567 0502 50       		.byte	0x50
 5568 0503 93       		.byte	0x93
 5569 0504 04       		.uleb128 0x4
 5570 0505 51       		.byte	0x51
 5571 0506 93       		.byte	0x93
 5572 0507 04       		.uleb128 0x4
 5573 0508 00000000 		.4byte	0
 5574 050c 00000000 		.4byte	0
 5575              	.LLST33:
 5576 0510 3E000000 		.4byte	.LVL291
 5577 0514 76010000 		.4byte	.LVL332
 5578 0518 0100     		.2byte	0x1
 5579 051a 59       		.byte	0x59
 5580 051b 7E010000 		.4byte	.LVL333
ARM GAS  C:\Users\Daniel\AppData\Local\Temp\cczCpxmi.s 			page 110


 5581 051f DE010000 		.4byte	.LVL344
 5582 0523 0100     		.2byte	0x1
 5583 0525 59       		.byte	0x59
 5584 0526 E6010000 		.4byte	.LVL345
 5585 052a 40020000 		.4byte	.LVL358
 5586 052e 0100     		.2byte	0x1
 5587 0530 59       		.byte	0x59
 5588 0531 48020000 		.4byte	.LVL359
 5589 0535 9A020000 		.4byte	.LVL371
 5590 0539 0100     		.2byte	0x1
 5591 053b 59       		.byte	0x59
 5592 053c A2020000 		.4byte	.LVL372
 5593 0540 B6020000 		.4byte	.LVL374
 5594 0544 0100     		.2byte	0x1
 5595 0546 59       		.byte	0x59
 5596 0547 00000000 		.4byte	0
 5597 054b 00000000 		.4byte	0
 5598              	.LLST34:
 5599 054f 46000000 		.4byte	.LVL292
 5600 0553 E6000000 		.4byte	.LVL310
 5601 0557 0100     		.2byte	0x1
 5602 0559 54       		.byte	0x54
 5603 055a FC000000 		.4byte	.LVL314
 5604 055e 52010000 		.4byte	.LVL326
 5605 0562 0100     		.2byte	0x1
 5606 0564 54       		.byte	0x54
 5607 0565 86010000 		.4byte	.LVL334
 5608 0569 EA010000 		.4byte	.LVL346
 5609 056d 0100     		.2byte	0x1
 5610 056f 54       		.byte	0x54
 5611 0570 EE010000 		.4byte	.LVL347
 5612 0574 F4010000 		.4byte	.LVL348
 5613 0578 0100     		.2byte	0x1
 5614 057a 54       		.byte	0x54
 5615 057b 50020000 		.4byte	.LVL360
 5616 057f 52020000 		.4byte	.LVL361
 5617 0583 0100     		.2byte	0x1
 5618 0585 54       		.byte	0x54
 5619 0586 AA020000 		.4byte	.LVL373
 5620 058a B6020000 		.4byte	.LVL374
 5621 058e 0100     		.2byte	0x1
 5622 0590 54       		.byte	0x54
 5623 0591 00000000 		.4byte	0
 5624 0595 00000000 		.4byte	0
 5625              	.LLST35:
 5626 0599 46000000 		.4byte	.LVL292
 5627 059d 4C000000 		.4byte	.LVL293
 5628 05a1 0200     		.2byte	0x2
 5629 05a3 30       		.byte	0x30
 5630 05a4 9F       		.byte	0x9f
 5631 05a5 4C000000 		.4byte	.LVL293
 5632 05a9 B6020000 		.4byte	.LVL374
 5633 05ad 0100     		.2byte	0x1
 5634 05af 58       		.byte	0x58
 5635 05b0 00000000 		.4byte	0
 5636 05b4 00000000 		.4byte	0
 5637              		.section	.debug_aranges,"",%progbits
ARM GAS  C:\Users\Daniel\AppData\Local\Temp\cczCpxmi.s 			page 111


 5638 0000 64000000 		.4byte	0x64
 5639 0004 0200     		.2byte	0x2
 5640 0006 00000000 		.4byte	.Ldebug_info0
 5641 000a 04       		.byte	0x4
 5642 000b 00       		.byte	0
 5643 000c 0000     		.2byte	0
 5644 000e 0000     		.2byte	0
 5645 0010 00000000 		.4byte	.LFB63
 5646 0014 8C000000 		.4byte	.LFE63-.LFB63
 5647 0018 00000000 		.4byte	.LFB64
 5648 001c 84020000 		.4byte	.LFE64-.LFB64
 5649 0020 00000000 		.4byte	.LFB65
 5650 0024 84000000 		.4byte	.LFE65-.LFB65
 5651 0028 00000000 		.4byte	.LFB66
 5652 002c 6C010000 		.4byte	.LFE66-.LFB66
 5653 0030 00000000 		.4byte	.LFB67
 5654 0034 24010000 		.4byte	.LFE67-.LFB67
 5655 0038 00000000 		.4byte	.LFB68
 5656 003c F4000000 		.4byte	.LFE68-.LFB68
 5657 0040 00000000 		.4byte	.LFB70
 5658 0044 0C000000 		.4byte	.LFE70-.LFB70
 5659 0048 00000000 		.4byte	.LFB69
 5660 004c BC000000 		.4byte	.LFE69-.LFB69
 5661 0050 00000000 		.4byte	.LFB72
 5662 0054 8C020000 		.4byte	.LFE72-.LFB72
 5663 0058 00000000 		.4byte	.LFB71
 5664 005c 04030000 		.4byte	.LFE71-.LFB71
 5665 0060 00000000 		.4byte	0
 5666 0064 00000000 		.4byte	0
 5667              		.section	.debug_ranges,"",%progbits
 5668              	.Ldebug_ranges0:
 5669 0000 26000000 		.4byte	.LBB2
 5670 0004 1E020000 		.4byte	.LBE2
 5671 0008 3A020000 		.4byte	.LBB3
 5672 000c 3C020000 		.4byte	.LBE3
 5673 0010 00000000 		.4byte	0
 5674 0014 00000000 		.4byte	0
 5675 0018 00000000 		.4byte	.LFB63
 5676 001c 8C000000 		.4byte	.LFE63
 5677 0020 00000000 		.4byte	.LFB64
 5678 0024 84020000 		.4byte	.LFE64
 5679 0028 00000000 		.4byte	.LFB65
 5680 002c 84000000 		.4byte	.LFE65
 5681 0030 00000000 		.4byte	.LFB66
 5682 0034 6C010000 		.4byte	.LFE66
 5683 0038 00000000 		.4byte	.LFB67
 5684 003c 24010000 		.4byte	.LFE67
 5685 0040 00000000 		.4byte	.LFB68
 5686 0044 F4000000 		.4byte	.LFE68
 5687 0048 00000000 		.4byte	.LFB70
 5688 004c 0C000000 		.4byte	.LFE70
 5689 0050 00000000 		.4byte	.LFB69
 5690 0054 BC000000 		.4byte	.LFE69
 5691 0058 00000000 		.4byte	.LFB72
 5692 005c 8C020000 		.4byte	.LFE72
 5693 0060 00000000 		.4byte	.LFB71
 5694 0064 04030000 		.4byte	.LFE71
ARM GAS  C:\Users\Daniel\AppData\Local\Temp\cczCpxmi.s 			page 112


 5695 0068 00000000 		.4byte	0
 5696 006c 00000000 		.4byte	0
 5697              		.section	.debug_line,"",%progbits
 5698              	.Ldebug_line0:
 5699 0000 1B040000 		.section	.debug_str,"MS",%progbits,1
 5699      0200EC01 
 5699      00000201 
 5699      FB0E0D00 
 5699      01010101 
 5700              	.LASF50:
 5701 0000 64697370 		.ascii	"display_mode\000"
 5701      6C61795F 
 5701      6D6F6465 
 5701      00
 5702              	.LASF21:
 5703 000d 48495354 		.ascii	"HISTOGRAM\000"
 5703      4F475241 
 5703      4D00
 5704              	.LASF51:
 5705 0017 636C6F73 		.ascii	"closestX\000"
 5705      65737458 
 5705      00
 5706              	.LASF52:
 5707 0020 636C6F73 		.ascii	"closestY\000"
 5707      65737459 
 5707      00
 5708              	.LASF34:
 5709 0029 5075636B 		.ascii	"PuckCanCollect\000"
 5709      43616E43 
 5709      6F6C6C65 
 5709      637400
 5710              	.LASF77:
 5711 0038 43616D65 		.ascii	"Camera_SetThresholds\000"
 5711      72615F53 
 5711      65745468 
 5711      72657368 
 5711      6F6C6473 
 5712              	.LASF27:
 5713 004d 5075636B 		.ascii	"PuckCloseAquire\000"
 5713      436C6F73 
 5713      65417175 
 5713      69726500 
 5714              	.LASF18:
 5715 005d 73697A65 		.ascii	"sizetype\000"
 5715      74797065 
 5715      00
 5716              	.LASF46:
 5717 0066 706F7369 		.ascii	"positioned\000"
 5717      74696F6E 
 5717      656400
 5718              	.LASF66:
 5719 0071 4D6F7665 		.ascii	"MovementPivotLeft\000"
 5719      6D656E74 
 5719      5069766F 
 5719      744C6566 
 5719      7400
 5720              	.LASF73:
ARM GAS  C:\Users\Daniel\AppData\Local\Temp\cczCpxmi.s 			page 113


 5721 0083 4D6F7665 		.ascii	"MovementForward\000"
 5721      6D656E74 
 5721      466F7277 
 5721      61726400 
 5722              	.LASF2:
 5723 0093 73686F72 		.ascii	"short int\000"
 5723      7420696E 
 5723      7400
 5724              	.LASF71:
 5725 009d 436C6177 		.ascii	"ClawClose\000"
 5725      436C6F73 
 5725      6500
 5726              	.LASF30:
 5727 00a7 616E676C 		.ascii	"angle\000"
 5727      6500
 5728              	.LASF12:
 5729 00ad 75696E74 		.ascii	"uint16\000"
 5729      313600
 5730              	.LASF64:
 5731 00b4 43617074 		.ascii	"CaptureFrameWithLights\000"
 5731      75726546 
 5731      72616D65 
 5731      57697468 
 5731      4C696768 
 5732              	.LASF11:
 5733 00cb 75696E74 		.ascii	"uint8\000"
 5733      3800
 5734              	.LASF54:
 5735 00d1 6E756D52 		.ascii	"numRows\000"
 5735      6F777300 
 5736              	.LASF76:
 5737 00d9 43616D65 		.ascii	"Camera_SetEGWB\000"
 5737      72615F53 
 5737      65744547 
 5737      574200
 5738              	.LASF23:
 5739 00e8 726F7461 		.ascii	"rotation\000"
 5739      74696F6E 
 5739      00
 5740              	.LASF74:
 5741 00f1 436C6177 		.ascii	"ClawOpen\000"
 5741      4F70656E 
 5741      00
 5742              	.LASF33:
 5743 00fa 5075636B 		.ascii	"PuckFarAquire\000"
 5743      46617241 
 5743      71756972 
 5743      6500
 5744              	.LASF43:
 5745 0108 63656E74 		.ascii	"centreX\000"
 5745      72655800 
 5746              	.LASF44:
 5747 0110 63656E74 		.ascii	"centreY\000"
 5747      72655900 
 5748              	.LASF78:
 5749 0118 43616D49 		.ascii	"CamIdentifyEndzone\000"
 5749      64656E74 
ARM GAS  C:\Users\Daniel\AppData\Local\Temp\cczCpxmi.s 			page 114


 5749      69667945 
 5749      6E647A6F 
 5749      6E6500
 5750              	.LASF15:
 5751 012b 666C6F61 		.ascii	"float\000"
 5751      7400
 5752              	.LASF58:
 5753 0131 6C726759 		.ascii	"lrgY\000"
 5753      00
 5754              	.LASF85:
 5755 0136 433A5C55 		.ascii	"C:\\Users\\Daniel\\Documents\\PSoC Creator\\ECE3091"
 5755      73657273 
 5755      5C44616E 
 5755      69656C5C 
 5755      446F6375 
 5756 0164 20466173 		.ascii	" Faster V3.6\\Display.cydsn\000"
 5756      74657220 
 5756      56332E36 
 5756      5C446973 
 5756      706C6179 
 5757              	.LASF6:
 5758 017f 6C6F6E67 		.ascii	"long long int\000"
 5758      206C6F6E 
 5758      6720696E 
 5758      7400
 5759              	.LASF56:
 5760 018d 626C6F62 		.ascii	"blobThresholdSizeDefault\000"
 5760      54687265 
 5760      73686F6C 
 5760      6453697A 
 5760      65446566 
 5761              	.LASF57:
 5762 01a6 6C726743 		.ascii	"lrgClr\000"
 5762      6C7200
 5763              	.LASF22:
 5764 01ad 54485245 		.ascii	"THRESHOLDED\000"
 5764      53484F4C 
 5764      44454400 
 5765              	.LASF86:
 5766 01b9 5075636B 		.ascii	"PuckResetAngleTotal\000"
 5766      52657365 
 5766      74416E67 
 5766      6C65546F 
 5766      74616C00 
 5767              	.LASF14:
 5768 01cd 696E7438 		.ascii	"int8\000"
 5768      00
 5769              	.LASF45:
 5770 01d2 63616E53 		.ascii	"canSee\000"
 5770      656500
 5771              	.LASF32:
 5772 01d9 5075636B 		.ascii	"PuckFarScan\000"
 5772      46617253 
 5772      63616E00 
 5773              	.LASF55:
 5774 01e5 6E756D43 		.ascii	"numCols\000"
 5774      6F6C7300 
ARM GAS  C:\Users\Daniel\AppData\Local\Temp\cczCpxmi.s 			page 115


 5775              	.LASF20:
 5776 01ed 494D4147 		.ascii	"IMAGE\000"
 5776      4500
 5777              	.LASF1:
 5778 01f3 756E7369 		.ascii	"unsigned char\000"
 5778      676E6564 
 5778      20636861 
 5778      7200
 5779              	.LASF40:
 5780 0201 5075636B 		.ascii	"PuckAquire\000"
 5780      41717569 
 5780      726500
 5781              	.LASF19:
 5782 020c 6C6F6E67 		.ascii	"long double\000"
 5782      20646F75 
 5782      626C6500 
 5783              	.LASF81:
 5784 0218 43616D49 		.ascii	"CamIdenifyEndzonePuck\000"
 5784      64656E69 
 5784      6679456E 
 5784      647A6F6E 
 5784      65507563 
 5785              	.LASF38:
 5786 022e 636F6E73 		.ascii	"consistent\000"
 5786      69737465 
 5786      6E7400
 5787              	.LASF84:
 5788 0239 2E5C7075 		.ascii	".\\puck_functions.c\000"
 5788      636B5F66 
 5788      756E6374 
 5788      696F6E73 
 5788      2E6300
 5789              	.LASF48:
 5790 024c 49544D5F 		.ascii	"ITM_RxBuffer\000"
 5790      52784275 
 5790      66666572 
 5790      00
 5791              	.LASF72:
 5792 0259 4D6F7665 		.ascii	"MovementBackward\000"
 5792      6D656E74 
 5792      4261636B 
 5792      77617264 
 5792      00
 5793              	.LASF67:
 5794 026a 4D6F7665 		.ascii	"MovementPivotRight\000"
 5794      6D656E74 
 5794      5069766F 
 5794      74526967 
 5794      687400
 5795              	.LASF7:
 5796 027d 6C6F6E67 		.ascii	"long long unsigned int\000"
 5796      206C6F6E 
 5796      6720756E 
 5796      7369676E 
 5796      65642069 
 5797              	.LASF8:
 5798 0294 756E7369 		.ascii	"unsigned int\000"
ARM GAS  C:\Users\Daniel\AppData\Local\Temp\cczCpxmi.s 			page 116


 5798      676E6564 
 5798      20696E74 
 5798      00
 5799              	.LASF75:
 5800 02a1 50574D5F 		.ascii	"PWM_Tilt_WriteCompare\000"
 5800      54696C74 
 5800      5F577269 
 5800      7465436F 
 5800      6D706172 
 5801              	.LASF62:
 5802 02b7 616E676C 		.ascii	"angleTotal\000"
 5802      65546F74 
 5802      616C00
 5803              	.LASF35:
 5804 02c2 64657465 		.ascii	"detectHeight\000"
 5804      63744865 
 5804      69676874 
 5804      00
 5805              	.LASF49:
 5806 02cf 43616D65 		.ascii	"Camera_linebuffer\000"
 5806      72615F6C 
 5806      696E6562 
 5806      75666665 
 5806      7200
 5807              	.LASF3:
 5808 02e1 73686F72 		.ascii	"short unsigned int\000"
 5808      7420756E 
 5808      7369676E 
 5808      65642069 
 5808      6E7400
 5809              	.LASF0:
 5810 02f4 7369676E 		.ascii	"signed char\000"
 5810      65642063 
 5810      68617200 
 5811              	.LASF80:
 5812 0300 43616D44 		.ascii	"CamDisplaySeq\000"
 5812      6973706C 
 5812      61795365 
 5812      7100
 5813              	.LASF17:
 5814 030e 63686172 		.ascii	"char\000"
 5814      00
 5815              	.LASF47:
 5816 0313 5075636B 		.ascii	"PuckPositionToStack\000"
 5816      506F7369 
 5816      74696F6E 
 5816      546F5374 
 5816      61636B00 
 5817              	.LASF4:
 5818 0327 6C6F6E67 		.ascii	"long int\000"
 5818      20696E74 
 5818      00
 5819              	.LASF10:
 5820 0330 696E7433 		.ascii	"int32_t\000"
 5820      325F7400 
 5821              	.LASF26:
 5822 0338 5075636B 		.ascii	"PuckCloseScan\000"
ARM GAS  C:\Users\Daniel\AppData\Local\Temp\cczCpxmi.s 			page 117


 5822      436C6F73 
 5822      65536361 
 5822      6E00
 5823              	.LASF53:
 5824 0346 6C6F7765 		.ascii	"lowestY\000"
 5824      73745900 
 5825              	.LASF31:
 5826 034e 58595261 		.ascii	"XYRatio\000"
 5826      74696F00 
 5827              	.LASF25:
 5828 0356 5F426F6F 		.ascii	"_Bool\000"
 5828      6C00
 5829              	.LASF70:
 5830 035c 43616D53 		.ascii	"CamSeqOperations\000"
 5830      65714F70 
 5830      65726174 
 5830      696F6E73 
 5830      00
 5831              	.LASF69:
 5832 036d 6174616E 		.ascii	"atan\000"
 5832      00
 5833              	.LASF39:
 5834 0372 5075636B 		.ascii	"PuckFindEndzone\000"
 5834      46696E64 
 5834      456E647A 
 5834      6F6E6500 
 5835              	.LASF13:
 5836 0382 75696E74 		.ascii	"uint32\000"
 5836      333200
 5837              	.LASF41:
 5838 0389 5075636B 		.ascii	"PuckPositionToStack2\000"
 5838      506F7369 
 5838      74696F6E 
 5838      546F5374 
 5838      61636B32 
 5839              	.LASF5:
 5840 039e 6C6F6E67 		.ascii	"long unsigned int\000"
 5840      20756E73 
 5840      69676E65 
 5840      6420696E 
 5840      7400
 5841              	.LASF16:
 5842 03b0 646F7562 		.ascii	"double\000"
 5842      6C6500
 5843              	.LASF60:
 5844 03b7 43414D45 		.ascii	"CAMERA_X_OFFSET\000"
 5844      52415F58 
 5844      5F4F4646 
 5844      53455400 
 5845              	.LASF68:
 5846 03c7 43616D53 		.ascii	"CamScanClosest\000"
 5846      63616E43 
 5846      6C6F7365 
 5846      737400
 5847              	.LASF29:
 5848 03d6 666F756E 		.ascii	"found\000"
 5848      6400
ARM GAS  C:\Users\Daniel\AppData\Local\Temp\cczCpxmi.s 			page 118


 5849              	.LASF79:
 5850 03dc 50616E4D 		.ascii	"PanMid\000"
 5850      696400
 5851              	.LASF87:
 5852 03e3 59656E64 		.ascii	"Yend\000"
 5852      00
 5853              	.LASF9:
 5854 03e8 5F5F696E 		.ascii	"__int32_t\000"
 5854      7433325F 
 5854      7400
 5855              	.LASF83:
 5856 03f2 474E5520 		.ascii	"GNU C 4.9.3 20150303 (release) [ARM/embedded-4_9-br"
 5856      4320342E 
 5856      392E3320 
 5856      32303135 
 5856      30333033 
 5857 0425 616E6368 		.ascii	"anch revision 221220] -mcpu=cortex-m3 -mthumb -g -O"
 5857      20726576 
 5857      6973696F 
 5857      6E203232 
 5857      31323230 
 5858 0458 67202D66 		.ascii	"g -ffunction-sections -ffat-lto-objects\000"
 5858      66756E63 
 5858      74696F6E 
 5858      2D736563 
 5858      74696F6E 
 5859              	.LASF36:
 5860 0480 72616E67 		.ascii	"range\000"
 5860      6500
 5861              	.LASF59:
 5862 0486 43414D45 		.ascii	"CAMERA_Y_OFFSET\000"
 5862      52415F59 
 5862      5F4F4646 
 5862      53455400 
 5863              	.LASF28:
 5864 0496 70617468 		.ascii	"path\000"
 5864      00
 5865              	.LASF24:
 5866 049b 436C724F 		.ascii	"ClrOnScreen\000"
 5866      6E536372 
 5866      65656E00 
 5867              	.LASF82:
 5868 04a7 63627274 		.ascii	"cbrt\000"
 5868      00
 5869              	.LASF42:
 5870 04ac 616E676C 		.ascii	"angleTot\000"
 5870      65546F74 
 5870      00
 5871              	.LASF61:
 5872 04b5 636F7272 		.ascii	"corrFact\000"
 5872      46616374 
 5872      00
 5873              	.LASF37:
 5874 04be 794F6666 		.ascii	"yOffset\000"
 5874      73657400 
 5875              	.LASF65:
 5876 04c6 43794465 		.ascii	"CyDelay\000"
ARM GAS  C:\Users\Daniel\AppData\Local\Temp\cczCpxmi.s 			page 119


 5876      6C617900 
 5877              	.LASF63:
 5878 04ce 54696C74 		.ascii	"TiltDown45\000"
 5878      446F776E 
 5878      343500
 5879              		.ident	"GCC: (GNU Tools for ARM Embedded Processors) 4.9.3 20150303 (release) [ARM/embedded-4_9-br
