ARM GAS  C:\Users\Daniel\AppData\Local\Temp\ccclGQdl.s 			page 1


   1              		.syntax unified
   2              		.cpu cortex-m3
   3              		.fpu softvfp
   4              		.eabi_attribute 20, 1
   5              		.eabi_attribute 21, 1
   6              		.eabi_attribute 23, 3
   7              		.eabi_attribute 24, 1
   8              		.eabi_attribute 25, 1
   9              		.eabi_attribute 26, 1
  10              		.eabi_attribute 30, 1
  11              		.eabi_attribute 34, 1
  12              		.eabi_attribute 18, 4
  13              		.thumb
  14              		.file	"Ultrasonics.c"
  15              		.text
  16              	.Ltext0:
  17              		.cfi_sections	.debug_frame
  18              		.global	__aeabi_i2d
  19              		.global	__aeabi_dmul
  20              		.section	.text.Ultrasonics,"ax",%progbits
  21              		.align	2
  22              		.global	Ultrasonics
  23              		.thumb
  24              		.thumb_func
  25              		.type	Ultrasonics, %function
  26              	Ultrasonics:
  27              	.LFB63:
  28              		.file 1 ".\\Ultrasonics.c"
   1:.\Ultrasonics.c **** /*
   2:.\Ultrasonics.c ****  * Copyright @Pucktacular, 2016
   3:.\Ultrasonics.c ****  * @Matt Gebert, Daniel Hranilovic & Kevin Duxbury
   4:.\Ultrasonics.c ****  * All Rights Reserved
   5:.\Ultrasonics.c ****  * UNPUBLISHED, LICENSED SOFTWARE.
   6:.\Ultrasonics.c ****  *
   7:.\Ultrasonics.c ****  * CONFIDENTIAL AND PROPRIETARY INFORMATION
   8:.\Ultrasonics.c ****  * WHICH IS THE PROPERTY OF your company.
   9:.\Ultrasonics.c ****  *
  10:.\Ultrasonics.c ****  * ========================================
  11:.\Ultrasonics.c **** */
  12:.\Ultrasonics.c **** #include <project.h>
  13:.\Ultrasonics.c **** #include <stdbool.h>
  14:.\Ultrasonics.c **** #include <math.h>
  15:.\Ultrasonics.c **** #include <stdlib.h>
  16:.\Ultrasonics.c **** #include "movement_functions.h"
  17:.\Ultrasonics.c **** #include "Ultrasonics.h"
  18:.\Ultrasonics.c **** #include "utils.h"
  19:.\Ultrasonics.c **** 
  20:.\Ultrasonics.c **** /*******************************************************************************
  21:.\Ultrasonics.c **** * Function Name: Ultrasonics
  22:.\Ultrasonics.c **** ****************************************************************************//**
  23:.\Ultrasonics.c **** *
  24:.\Ultrasonics.c **** * Takes input of which sensor to use (1 for left, else of right (use 0 or 2))
  25:.\Ultrasonics.c **** * Will output a float for distance from ultrasonic sensors
  26:.\Ultrasonics.c **** *
  27:.\Ultrasonics.c **** *******************************************************************************/
  28:.\Ultrasonics.c **** 
  29:.\Ultrasonics.c **** double Ultrasonics(uint8 sensor){
ARM GAS  C:\Users\Daniel\AppData\Local\Temp\ccclGQdl.s 			page 2


  29              		.loc 1 29 0
  30              		.cfi_startproc
  31              		@ args = 0, pretend = 0, frame = 0
  32              		@ frame_needed = 0, uses_anonymous_args = 0
  33              	.LVL0:
  34 0000 38B5     		push	{r3, r4, r5, lr}
  35              		.cfi_def_cfa_offset 16
  36              		.cfi_offset 3, -16
  37              		.cfi_offset 4, -12
  38              		.cfi_offset 5, -8
  39              		.cfi_offset 14, -4
  40 0002 0446     		mov	r4, r0
  30:.\Ultrasonics.c ****     uint16 countstart,countend, diff;
  31:.\Ultrasonics.c ****     double time, dist;
  32:.\Ultrasonics.c ****         Beep(3);
  41              		.loc 1 32 0
  42 0004 0320     		movs	r0, #3
  43              	.LVL1:
  44 0006 FFF7FEFF 		bl	Beep
  45              	.LVL2:
  33:.\Ultrasonics.c ****         BiDirPortInPut();
  46              		.loc 1 33 0
  47 000a FFF7FEFF 		bl	BiDirPortInPut
  48              	.LVL3:
  34:.\Ultrasonics.c ****         CS_Write(0x01);
  49              		.loc 1 34 0
  50 000e 0120     		movs	r0, #1
  51 0010 FFF7FEFF 		bl	CS_Write
  52              	.LVL4:
  35:.\Ultrasonics.c ****         if (sensor==1){
  53              		.loc 1 35 0
  54 0014 012C     		cmp	r4, #1
  55 0016 19D1     		bne	.L2
  36:.\Ultrasonics.c ****             USTX_Write(1);
  56              		.loc 1 36 0
  57 0018 0120     		movs	r0, #1
  58 001a FFF7FEFF 		bl	USTX_Write
  59              	.LVL5:
  37:.\Ultrasonics.c ****             CyDelayUs(10);
  60              		.loc 1 37 0
  61 001e 0A20     		movs	r0, #10
  62 0020 FFF7FEFF 		bl	CyDelayUs
  63              	.LVL6:
  38:.\Ultrasonics.c ****             USTX_Write(0);
  64              		.loc 1 38 0
  65 0024 0020     		movs	r0, #0
  66 0026 FFF7FEFF 		bl	USTX_Write
  67              	.LVL7:
  68              	.L3:
  39:.\Ultrasonics.c ****             while (!(D_Read()&0x1)){
  69              		.loc 1 39 0 discriminator 1
  70 002a FFF7FEFF 		bl	D_Read
  71              	.LVL8:
  72 002e 10F0010F 		tst	r0, #1
  73 0032 FAD0     		beq	.L3
  40:.\Ultrasonics.c ****             }
  41:.\Ultrasonics.c ****             countstart=Timer_1_ReadCounter();
ARM GAS  C:\Users\Daniel\AppData\Local\Temp\ccclGQdl.s 			page 3


  74              		.loc 1 41 0
  75 0034 FFF7FEFF 		bl	Timer_1_ReadCounter
  76              	.LVL9:
  77 0038 0446     		mov	r4, r0
  78              	.LVL10:
  79              	.L4:
  42:.\Ultrasonics.c ****             while ((D_Read()&0x1)==0x1){
  80              		.loc 1 42 0 discriminator 1
  81 003a FFF7FEFF 		bl	D_Read
  82              	.LVL11:
  83 003e 10F0010F 		tst	r0, #1
  84 0042 FAD1     		bne	.L4
  43:.\Ultrasonics.c ****             }
  44:.\Ultrasonics.c ****             countend=Timer_1_ReadCounter();
  85              		.loc 1 44 0
  86 0044 FFF7FEFF 		bl	Timer_1_ReadCounter
  87              	.LVL12:
  88 0048 0546     		mov	r5, r0
  89              	.LVL13:
  90 004a 18E0     		b	.L5
  91              	.LVL14:
  92              	.L2:
  45:.\Ultrasonics.c ****         }else{ 
  46:.\Ultrasonics.c ****             USTX2_Write(1);
  93              		.loc 1 46 0
  94 004c 0120     		movs	r0, #1
  95 004e FFF7FEFF 		bl	USTX2_Write
  96              	.LVL15:
  47:.\Ultrasonics.c ****             CyDelayUs(10);
  97              		.loc 1 47 0
  98 0052 0A20     		movs	r0, #10
  99 0054 FFF7FEFF 		bl	CyDelayUs
 100              	.LVL16:
  48:.\Ultrasonics.c ****             USTX2_Write(0);
 101              		.loc 1 48 0
 102 0058 0020     		movs	r0, #0
 103 005a FFF7FEFF 		bl	USTX2_Write
 104              	.LVL17:
 105              	.L6:
  49:.\Ultrasonics.c ****             while (!(D_Read()&0x4)){
 106              		.loc 1 49 0 discriminator 1
 107 005e FFF7FEFF 		bl	D_Read
 108              	.LVL18:
 109 0062 10F0040F 		tst	r0, #4
 110 0066 FAD0     		beq	.L6
  50:.\Ultrasonics.c ****             }
  51:.\Ultrasonics.c ****             countstart=Timer_1_ReadCounter();
 111              		.loc 1 51 0
 112 0068 FFF7FEFF 		bl	Timer_1_ReadCounter
 113              	.LVL19:
 114 006c 0446     		mov	r4, r0
 115              	.LVL20:
 116              	.L7:
  52:.\Ultrasonics.c ****             while ((D_Read()&0x4)==0x4){
 117              		.loc 1 52 0 discriminator 1
 118 006e FFF7FEFF 		bl	D_Read
 119              	.LVL21:
ARM GAS  C:\Users\Daniel\AppData\Local\Temp\ccclGQdl.s 			page 4


 120 0072 10F0040F 		tst	r0, #4
 121 0076 FAD1     		bne	.L7
  53:.\Ultrasonics.c ****             }
  54:.\Ultrasonics.c ****             countend=Timer_1_ReadCounter();
 122              		.loc 1 54 0
 123 0078 FFF7FEFF 		bl	Timer_1_ReadCounter
 124              	.LVL22:
 125 007c 0546     		mov	r5, r0
 126              	.LVL23:
 127              	.L5:
  55:.\Ultrasonics.c ****         }
  56:.\Ultrasonics.c **** 
  57:.\Ultrasonics.c ****         CS_Write(8);
 128              		.loc 1 57 0
 129 007e 0820     		movs	r0, #8
 130 0080 FFF7FEFF 		bl	CS_Write
 131              	.LVL24:
  58:.\Ultrasonics.c ****         diff=countstart-countend;
 132              		.loc 1 58 0
 133 0084 641B     		subs	r4, r4, r5
 134              	.LVL25:
 135 0086 A4B2     		uxth	r4, r4
 136              	.LVL26:
  59:.\Ultrasonics.c ****         BiDirPortOutPut();
 137              		.loc 1 59 0
 138 0088 FFF7FEFF 		bl	BiDirPortOutPut
 139              	.LVL27:
  60:.\Ultrasonics.c ****         
  61:.\Ultrasonics.c ****         //time=0.002731*diff/65536; //this is in seconds (0.002731 for 24 MHz clock)
  62:.\Ultrasonics.c ****         time=0.006372*diff/65536; //this is in seconds (0.006372 for 10 MHz clock)
 140              		.loc 1 62 0
 141 008c 2046     		mov	r0, r4
 142 008e FFF7FEFF 		bl	__aeabi_i2d
 143              	.LVL28:
 144 0092 09A3     		adr	r3, .L9
 145 0094 D3E90023 		ldrd	r2, [r3]
 146 0098 FFF7FEFF 		bl	__aeabi_dmul
 147              	.LVL29:
 148 009c 0022     		movs	r2, #0
 149 009e 0A4B     		ldr	r3, .L9+16
 150 00a0 FFF7FEFF 		bl	__aeabi_dmul
 151              	.LVL30:
  63:.\Ultrasonics.c ****         dist=time*34300/2;    //in cm -> note /2 because there and back again (a hobbits journey)
 152              		.loc 1 63 0
 153 00a4 06A3     		adr	r3, .L9+8
 154 00a6 D3E90023 		ldrd	r2, [r3]
 155 00aa FFF7FEFF 		bl	__aeabi_dmul
 156              	.LVL31:
 157 00ae 0022     		movs	r2, #0
 158 00b0 064B     		ldr	r3, .L9+20
 159 00b2 FFF7FEFF 		bl	__aeabi_dmul
 160              	.LVL32:
  64:.\Ultrasonics.c ****         
  65:.\Ultrasonics.c ****         return dist;
  66:.\Ultrasonics.c **** }
 161              		.loc 1 66 0
 162 00b6 38BD     		pop	{r3, r4, r5, pc}
ARM GAS  C:\Users\Daniel\AppData\Local\Temp\ccclGQdl.s 			page 5


 163              	.LVL33:
 164              	.L10:
 165              		.align	3
 166              	.L9:
 167 00b8 CD04C3B9 		.word	-1178401587
 168 00bc 86197A3F 		.word	1064966534
 169 00c0 00000000 		.word	0
 170 00c4 80BFE040 		.word	1088470912
 171 00c8 0000F03E 		.word	1055916032
 172 00cc 0000E03F 		.word	1071644672
 173              		.cfi_endproc
 174              	.LFE63:
 175              		.size	Ultrasonics, .-Ultrasonics
 176              		.section	.text.UltrasonicsSensitive,"ax",%progbits
 177              		.align	2
 178              		.global	UltrasonicsSensitive
 179              		.thumb
 180              		.thumb_func
 181              		.type	UltrasonicsSensitive, %function
 182              	UltrasonicsSensitive:
 183              	.LFB64:
  67:.\Ultrasonics.c **** 
  68:.\Ultrasonics.c **** double UltrasonicsSensitive(uint8 sensor){
 184              		.loc 1 68 0
 185              		.cfi_startproc
 186              		@ args = 0, pretend = 0, frame = 0
 187              		@ frame_needed = 0, uses_anonymous_args = 0
 188              	.LVL34:
 189 0000 38B5     		push	{r3, r4, r5, lr}
 190              		.cfi_def_cfa_offset 16
 191              		.cfi_offset 3, -16
 192              		.cfi_offset 4, -12
 193              		.cfi_offset 5, -8
 194              		.cfi_offset 14, -4
 195 0002 0446     		mov	r4, r0
  69:.\Ultrasonics.c ****     uint16 countstart,countend, diff;
  70:.\Ultrasonics.c ****     double time, dist;
  71:.\Ultrasonics.c ****         Beep(3);
 196              		.loc 1 71 0
 197 0004 0320     		movs	r0, #3
 198              	.LVL35:
 199 0006 FFF7FEFF 		bl	Beep
 200              	.LVL36:
  72:.\Ultrasonics.c ****         BiDirPortInPut();
 201              		.loc 1 72 0
 202 000a FFF7FEFF 		bl	BiDirPortInPut
 203              	.LVL37:
  73:.\Ultrasonics.c ****         CS_Write(0x01);
 204              		.loc 1 73 0
 205 000e 0120     		movs	r0, #1
 206 0010 FFF7FEFF 		bl	CS_Write
 207              	.LVL38:
  74:.\Ultrasonics.c ****         if (sensor==1){
 208              		.loc 1 74 0
 209 0014 012C     		cmp	r4, #1
 210 0016 19D1     		bne	.L12
  75:.\Ultrasonics.c ****             USTX_Write(1);
ARM GAS  C:\Users\Daniel\AppData\Local\Temp\ccclGQdl.s 			page 6


 211              		.loc 1 75 0
 212 0018 0120     		movs	r0, #1
 213 001a FFF7FEFF 		bl	USTX_Write
 214              	.LVL39:
  76:.\Ultrasonics.c ****             CyDelayUs(10);
 215              		.loc 1 76 0
 216 001e 0A20     		movs	r0, #10
 217 0020 FFF7FEFF 		bl	CyDelayUs
 218              	.LVL40:
  77:.\Ultrasonics.c ****             USTX_Write(0);
 219              		.loc 1 77 0
 220 0024 0020     		movs	r0, #0
 221 0026 FFF7FEFF 		bl	USTX_Write
 222              	.LVL41:
 223              	.L13:
  78:.\Ultrasonics.c ****             while (!(D_Read()&0x1)){
 224              		.loc 1 78 0 discriminator 1
 225 002a FFF7FEFF 		bl	D_Read
 226              	.LVL42:
 227 002e 10F0010F 		tst	r0, #1
 228 0032 FAD0     		beq	.L13
  79:.\Ultrasonics.c ****             }
  80:.\Ultrasonics.c ****             countstart=Timer_2_ReadCounter();
 229              		.loc 1 80 0
 230 0034 FFF7FEFF 		bl	Timer_2_ReadCounter
 231              	.LVL43:
 232 0038 0446     		mov	r4, r0
 233              	.LVL44:
 234              	.L14:
  81:.\Ultrasonics.c ****             while ((D_Read()&0x1)==0x1){
 235              		.loc 1 81 0 discriminator 1
 236 003a FFF7FEFF 		bl	D_Read
 237              	.LVL45:
 238 003e 10F0010F 		tst	r0, #1
 239 0042 FAD1     		bne	.L14
  82:.\Ultrasonics.c ****             }
  83:.\Ultrasonics.c ****             countend=Timer_2_ReadCounter();
 240              		.loc 1 83 0
 241 0044 FFF7FEFF 		bl	Timer_2_ReadCounter
 242              	.LVL46:
 243 0048 0546     		mov	r5, r0
 244              	.LVL47:
 245 004a 18E0     		b	.L15
 246              	.LVL48:
 247              	.L12:
  84:.\Ultrasonics.c ****         }else{ 
  85:.\Ultrasonics.c ****             USTX2_Write(1);
 248              		.loc 1 85 0
 249 004c 0120     		movs	r0, #1
 250 004e FFF7FEFF 		bl	USTX2_Write
 251              	.LVL49:
  86:.\Ultrasonics.c ****             CyDelayUs(10);
 252              		.loc 1 86 0
 253 0052 0A20     		movs	r0, #10
 254 0054 FFF7FEFF 		bl	CyDelayUs
 255              	.LVL50:
  87:.\Ultrasonics.c ****             USTX2_Write(0);
ARM GAS  C:\Users\Daniel\AppData\Local\Temp\ccclGQdl.s 			page 7


 256              		.loc 1 87 0
 257 0058 0020     		movs	r0, #0
 258 005a FFF7FEFF 		bl	USTX2_Write
 259              	.LVL51:
 260              	.L16:
  88:.\Ultrasonics.c ****             while (!(D_Read()&0x4)){
 261              		.loc 1 88 0 discriminator 1
 262 005e FFF7FEFF 		bl	D_Read
 263              	.LVL52:
 264 0062 10F0040F 		tst	r0, #4
 265 0066 FAD0     		beq	.L16
  89:.\Ultrasonics.c ****             }
  90:.\Ultrasonics.c ****             countstart=Timer_2_ReadCounter();
 266              		.loc 1 90 0
 267 0068 FFF7FEFF 		bl	Timer_2_ReadCounter
 268              	.LVL53:
 269 006c 0446     		mov	r4, r0
 270              	.LVL54:
 271              	.L17:
  91:.\Ultrasonics.c ****             while ((D_Read()&0x4)==0x4){
 272              		.loc 1 91 0 discriminator 1
 273 006e FFF7FEFF 		bl	D_Read
 274              	.LVL55:
 275 0072 10F0040F 		tst	r0, #4
 276 0076 FAD1     		bne	.L17
  92:.\Ultrasonics.c ****             }
  93:.\Ultrasonics.c ****             countend=Timer_2_ReadCounter();
 277              		.loc 1 93 0
 278 0078 FFF7FEFF 		bl	Timer_2_ReadCounter
 279              	.LVL56:
 280 007c 0546     		mov	r5, r0
 281              	.LVL57:
 282              	.L15:
  94:.\Ultrasonics.c ****         }
  95:.\Ultrasonics.c **** 
  96:.\Ultrasonics.c ****         CS_Write(8);
 283              		.loc 1 96 0
 284 007e 0820     		movs	r0, #8
 285 0080 FFF7FEFF 		bl	CS_Write
 286              	.LVL58:
  97:.\Ultrasonics.c ****         diff=countstart-countend;
 287              		.loc 1 97 0
 288 0084 641B     		subs	r4, r4, r5
 289              	.LVL59:
 290 0086 A4B2     		uxth	r4, r4
 291              	.LVL60:
  98:.\Ultrasonics.c ****         BiDirPortOutPut();
 292              		.loc 1 98 0
 293 0088 FFF7FEFF 		bl	BiDirPortOutPut
 294              	.LVL61:
  99:.\Ultrasonics.c ****         
 100:.\Ultrasonics.c ****         //time=0.002731*diff/65536; //this is in seconds (0.002731 for 24 MHz clock)
 101:.\Ultrasonics.c ****         time=0.00182*diff/65536; //this is in seconds (0.00182 for 36 MHz clock)
 295              		.loc 1 101 0
 296 008c 2046     		mov	r0, r4
 297 008e FFF7FEFF 		bl	__aeabi_i2d
 298              	.LVL62:
ARM GAS  C:\Users\Daniel\AppData\Local\Temp\ccclGQdl.s 			page 8


 299 0092 09A3     		adr	r3, .L19
 300 0094 D3E90023 		ldrd	r2, [r3]
 301 0098 FFF7FEFF 		bl	__aeabi_dmul
 302              	.LVL63:
 303 009c 0022     		movs	r2, #0
 304 009e 0A4B     		ldr	r3, .L19+16
 305 00a0 FFF7FEFF 		bl	__aeabi_dmul
 306              	.LVL64:
 102:.\Ultrasonics.c ****         dist=time*34300/2;    //in cm -> note /2 because there and back again (a hobbits journey)
 307              		.loc 1 102 0
 308 00a4 06A3     		adr	r3, .L19+8
 309 00a6 D3E90023 		ldrd	r2, [r3]
 310 00aa FFF7FEFF 		bl	__aeabi_dmul
 311              	.LVL65:
 312 00ae 0022     		movs	r2, #0
 313 00b0 064B     		ldr	r3, .L19+20
 314 00b2 FFF7FEFF 		bl	__aeabi_dmul
 315              	.LVL66:
 103:.\Ultrasonics.c ****         
 104:.\Ultrasonics.c ****         return dist;
 105:.\Ultrasonics.c **** }
 316              		.loc 1 105 0
 317 00b6 38BD     		pop	{r3, r4, r5, pc}
 318              	.LVL67:
 319              	.L20:
 320              		.align	3
 321              	.L19:
 322 00b8 3659A31E 		.word	514021686
 323 00bc A2D15D3F 		.word	1063113122
 324 00c0 00000000 		.word	0
 325 00c4 80BFE040 		.word	1088470912
 326 00c8 0000F03E 		.word	1055916032
 327 00cc 0000E03F 		.word	1071644672
 328              		.cfi_endproc
 329              	.LFE64:
 330              		.size	UltrasonicsSensitive, .-UltrasonicsSensitive
 331              		.global	__aeabi_dsub
 332              		.global	__aeabi_dadd
 333              		.global	__aeabi_ddiv
 334              		.global	__aeabi_dcmpgt
 335              		.section	.text.Wall_Align,"ax",%progbits
 336              		.align	2
 337              		.global	Wall_Align
 338              		.thumb
 339              		.thumb_func
 340              		.type	Wall_Align, %function
 341              	Wall_Align:
 342              	.LFB65:
 106:.\Ultrasonics.c **** 
 107:.\Ultrasonics.c **** double Wall_Align(bool sense,bool sensors){
 343              		.loc 1 107 0
 344              		.cfi_startproc
 345              		@ args = 0, pretend = 0, frame = 16
 346              		@ frame_needed = 0, uses_anonymous_args = 0
 347              	.LVL68:
 348 0000 2DE9F04F 		push	{r4, r5, r6, r7, r8, r9, r10, fp, lr}
 349              		.cfi_def_cfa_offset 36
ARM GAS  C:\Users\Daniel\AppData\Local\Temp\ccclGQdl.s 			page 9


 350              		.cfi_offset 4, -36
 351              		.cfi_offset 5, -32
 352              		.cfi_offset 6, -28
 353              		.cfi_offset 7, -24
 354              		.cfi_offset 8, -20
 355              		.cfi_offset 9, -16
 356              		.cfi_offset 10, -12
 357              		.cfi_offset 11, -8
 358              		.cfi_offset 14, -4
 359 0004 85B0     		sub	sp, sp, #20
 360              		.cfi_def_cfa_offset 56
 361 0006 0646     		mov	r6, r0
 362 0008 0391     		str	r1, [sp, #12]
 363              	.LVL69:
 108:.\Ultrasonics.c ****     const double PI = 3.1415926535;
 109:.\Ultrasonics.c ****     const double supression = 0.5;
 110:.\Ultrasonics.c ****     double distance1=0;
 111:.\Ultrasonics.c ****     double distance2=0;
 112:.\Ultrasonics.c ****     double dist_diff=0;
 113:.\Ultrasonics.c ****     double alpha;
 114:.\Ultrasonics.c ****     int n = 0;
 115:.\Ultrasonics.c ****     uint8 i;
 116:.\Ultrasonics.c ****     uint8 check = 1;
 117:.\Ultrasonics.c ****     uint8 finish = 0;
 364              		.loc 1 117 0
 365 000a 0023     		movs	r3, #0
 366 000c 9A46     		mov	r10, r3
 116:.\Ultrasonics.c ****     uint8 finish = 0;
 367              		.loc 1 116 0
 368 000e 4FF0010B 		mov	fp, #1
 110:.\Ultrasonics.c ****     double distance2=0;
 369              		.loc 1 110 0
 370 0012 0022     		movs	r2, #0
 371 0014 0023     		movs	r3, #0
 372 0016 CDE90023 		strd	r2, [sp]
 118:.\Ultrasonics.c ****     double precision;
 119:.\Ultrasonics.c ****     
 120:.\Ultrasonics.c ****     while(!finish){
 373              		.loc 1 120 0
 374 001a DFE0     		b	.L22
 375              	.LVL70:
 376              	.L39:
 121:.\Ultrasonics.c ****         if (sense) distance1 = UltrasonicsSensitive(0);
 377              		.loc 1 121 0
 378 001c 2EB1     		cbz	r6, .L23
 379              		.loc 1 121 0 is_stmt 0 discriminator 1
 380 001e 0020     		movs	r0, #0
 381 0020 FFF7FEFF 		bl	UltrasonicsSensitive
 382              	.LVL71:
 383 0024 CDE90001 		strd	r0, [sp]
 384              	.LVL72:
 385 0028 04E0     		b	.L24
 386              	.LVL73:
 387              	.L23:
 122:.\Ultrasonics.c ****         else distance1 = Ultrasonics(0);
 388              		.loc 1 122 0 is_stmt 1
 389 002a 0020     		movs	r0, #0
ARM GAS  C:\Users\Daniel\AppData\Local\Temp\ccclGQdl.s 			page 10


 390 002c FFF7FEFF 		bl	Ultrasonics
 391              	.LVL74:
 392 0030 CDE90001 		strd	r0, [sp]
 393              	.LVL75:
 394              	.L24:
 123:.\Ultrasonics.c ****         CyDelay(50);
 395              		.loc 1 123 0
 396 0034 3220     		movs	r0, #50
 397 0036 FFF7FEFF 		bl	CyDelay
 398              	.LVL76:
 124:.\Ultrasonics.c ****         if (sense) distance2 = UltrasonicsSensitive(1);
 399              		.loc 1 124 0
 400 003a 2EB1     		cbz	r6, .L25
 401              		.loc 1 124 0 is_stmt 0 discriminator 1
 402 003c 0120     		movs	r0, #1
 403 003e FFF7FEFF 		bl	UltrasonicsSensitive
 404              	.LVL77:
 405 0042 0446     		mov	r4, r0
 406 0044 0D46     		mov	r5, r1
 407              	.LVL78:
 408 0046 04E0     		b	.L26
 409              	.LVL79:
 410              	.L25:
 125:.\Ultrasonics.c ****         else distance2 = Ultrasonics(1);
 411              		.loc 1 125 0 is_stmt 1
 412 0048 0120     		movs	r0, #1
 413 004a FFF7FEFF 		bl	Ultrasonics
 414              	.LVL80:
 415 004e 0446     		mov	r4, r0
 416 0050 0D46     		mov	r5, r1
 417              	.LVL81:
 418              	.L26:
 126:.\Ultrasonics.c ****         dist_diff = (distance1 - distance2);
 419              		.loc 1 126 0
 420 0052 DDE90001 		ldrd	r0, [sp]
 421 0056 2246     		mov	r2, r4
 422 0058 2B46     		mov	r3, r5
 423 005a FFF7FEFF 		bl	__aeabi_dsub
 424              	.LVL82:
 425 005e 8146     		mov	r9, r0
 426 0060 8846     		mov	r8, r1
 427              	.LVL83:
 127:.\Ultrasonics.c ****         precision = pow((distance2+distance1)/2/10,0.2);
 428              		.loc 1 127 0
 429 0062 2046     		mov	r0, r4
 430              	.LVL84:
 431 0064 2946     		mov	r1, r5
 432              	.LVL85:
 433 0066 DDE90023 		ldrd	r2, [sp]
 434 006a FFF7FEFF 		bl	__aeabi_dadd
 435              	.LVL86:
 436 006e 0022     		movs	r2, #0
 437 0070 674B     		ldr	r3, .L50+32
 438 0072 FFF7FEFF 		bl	__aeabi_dmul
 439              	.LVL87:
 440 0076 0022     		movs	r2, #0
 441 0078 664B     		ldr	r3, .L50+36
ARM GAS  C:\Users\Daniel\AppData\Local\Temp\ccclGQdl.s 			page 11


 442 007a FFF7FEFF 		bl	__aeabi_ddiv
 443              	.LVL88:
 444 007e 5CA3     		adr	r3, .L50
 445 0080 D3E90023 		ldrd	r2, [r3]
 446 0084 FFF7FEFF 		bl	pow
 447              	.LVL89:
 448 0088 0246     		mov	r2, r0
 449 008a 0B46     		mov	r3, r1
 450              	.LVL90:
 128:.\Ultrasonics.c ****         if(fabs(dist_diff)>precision && sensors==0){
 451              		.loc 1 128 0
 452 008c 28F00044 		bic	r4, r8, #-2147483648
 453              	.LVL91:
 454 0090 4846     		mov	r0, r9
 455 0092 2146     		mov	r1, r4
 456 0094 FFF7FEFF 		bl	__aeabi_dcmpgt
 457              	.LVL92:
 458 0098 0028     		cmp	r0, #0
 459 009a 00F08B80 		beq	.L47
 460              		.loc 1 128 0 is_stmt 0 discriminator 1
 461 009e 039B     		ldr	r3, [sp, #12]
 462 00a0 002B     		cmp	r3, #0
 463 00a2 40F08B80 		bne	.L41
 129:.\Ultrasonics.c ****             //alpha =  (asin(fabs(dist_diff)/14.0)) * 180.0/PI;
 130:.\Ultrasonics.c ****             alpha =  pow(((asin(fabs(dist_diff)/14.0)*180/PI)/60),1.8)*60;
 464              		.loc 1 130 0 is_stmt 1
 465 00a6 4846     		mov	r0, r9
 466 00a8 2146     		mov	r1, r4
 467 00aa 0022     		movs	r2, #0
 468 00ac 5A4B     		ldr	r3, .L50+40
 469 00ae FFF7FEFF 		bl	__aeabi_ddiv
 470              	.LVL93:
 471 00b2 FFF7FEFF 		bl	asin
 472              	.LVL94:
 473 00b6 0022     		movs	r2, #0
 474 00b8 584B     		ldr	r3, .L50+44
 475 00ba FFF7FEFF 		bl	__aeabi_dmul
 476              	.LVL95:
 477 00be 4EA3     		adr	r3, .L50+8
 478 00c0 D3E90023 		ldrd	r2, [r3]
 479 00c4 FFF7FEFF 		bl	__aeabi_ddiv
 480              	.LVL96:
 481 00c8 0022     		movs	r2, #0
 482 00ca 554B     		ldr	r3, .L50+48
 483 00cc FFF7FEFF 		bl	__aeabi_ddiv
 484              	.LVL97:
 485 00d0 4BA3     		adr	r3, .L50+16
 486 00d2 D3E90023 		ldrd	r2, [r3]
 487 00d6 FFF7FEFF 		bl	pow
 488              	.LVL98:
 489 00da 0022     		movs	r2, #0
 490 00dc 504B     		ldr	r3, .L50+48
 491 00de FFF7FEFF 		bl	__aeabi_dmul
 492              	.LVL99:
 493 00e2 0446     		mov	r4, r0
 494 00e4 0D46     		mov	r5, r1
 495              	.LVL100:
ARM GAS  C:\Users\Daniel\AppData\Local\Temp\ccclGQdl.s 			page 12


 131:.\Ultrasonics.c ****             if(dist_diff>0){
 496              		.loc 1 131 0
 497 00e6 4846     		mov	r0, r9
 498 00e8 4146     		mov	r1, r8
 499 00ea 0022     		movs	r2, #0
 500 00ec 0023     		movs	r3, #0
 501 00ee FFF7FEFF 		bl	__aeabi_dcmpgt
 502              	.LVL101:
 503 00f2 68B1     		cbz	r0, .L48
 132:.\Ultrasonics.c ****                 //right side close than left
 133:.\Ultrasonics.c ****                 MovementPivotLeft(0.6*alpha*supression); 
 504              		.loc 1 133 0
 505 00f4 2046     		mov	r0, r4
 506 00f6 2946     		mov	r1, r5
 507 00f8 43A3     		adr	r3, .L50+24
 508 00fa D3E90023 		ldrd	r2, [r3]
 509 00fe FFF7FEFF 		bl	__aeabi_dmul
 510              	.LVL102:
 511 0102 0022     		movs	r2, #0
 512 0104 424B     		ldr	r3, .L50+32
 513 0106 FFF7FEFF 		bl	__aeabi_dmul
 514              	.LVL103:
 515 010a FFF7FEFF 		bl	MovementPivotLeft
 516              	.LVL104:
 517 010e 5AE0     		b	.L31
 518              	.L48:
 134:.\Ultrasonics.c ****             }else{
 135:.\Ultrasonics.c ****                 //left side closer than right
 136:.\Ultrasonics.c ****                 MovementPivotRight(0.6*alpha*supression);
 519              		.loc 1 136 0
 520 0110 2046     		mov	r0, r4
 521 0112 2946     		mov	r1, r5
 522 0114 3CA3     		adr	r3, .L50+24
 523 0116 D3E90023 		ldrd	r2, [r3]
 524 011a FFF7FEFF 		bl	__aeabi_dmul
 525              	.LVL105:
 526 011e 0022     		movs	r2, #0
 527 0120 3B4B     		ldr	r3, .L50+32
 528 0122 FFF7FEFF 		bl	__aeabi_dmul
 529              	.LVL106:
 530 0126 FFF7FEFF 		bl	MovementPivotRight
 531              	.LVL107:
 532 012a 4CE0     		b	.L31
 533              	.LVL108:
 534              	.L37:
 137:.\Ultrasonics.c ****             }
 138:.\Ultrasonics.c ****         }else{
 139:.\Ultrasonics.c ****             check = 0;
 140:.\Ultrasonics.c ****             for(i=0;i<5;i++){
 141:.\Ultrasonics.c ****                 if (sense) distance1 = UltrasonicsSensitive(0);
 535              		.loc 1 141 0
 536 012c 2EB1     		cbz	r6, .L32
 537              		.loc 1 141 0 is_stmt 0 discriminator 1
 538 012e 0020     		movs	r0, #0
 539 0130 FFF7FEFF 		bl	UltrasonicsSensitive
 540              	.LVL109:
 541 0134 CDE90001 		strd	r0, [sp]
ARM GAS  C:\Users\Daniel\AppData\Local\Temp\ccclGQdl.s 			page 13


 542              	.LVL110:
 543 0138 04E0     		b	.L33
 544              	.LVL111:
 545              	.L32:
 142:.\Ultrasonics.c ****                 else distance1 = Ultrasonics(0);
 546              		.loc 1 142 0 is_stmt 1
 547 013a 0020     		movs	r0, #0
 548 013c FFF7FEFF 		bl	Ultrasonics
 549              	.LVL112:
 550 0140 CDE90001 		strd	r0, [sp]
 551              	.LVL113:
 552              	.L33:
 143:.\Ultrasonics.c ****                 CyDelay(100);
 553              		.loc 1 143 0
 554 0144 6420     		movs	r0, #100
 555 0146 FFF7FEFF 		bl	CyDelay
 556              	.LVL114:
 144:.\Ultrasonics.c ****                 if (sense) distance2 =UltrasonicsSensitive(1);
 557              		.loc 1 144 0
 558 014a 2EB1     		cbz	r6, .L34
 559              		.loc 1 144 0 is_stmt 0 discriminator 1
 560 014c 0120     		movs	r0, #1
 561 014e FFF7FEFF 		bl	UltrasonicsSensitive
 562              	.LVL115:
 563 0152 8046     		mov	r8, r0
 564 0154 8946     		mov	r9, r1
 565              	.LVL116:
 566 0156 04E0     		b	.L35
 567              	.LVL117:
 568              	.L34:
 145:.\Ultrasonics.c ****                 else distance2 = Ultrasonics(1);
 569              		.loc 1 145 0 is_stmt 1
 570 0158 0120     		movs	r0, #1
 571 015a FFF7FEFF 		bl	Ultrasonics
 572              	.LVL118:
 573 015e 8046     		mov	r8, r0
 574 0160 8946     		mov	r9, r1
 575              	.LVL119:
 576              	.L35:
 146:.\Ultrasonics.c ****                 dist_diff = (distance1 - distance2);
 577              		.loc 1 146 0
 578 0162 DDE90001 		ldrd	r0, [sp]
 579 0166 4246     		mov	r2, r8
 580 0168 4B46     		mov	r3, r9
 581 016a FFF7FEFF 		bl	__aeabi_dsub
 582              	.LVL120:
 583 016e 0746     		mov	r7, r0
 584 0170 0D46     		mov	r5, r1
 585              	.LVL121:
 147:.\Ultrasonics.c ****                 precision = pow((distance2+distance1)/2/10,0.2);
 586              		.loc 1 147 0
 587 0172 4046     		mov	r0, r8
 588              	.LVL122:
 589 0174 4946     		mov	r1, r9
 590              	.LVL123:
 591 0176 DDE90023 		ldrd	r2, [sp]
 592 017a FFF7FEFF 		bl	__aeabi_dadd
ARM GAS  C:\Users\Daniel\AppData\Local\Temp\ccclGQdl.s 			page 14


 593              	.LVL124:
 594 017e 0022     		movs	r2, #0
 595 0180 234B     		ldr	r3, .L50+32
 596 0182 FFF7FEFF 		bl	__aeabi_dmul
 597              	.LVL125:
 598 0186 0022     		movs	r2, #0
 599 0188 224B     		ldr	r3, .L50+36
 600 018a FFF7FEFF 		bl	__aeabi_ddiv
 601              	.LVL126:
 602 018e 18A3     		adr	r3, .L50
 603 0190 D3E90023 		ldrd	r2, [r3]
 604 0194 FFF7FEFF 		bl	pow
 605              	.LVL127:
 606 0198 0246     		mov	r2, r0
 607 019a 0B46     		mov	r3, r1
 608              	.LVL128:
 148:.\Ultrasonics.c ****                 if(fabs(dist_diff)>precision){
 609              		.loc 1 148 0
 610 019c 3846     		mov	r0, r7
 611 019e 25F00041 		bic	r1, r5, #-2147483648
 612 01a2 FFF7FEFF 		bl	__aeabi_dcmpgt
 613              	.LVL129:
 614 01a6 10B1     		cbz	r0, .L36
 149:.\Ultrasonics.c ****                     check = 1;
 615              		.loc 1 149 0
 616 01a8 4FF0010B 		mov	fp, #1
 617              	.LVL130:
 150:.\Ultrasonics.c ****                     i = 5;
 618              		.loc 1 150 0
 619 01ac 0524     		movs	r4, #5
 620              	.LVL131:
 621              	.L36:
 140:.\Ultrasonics.c ****                 if (sense) distance1 = UltrasonicsSensitive(0);
 622              		.loc 1 140 0 discriminator 2
 623 01ae 0134     		adds	r4, r4, #1
 624              	.LVL132:
 625 01b0 E4B2     		uxtb	r4, r4
 626              	.LVL133:
 627 01b2 06E0     		b	.L27
 628              	.LVL134:
 629              	.L47:
 630 01b4 4FF0000B 		mov	fp, #0
 631              	.LVL135:
 632 01b8 5C46     		mov	r4, fp
 633 01ba 02E0     		b	.L27
 634              	.LVL136:
 635              	.L41:
 636 01bc 4FF0000B 		mov	fp, #0
 637              	.LVL137:
 638 01c0 5C46     		mov	r4, fp
 639              	.LVL138:
 640              	.L27:
 140:.\Ultrasonics.c ****                 if (sense) distance1 = UltrasonicsSensitive(0);
 641              		.loc 1 140 0 is_stmt 0 discriminator 1
 642 01c2 042C     		cmp	r4, #4
 643 01c4 B2D9     		bls	.L37
 644              	.LVL139:
ARM GAS  C:\Users\Daniel\AppData\Local\Temp\ccclGQdl.s 			page 15


 645              	.L31:
 151:.\Ultrasonics.c ****                 }
 152:.\Ultrasonics.c ****             }
 153:.\Ultrasonics.c ****         }
 154:.\Ultrasonics.c ****         n++;
 155:.\Ultrasonics.c ****         if(!check || sensors==1){
 646              		.loc 1 155 0 is_stmt 1
 647 01c6 BBF1000F 		cmp	fp, #0
 648 01ca 02D0     		beq	.L43
 649              		.loc 1 155 0 is_stmt 0 discriminator 1
 650 01cc 039B     		ldr	r3, [sp, #12]
 651 01ce 1BB9     		cbnz	r3, .L44
 652 01d0 04E0     		b	.L22
 653              	.L43:
 156:.\Ultrasonics.c ****             finish = 1;
 654              		.loc 1 156 0 is_stmt 1
 655 01d2 0123     		movs	r3, #1
 656 01d4 9A46     		mov	r10, r3
 657              	.LVL140:
 658 01d6 01E0     		b	.L22
 659              	.LVL141:
 660              	.L44:
 661 01d8 0123     		movs	r3, #1
 662 01da 9A46     		mov	r10, r3
 663              	.LVL142:
 664              	.L22:
 120:.\Ultrasonics.c ****         if (sense) distance1 = UltrasonicsSensitive(0);
 665              		.loc 1 120 0
 666 01dc 5346     		mov	r3, r10
 667 01de 002B     		cmp	r3, #0
 668 01e0 3FF41CAF 		beq	.L39
 157:.\Ultrasonics.c ****             
 158:.\Ultrasonics.c ****         }
 159:.\Ultrasonics.c ****     }
 160:.\Ultrasonics.c ****     return distance1;
 161:.\Ultrasonics.c **** }
 669              		.loc 1 161 0
 670 01e4 DDE90001 		ldrd	r0, [sp]
 671 01e8 05B0     		add	sp, sp, #20
 672              		.cfi_def_cfa_offset 36
 673              	.LVL143:
 674              		@ sp needed
 675 01ea BDE8F08F 		pop	{r4, r5, r6, r7, r8, r9, r10, fp, pc}
 676              	.LVL144:
 677              	.L51:
 678 01ee 00BF     		.align	3
 679              	.L50:
 680 01f0 9A999999 		.word	-1717986918
 681 01f4 9999C93F 		.word	1070176665
 682 01f8 44174154 		.word	1413551940
 683 01fc FB210940 		.word	1074340347
 684 0200 CDCCCCCC 		.word	-858993459
 685 0204 CCCCFC3F 		.word	1073532108
 686 0208 33333333 		.word	858993459
 687 020c 3333E33F 		.word	1071854387
 688 0210 0000E03F 		.word	1071644672
 689 0214 00002440 		.word	1076101120
ARM GAS  C:\Users\Daniel\AppData\Local\Temp\ccclGQdl.s 			page 16


 690 0218 00002C40 		.word	1076625408
 691 021c 00806640 		.word	1080459264
 692 0220 00004E40 		.word	1078853632
 693              		.cfi_endproc
 694              	.LFE65:
 695              		.size	Wall_Align, .-Wall_Align
 696              		.global	__aeabi_d2uiz
 697              		.global	__aeabi_f2d
 698 0224 AFF30080 		.section	.text.MoveAlign,"ax",%progbits
 699              		.align	2
 700              		.global	MoveAlign
 701              		.thumb
 702              		.thumb_func
 703              		.type	MoveAlign, %function
 704              	MoveAlign:
 705              	.LFB66:
 162:.\Ultrasonics.c **** 
 163:.\Ultrasonics.c **** 
 164:.\Ultrasonics.c **** void MoveAlign(double distance, bool sense, bool sensors, float prec){    //distance in cm
 706              		.loc 1 164 0
 707              		.cfi_startproc
 708              		@ args = 4, pretend = 0, frame = 0
 709              		@ frame_needed = 0, uses_anonymous_args = 0
 710              	.LVL145:
 711 0000 2DE9F84F 		push	{r3, r4, r5, r6, r7, r8, r9, r10, fp, lr}
 712              		.cfi_def_cfa_offset 40
 713              		.cfi_offset 3, -40
 714              		.cfi_offset 4, -36
 715              		.cfi_offset 5, -32
 716              		.cfi_offset 6, -28
 717              		.cfi_offset 7, -24
 718              		.cfi_offset 8, -20
 719              		.cfi_offset 9, -16
 720              		.cfi_offset 10, -12
 721              		.cfi_offset 11, -8
 722              		.cfi_offset 14, -4
 723 0004 8046     		mov	r8, r0
 724 0006 8946     		mov	r9, r1
 725 0008 9246     		mov	r10, r2
 726 000a 9B46     		mov	fp, r3
 165:.\Ultrasonics.c ****     double dist = Wall_Align(sense,sensors);
 727              		.loc 1 165 0
 728 000c 1046     		mov	r0, r2
 729              	.LVL146:
 730 000e 1946     		mov	r1, r3
 731 0010 FFF7FEFF 		bl	Wall_Align
 732              	.LVL147:
 733 0014 0646     		mov	r6, r0
 734 0016 0F46     		mov	r7, r1
 735              	.LVL148:
 166:.\Ultrasonics.c ****     while(fabs(distance-dist)>prec)
 736              		.loc 1 166 0
 737 0018 3DE0     		b	.L53
 738              	.L57:
 167:.\Ultrasonics.c ****     {
 168:.\Ultrasonics.c ****         //3s/14.5cm
 169:.\Ultrasonics.c ****         if (dist-distance>0){
ARM GAS  C:\Users\Daniel\AppData\Local\Temp\ccclGQdl.s 			page 17


 739              		.loc 1 169 0
 740 001a 3046     		mov	r0, r6
 741 001c 3946     		mov	r1, r7
 742 001e 4246     		mov	r2, r8
 743 0020 4B46     		mov	r3, r9
 744 0022 FFF7FEFF 		bl	__aeabi_dsub
 745              	.LVL149:
 746 0026 0446     		mov	r4, r0
 747 0028 0D46     		mov	r5, r1
 748 002a 0022     		movs	r2, #0
 749 002c 0023     		movs	r3, #0
 750 002e FFF7FEFF 		bl	__aeabi_dcmpgt
 751              	.LVL150:
 752 0032 F0B1     		cbz	r0, .L59
 170:.\Ultrasonics.c ****             MovementForward(3000.0/14.5*pow((dist-distance)/10.0,1.25)*10.0);
 753              		.loc 1 170 0
 754 0034 2046     		mov	r0, r4
 755 0036 2946     		mov	r1, r5
 756 0038 0022     		movs	r2, #0
 757 003a 274B     		ldr	r3, .L61+16
 758 003c FFF7FEFF 		bl	__aeabi_ddiv
 759              	.LVL151:
 760 0040 0022     		movs	r2, #0
 761 0042 264B     		ldr	r3, .L61+20
 762 0044 FFF7FEFF 		bl	pow
 763              	.LVL152:
 764 0048 1FA3     		adr	r3, .L61
 765 004a D3E90023 		ldrd	r2, [r3]
 766 004e FFF7FEFF 		bl	__aeabi_dmul
 767              	.LVL153:
 768 0052 0022     		movs	r2, #0
 769 0054 204B     		ldr	r3, .L61+16
 770 0056 FFF7FEFF 		bl	__aeabi_dmul
 771              	.LVL154:
 772 005a FFF7FEFF 		bl	__aeabi_d2uiz
 773              	.LVL155:
 774 005e 80B2     		uxth	r0, r0
 775 0060 FFF7FEFF 		bl	MovementForward
 776              	.LVL156:
 171:.\Ultrasonics.c ****             dist = Wall_Align(sense,sensors);
 777              		.loc 1 171 0
 778 0064 5046     		mov	r0, r10
 779 0066 5946     		mov	r1, fp
 780 0068 FFF7FEFF 		bl	Wall_Align
 781              	.LVL157:
 782 006c 0646     		mov	r6, r0
 783              	.LVL158:
 784 006e 0F46     		mov	r7, r1
 785              	.LVL159:
 786 0070 11E0     		b	.L53
 787              	.L59:
 172:.\Ultrasonics.c ****         }else{
 173:.\Ultrasonics.c ****             MovementBackward(-3000.0/14.5*(dist-distance));
 788              		.loc 1 173 0
 789 0072 2046     		mov	r0, r4
 790 0074 2946     		mov	r1, r5
 791 0076 16A3     		adr	r3, .L61+8
ARM GAS  C:\Users\Daniel\AppData\Local\Temp\ccclGQdl.s 			page 18


 792 0078 D3E90023 		ldrd	r2, [r3]
 793 007c FFF7FEFF 		bl	__aeabi_dmul
 794              	.LVL160:
 795 0080 FFF7FEFF 		bl	__aeabi_d2uiz
 796              	.LVL161:
 797 0084 80B2     		uxth	r0, r0
 798 0086 FFF7FEFF 		bl	MovementBackward
 799              	.LVL162:
 174:.\Ultrasonics.c ****             //OLD CORRECTION FCN: MovementBackward(3000.0/14.5*(distance-dist)*0.75);
 175:.\Ultrasonics.c ****             dist = Wall_Align(sense,0);
 800              		.loc 1 175 0
 801 008a 5046     		mov	r0, r10
 802 008c 0021     		movs	r1, #0
 803 008e FFF7FEFF 		bl	Wall_Align
 804              	.LVL163:
 805 0092 0646     		mov	r6, r0
 806              	.LVL164:
 807 0094 0F46     		mov	r7, r1
 808              	.LVL165:
 809              	.L53:
 166:.\Ultrasonics.c ****     {
 810              		.loc 1 166 0
 811 0096 4046     		mov	r0, r8
 812 0098 4946     		mov	r1, r9
 813 009a 3246     		mov	r2, r6
 814 009c 3B46     		mov	r3, r7
 815 009e FFF7FEFF 		bl	__aeabi_dsub
 816              	.LVL166:
 817 00a2 0546     		mov	r5, r0
 818 00a4 21F00044 		bic	r4, r1, #-2147483648
 819 00a8 0A98     		ldr	r0, [sp, #40]	@ float
 820 00aa FFF7FEFF 		bl	__aeabi_f2d
 821              	.LVL167:
 822 00ae 0246     		mov	r2, r0
 823 00b0 0B46     		mov	r3, r1
 824 00b2 2846     		mov	r0, r5
 825 00b4 2146     		mov	r1, r4
 826 00b6 FFF7FEFF 		bl	__aeabi_dcmpgt
 827              	.LVL168:
 828 00ba 0028     		cmp	r0, #0
 829 00bc ADD1     		bne	.L57
 176:.\Ultrasonics.c ****         }
 177:.\Ultrasonics.c ****         //dist = Wall_Align();
 178:.\Ultrasonics.c ****     }
 179:.\Ultrasonics.c **** }
 830              		.loc 1 179 0
 831 00be BDE8F88F 		pop	{r3, r4, r5, r6, r7, r8, r9, r10, fp, pc}
 832              	.LVL169:
 833              	.L62:
 834 00c2 00BFAFF3 		.align	3
 834      0080
 835              	.L61:
 836 00c8 09CB3D8D 		.word	-1925330167
 837 00cc B0DC6940 		.word	1080679600
 838 00d0 09CB3D8D 		.word	-1925330167
 839 00d4 B0DC69C0 		.word	-1066804048
 840 00d8 00002440 		.word	1076101120
ARM GAS  C:\Users\Daniel\AppData\Local\Temp\ccclGQdl.s 			page 19


 841 00dc 0000F43F 		.word	1072955392
 842              		.cfi_endproc
 843              	.LFE66:
 844              		.size	MoveAlign, .-MoveAlign
 845              		.comm	Camera_linebuffer,640,4
 846              		.text
 847              	.Letext0:
 848              		.file 2 "c:\\program files (x86)\\cypress\\psoc creator\\3.3\\psoc creator\\import\\gnu\\arm\\4.9.
 849              		.file 3 "c:\\program files (x86)\\cypress\\psoc creator\\3.3\\psoc creator\\import\\gnu\\arm\\4.9.
 850              		.file 4 "Generated_Source\\PSoC5/cytypes.h"
 851              		.file 5 "Generated_Source\\PSoC5/core_cm3.h"
 852              		.file 6 "Generated_Source\\PSoC5/Camera.h"
 853              		.file 7 ".\\utils.h"
 854              		.file 8 "Generated_Source\\PSoC5/CS.h"
 855              		.file 9 "Generated_Source\\PSoC5/USTX.h"
 856              		.file 10 "Generated_Source\\PSoC5/CyLib.h"
 857              		.file 11 "Generated_Source\\PSoC5/D.h"
 858              		.file 12 "Generated_Source\\PSoC5/Timer_1.h"
 859              		.file 13 "Generated_Source\\PSoC5/USTX2.h"
 860              		.file 14 "Generated_Source\\PSoC5/Timer_2.h"
 861              		.file 15 ".\\movement_functions.h"
 862              		.file 16 "c:\\program files (x86)\\cypress\\psoc creator\\3.3\\psoc creator\\import\\gnu\\arm\\4.9